
C:/Users/di461643/MicroControllTechnik/YAHAL/examples/msp432-launchpad/P00_projekt/build/ski.elf:     file format elf32-littlearm

Sections:
Idx Name          Size      VMA       LMA       File off  Algn
  0 .text         000069e0  00000000  00000000  00010000  2**4
                  CONTENTS, ALLOC, LOAD, READONLY, CODE
  1 .ARM.extab    00000000  000069e0  000069e0  000169e0  2**0
                  CONTENTS, ALLOC, LOAD, READONLY, DATA
  2 .ARM.exidx    00000008  000069e0  000069e0  000169e0  2**2
                  CONTENTS, ALLOC, LOAD, READONLY, DATA
  3 .rodata       00008ec7  000069e8  000069e8  000169e8  2**2
                  CONTENTS, ALLOC, LOAD, READONLY, DATA
  4 .copy.table   0000000d  0000f8af  0000f8af  0001f8af  2**0
                  CONTENTS, ALLOC, LOAD, DATA
  5 .zero.table   0000000c  0000f8bc  0000f8bc  0001f8bc  2**0
                  CONTENTS, ALLOC, LOAD, DATA
  6 .data         00000098  20000000  0000f8c8  00020000  2**2
                  CONTENTS, ALLOC, LOAD, DATA
  7 .bss          00000778  20000098  0000f960  00020098  2**3
                  ALLOC
  8 .ARM.attributes 00000030  00000000  00000000  00020098  2**0
                  CONTENTS, READONLY
  9 .comment      00000045  00000000  00000000  000200c8  2**0
                  CONTENTS, READONLY
 10 .debug_line_str 000001c4  00000000  00000000  0002010d  2**0
                  CONTENTS, READONLY, DEBUGGING, OCTETS
 11 .debug_info   00021c00  00000000  00000000  000202d1  2**0
                  CONTENTS, READONLY, DEBUGGING, OCTETS
 12 .debug_abbrev 00004ecb  00000000  00000000  00041ed1  2**0
                  CONTENTS, READONLY, DEBUGGING, OCTETS
 13 .debug_loc    0000a85a  00000000  00000000  00046d9c  2**0
                  CONTENTS, READONLY, DEBUGGING, OCTETS
 14 .debug_aranges 00000cf0  00000000  00000000  000515f6  2**0
                  CONTENTS, READONLY, DEBUGGING, OCTETS
 15 .debug_ranges 00001580  00000000  00000000  000522e6  2**0
                  CONTENTS, READONLY, DEBUGGING, OCTETS
 16 .debug_line   0000c8ba  00000000  00000000  00053866  2**0
                  CONTENTS, READONLY, DEBUGGING, OCTETS
 17 .debug_str    00007fc8  00000000  00000000  00060120  2**0
                  CONTENTS, READONLY, DEBUGGING, OCTETS
 18 .debug_frame  00003298  00000000  00000000  000680e8  2**2
                  CONTENTS, READONLY, DEBUGGING, OCTETS

C:/Users/di461643/MicroControllTechnik/YAHAL/examples/msp432-launchpad/P00_projekt/build/ski.elf:     file format elf32-littlearm


Disassembly of section .text:

00000000 <isr_vector>:
       0:	00 00 01 20 61 23 00 00 5f 23 00 00 5f 23 00 00     ... a#.._#.._#..
      10:	5f 23 00 00 5f 23 00 00 5f 23 00 00 00 00 00 00     _#.._#.._#......
	...
      2c:	79 34 00 00 5f 23 00 00 00 00 00 00 0d 34 00 00     y4.._#.......4..
      3c:	05 34 00 00 5f 23 00 00 5f 23 00 00 5f 23 00 00     .4.._#.._#.._#..
      4c:	5f 23 00 00 5f 23 00 00 5f 23 00 00 5f 23 00 00     _#.._#.._#.._#..
      5c:	5f 23 00 00 5f 23 00 00 5f 23 00 00 5f 23 00 00     _#.._#.._#.._#..
      6c:	5f 23 00 00 5f 23 00 00 5f 23 00 00 5f 23 00 00     _#.._#.._#.._#..
      7c:	5f 23 00 00 ed 31 00 00 09 32 00 00 25 32 00 00     _#...1...2..%2..
      8c:	41 32 00 00 5d 32 00 00 7d 32 00 00 9d 32 00 00     A2..]2..}2...2..
      9c:	bd 32 00 00 69 14 00 00 5f 23 00 00 5f 23 00 00     .2..i..._#.._#..
      ac:	5f 23 00 00 5f 23 00 00 5f 23 00 00 5f 23 00 00     _#.._#.._#.._#..
      bc:	5f 23 00 00 5f 23 00 00 5f 23 00 00 5f 23 00 00     _#.._#.._#.._#..
      cc:	c9 1a 00 00 ed 1a 00 00 11 1b 00 00 35 1b 00 00     ............5...
      dc:	59 1b 00 00 81 1b 00 00                             Y.......

000000e4 <deregister_tm_clones>:
      e4:	4803      	ldr	r0, [pc, #12]	; (f4 <deregister_tm_clones+0x10>)
      e6:	4b04      	ldr	r3, [pc, #16]	; (f8 <deregister_tm_clones+0x14>)
      e8:	4283      	cmp	r3, r0
      ea:	d002      	beq.n	f2 <deregister_tm_clones+0xe>
      ec:	4b03      	ldr	r3, [pc, #12]	; (fc <deregister_tm_clones+0x18>)
      ee:	b103      	cbz	r3, f2 <deregister_tm_clones+0xe>
      f0:	4718      	bx	r3
      f2:	4770      	bx	lr
      f4:	20000098 	.word	0x20000098
      f8:	20000098 	.word	0x20000098
      fc:	00000000 	.word	0x00000000

00000100 <register_tm_clones>:
     100:	4805      	ldr	r0, [pc, #20]	; (118 <register_tm_clones+0x18>)
     102:	4b06      	ldr	r3, [pc, #24]	; (11c <register_tm_clones+0x1c>)
     104:	1a1b      	subs	r3, r3, r0
     106:	0fd9      	lsrs	r1, r3, #31
     108:	eb01 01a3 	add.w	r1, r1, r3, asr #2
     10c:	1049      	asrs	r1, r1, #1
     10e:	d002      	beq.n	116 <register_tm_clones+0x16>
     110:	4b03      	ldr	r3, [pc, #12]	; (120 <register_tm_clones+0x20>)
     112:	b103      	cbz	r3, 116 <register_tm_clones+0x16>
     114:	4718      	bx	r3
     116:	4770      	bx	lr
     118:	20000098 	.word	0x20000098
     11c:	20000098 	.word	0x20000098
     120:	00000000 	.word	0x00000000

00000124 <__do_global_dtors_aux>:
     124:	b510      	push	{r4, lr}
     126:	4c06      	ldr	r4, [pc, #24]	; (140 <__do_global_dtors_aux+0x1c>)
     128:	7823      	ldrb	r3, [r4, #0]
     12a:	b943      	cbnz	r3, 13e <__do_global_dtors_aux+0x1a>
     12c:	f7ff ffda 	bl	e4 <deregister_tm_clones>
     130:	4b04      	ldr	r3, [pc, #16]	; (144 <__do_global_dtors_aux+0x20>)
     132:	b113      	cbz	r3, 13a <__do_global_dtors_aux+0x16>
     134:	4804      	ldr	r0, [pc, #16]	; (148 <__do_global_dtors_aux+0x24>)
     136:	f3af 8000 	nop.w
     13a:	2301      	movs	r3, #1
     13c:	7023      	strb	r3, [r4, #0]
     13e:	bd10      	pop	{r4, pc}
     140:	2000080e 	.word	0x2000080e
     144:	00000000 	.word	0x00000000
     148:	0000f8b0 	.word	0x0000f8b0

0000014c <frame_dummy>:
     14c:	b508      	push	{r3, lr}
     14e:	4b05      	ldr	r3, [pc, #20]	; (164 <frame_dummy+0x18>)
     150:	b11b      	cbz	r3, 15a <frame_dummy+0xe>
     152:	4905      	ldr	r1, [pc, #20]	; (168 <frame_dummy+0x1c>)
     154:	4805      	ldr	r0, [pc, #20]	; (16c <frame_dummy+0x20>)
     156:	f3af 8000 	nop.w
     15a:	e8bd 4008 	ldmia.w	sp!, {r3, lr}
     15e:	f7ff bfcf 	b.w	100 <register_tm_clones>
     162:	bf00      	nop
     164:	00000000 	.word	0x00000000
     168:	200007f4 	.word	0x200007f4
     16c:	0000f8b0 	.word	0x0000f8b0

00000170 <window_3_callback(uGUI::MESSAGE*)>:
     170:	4770      	bx	lr
	...

00000174 <window_1_callback(uGUI::MESSAGE*)>:
     174:	b508      	push	{r3, lr}
     176:	2101      	movs	r1, #1
     178:	4801      	ldr	r0, [pc, #4]	; (180 <window_1_callback(uGUI::MESSAGE*)+0xc>)
     17a:	f004 ff81 	bl	5080 <iprintf>
     17e:	bd08      	pop	{r3, pc}
     180:	00006a50 	.word	0x00006a50

00000184 <window_2_callback(uGUI::MESSAGE*)>:
     184:	b508      	push	{r3, lr}
     186:	2102      	movs	r1, #2
     188:	4801      	ldr	r0, [pc, #4]	; (190 <window_2_callback(uGUI::MESSAGE*)+0xc>)
     18a:	f004 ff79 	bl	5080 <iprintf>
     18e:	bd08      	pop	{r3, pc}
     190:	00006a50 	.word	0x00006a50

00000194 <setSpeed()>:
     194:	b500      	push	{lr}
     196:	b083      	sub	sp, #12
     198:	4808      	ldr	r0, [pc, #32]	; (1bc <setSpeed()+0x28>)
     19a:	f004 ff71 	bl	5080 <iprintf>
     19e:	a901      	add	r1, sp, #4
     1a0:	4807      	ldr	r0, [pc, #28]	; (1c0 <setSpeed()+0x2c>)
     1a2:	f004 ff7f 	bl	50a4 <iscanf>
     1a6:	9901      	ldr	r1, [sp, #4]
     1a8:	4b06      	ldr	r3, [pc, #24]	; (1c4 <setSpeed()+0x30>)
     1aa:	6019      	str	r1, [r3, #0]
     1ac:	4b06      	ldr	r3, [pc, #24]	; (1c8 <setSpeed()+0x34>)
     1ae:	6019      	str	r1, [r3, #0]
     1b0:	4806      	ldr	r0, [pc, #24]	; (1cc <setSpeed()+0x38>)
     1b2:	f004 ff65 	bl	5080 <iprintf>
     1b6:	b003      	add	sp, #12
     1b8:	f85d fb04 	ldr.w	pc, [sp], #4
     1bc:	00006a54 	.word	0x00006a54
     1c0:	00006a78 	.word	0x00006a78
     1c4:	20000008 	.word	0x20000008
     1c8:	20000004 	.word	0x20000004
     1cc:	00006a80 	.word	0x00006a80

000001d0 <main>:
     1d0:	e92d 43f0 	stmdb	sp!, {r4, r5, r6, r7, r8, r9, lr}
     1d4:	f2ad 6dfc 	subw	sp, sp, #1788	; 0x6fc
     1d8:	2326      	movs	r3, #38	; 0x26
     1da:	f44f 32e1 	mov.w	r2, #115200	; 0x1c200
     1de:	4972      	ldr	r1, [pc, #456]	; (3a8 <main+0x1d8>)
     1e0:	f50d 60dc 	add.w	r0, sp, #1760	; 0x6e0
     1e4:	f002 f9f6 	bl	25d4 <uart_msp432::uart_msp432(EUSCI_A_Type*, unsigned long, unsigned short)>
     1e8:	4e70      	ldr	r6, [pc, #448]	; (3ac <main+0x1dc>)
     1ea:	2201      	movs	r2, #1
     1ec:	f50d 61dc 	add.w	r1, sp, #1760	; 0x6e0
     1f0:	4630      	mov	r0, r6
     1f2:	f002 ffd5 	bl	31a0 <posix_io::register_stdout(uart_interface&, bool)>
     1f6:	2163      	movs	r1, #99	; 0x63
     1f8:	486d      	ldr	r0, [pc, #436]	; (3b0 <main+0x1e0>)
     1fa:	f004 ff41 	bl	5080 <iprintf>
     1fe:	4c6d      	ldr	r4, [pc, #436]	; (3b4 <main+0x1e4>)
     200:	f8cd 46d8 	str.w	r4, [sp, #1752]	; 0x6d8
     204:	270f      	movs	r7, #15
     206:	f88d 76dc 	strb.w	r7, [sp, #1756]	; 0x6dc
     20a:	f8cd 46d0 	str.w	r4, [sp, #1744]	; 0x6d0
     20e:	2509      	movs	r5, #9
     210:	f88d 56d4 	strb.w	r5, [sp, #1748]	; 0x6d4
     214:	6823      	ldr	r3, [r4, #0]
     216:	681b      	ldr	r3, [r3, #0]
     218:	2202      	movs	r2, #2
     21a:	4639      	mov	r1, r7
     21c:	4620      	mov	r0, r4
     21e:	4798      	blx	r3
     220:	6823      	ldr	r3, [r4, #0]
     222:	681b      	ldr	r3, [r3, #0]
     224:	2202      	movs	r2, #2
     226:	4629      	mov	r1, r5
     228:	4620      	mov	r0, r4
     22a:	4798      	blx	r3
     22c:	4c62      	ldr	r4, [pc, #392]	; (3b8 <main+0x1e8>)
     22e:	f8cd 46c8 	str.w	r4, [sp, #1736]	; 0x6c8
     232:	f240 2106 	movw	r1, #518	; 0x206
     236:	f8ad 16cc 	strh.w	r1, [sp, #1740]	; 0x6cc
     23a:	6823      	ldr	r3, [r4, #0]
     23c:	681b      	ldr	r3, [r3, #0]
     23e:	f44f 7281 	mov.w	r2, #258	; 0x102
     242:	4620      	mov	r0, r4
     244:	4798      	blx	r3
     246:	f8cd 46c0 	str.w	r4, [sp, #1728]	; 0x6c0
     24a:	f44f 63a0 	mov.w	r3, #1280	; 0x500
     24e:	f8ad 36c4 	strh.w	r3, [sp, #1732]	; 0x6c4
     252:	f24a 0380 	movw	r3, #41088	; 0xa080
     256:	9300      	str	r3, [sp, #0]
     258:	2301      	movs	r3, #1
     25a:	f50d 62d8 	add.w	r2, sp, #1728	; 0x6c0
     25e:	4957      	ldr	r1, [pc, #348]	; (3bc <main+0x1ec>)
     260:	f20d 6074 	addw	r0, sp, #1652	; 0x674
     264:	f001 fdba 	bl	1ddc <spi_msp432::spi_msp432(EUSCI_B_SPI_Type*, gpio_pin&, bool, unsigned short)>
     268:	4955      	ldr	r1, [pc, #340]	; (3c0 <main+0x1f0>)
     26a:	f20d 6074 	addw	r0, sp, #1652	; 0x674
     26e:	f001 ff8f 	bl	2190 <spi_msp432::setSpeed(unsigned long)>
     272:	f8cd 466c 	str.w	r4, [sp, #1644]	; 0x66c
     276:	f240 5101 	movw	r1, #1281	; 0x501
     27a:	f8ad 1670 	strh.w	r1, [sp, #1648]	; 0x670
     27e:	6823      	ldr	r3, [r4, #0]
     280:	681b      	ldr	r3, [r3, #0]
     282:	2211      	movs	r2, #17
     284:	4620      	mov	r0, r4
     286:	4798      	blx	r3
     288:	f8cd 4664 	str.w	r4, [sp, #1636]	; 0x664
     28c:	f240 3105 	movw	r1, #773	; 0x305
     290:	f8ad 1668 	strh.w	r1, [sp, #1640]	; 0x668
     294:	6823      	ldr	r3, [r4, #0]
     296:	681b      	ldr	r3, [r3, #0]
     298:	2211      	movs	r2, #17
     29a:	4620      	mov	r0, r4
     29c:	4798      	blx	r3
     29e:	f8cd 465c 	str.w	r4, [sp, #1628]	; 0x65c
     2a2:	f44f 7180 	mov.w	r1, #256	; 0x100
     2a6:	f8ad 1660 	strh.w	r1, [sp, #1632]	; 0x660
     2aa:	6823      	ldr	r3, [r4, #0]
     2ac:	681b      	ldr	r3, [r3, #0]
     2ae:	2202      	movs	r2, #2
     2b0:	4620      	mov	r0, r4
     2b2:	4798      	blx	r3
     2b4:	f8cd 4654 	str.w	r4, [sp, #1620]	; 0x654
     2b8:	f240 5307 	movw	r3, #1287	; 0x507
     2bc:	f8ad 3658 	strh.w	r3, [sp, #1624]	; 0x658
     2c0:	f8cd 464c 	str.w	r4, [sp, #1612]	; 0x64c
     2c4:	f240 3307 	movw	r3, #775	; 0x307
     2c8:	f8ad 3650 	strh.w	r3, [sp, #1616]	; 0x650
     2cc:	2400      	movs	r4, #0
     2ce:	9401      	str	r4, [sp, #4]
     2d0:	4b3c      	ldr	r3, [pc, #240]	; (3c4 <main+0x1f4>)
     2d2:	9300      	str	r3, [sp, #0]
     2d4:	f20d 634c 	addw	r3, sp, #1612	; 0x64c
     2d8:	f20d 6254 	addw	r2, sp, #1620	; 0x654
     2dc:	f20d 6174 	addw	r1, sp, #1652	; 0x674
     2e0:	f50d 60a6 	add.w	r0, sp, #1328	; 0x530
     2e4:	f000 fc2c 	bl	b40 <st7735s_drv::st7735s_drv(spi_interface&, gpio_pin&, gpio_pin&, st7735s_drv::config&, mutex_interface*)>
     2e8:	2201      	movs	r2, #1
     2ea:	f50d 61dc 	add.w	r1, sp, #1760	; 0x6e0
     2ee:	4630      	mov	r0, r6
     2f0:	f002 ff48 	bl	3184 <posix_io::register_stdin(uart_interface&, bool)>
     2f4:	2201      	movs	r2, #1
     2f6:	f50d 61dc 	add.w	r1, sp, #1760	; 0x6e0
     2fa:	4630      	mov	r0, r6
     2fc:	f002 ff50 	bl	31a0 <posix_io::register_stdout(uart_interface&, bool)>
     300:	2201      	movs	r2, #1
     302:	f50d 61dc 	add.w	r1, sp, #1760	; 0x6e0
     306:	4630      	mov	r0, r6
     308:	f002 ff58 	bl	31bc <posix_io::register_stderr(uart_interface&, bool)>
     30c:	f50d 61a6 	add.w	r1, sp, #1328	; 0x530
     310:	f20d 40e4 	addw	r0, sp, #1252	; 0x4e4
     314:	f003 f9d0 	bl	36b8 <uGUI::uGUI(lcd_interface&)>
     318:	4621      	mov	r1, r4
     31a:	f50d 60a6 	add.w	r0, sp, #1328	; 0x530
     31e:	f000 fe69 	bl	ff4 <st7735s_drv::clearScreen(unsigned long)>
     322:	2380      	movs	r3, #128	; 0x80
     324:	f8ad 34de 	strh.w	r3, [sp, #1246]	; 0x4de
     328:	f8ad 34dc 	strh.w	r3, [sp, #1244]	; 0x4dc
     32c:	4b26      	ldr	r3, [pc, #152]	; (3c8 <main+0x1f8>)
     32e:	f8cd 34d8 	str.w	r3, [sp, #1240]	; 0x4d8
     332:	2310      	movs	r3, #16
     334:	f88d 34e0 	strb.w	r3, [sp, #1248]	; 0x4e0
     338:	2302      	movs	r3, #2
     33a:	f88d 34e1 	strb.w	r3, [sp, #1249]	; 0x4e1
     33e:	4b23      	ldr	r3, [pc, #140]	; (3cc <main+0x1fc>)
     340:	9300      	str	r3, [sp, #0]
     342:	463b      	mov	r3, r7
     344:	2260      	movs	r2, #96	; 0x60
     346:	211e      	movs	r1, #30
     348:	f20d 40e4 	addw	r0, sp, #1252	; 0x4e4
     34c:	f003 f9e2 	bl	3714 <uGUI::DrawCircle(short, short, short, unsigned long)>
     350:	f44f 037f 	mov.w	r3, #16711680	; 0xff0000
     354:	9300      	str	r3, [sp, #0]
     356:	230d      	movs	r3, #13
     358:	2260      	movs	r2, #96	; 0x60
     35a:	211e      	movs	r1, #30
     35c:	f20d 40e4 	addw	r0, sp, #1252	; 0x4e4
     360:	f003 fabe 	bl	38e0 <uGUI::FillCircle(short, short, short, unsigned long)>
     364:	abe6      	add	r3, sp, #920	; 0x398
     366:	e00a      	b.n	37e <main+0x1ae>
     368:	2200      	movs	r2, #0
     36a:	811a      	strh	r2, [r3, #8]
     36c:	815a      	strh	r2, [r3, #10]
     36e:	819a      	strh	r2, [r3, #12]
     370:	81da      	strh	r2, [r3, #14]
     372:	821a      	strh	r2, [r3, #16]
     374:	825a      	strh	r2, [r3, #18]
     376:	829a      	strh	r2, [r3, #20]
     378:	82da      	strh	r2, [r3, #22]
     37a:	3d01      	subs	r5, #1
     37c:	3320      	adds	r3, #32
     37e:	2d00      	cmp	r5, #0
     380:	daf2      	bge.n	368 <main+0x198>
     382:	2109      	movs	r1, #9
     384:	ab96      	add	r3, sp, #600	; 0x258
     386:	e00a      	b.n	39e <main+0x1ce>
     388:	2200      	movs	r2, #0
     38a:	811a      	strh	r2, [r3, #8]
     38c:	815a      	strh	r2, [r3, #10]
     38e:	819a      	strh	r2, [r3, #12]
     390:	81da      	strh	r2, [r3, #14]
     392:	821a      	strh	r2, [r3, #16]
     394:	825a      	strh	r2, [r3, #18]
     396:	829a      	strh	r2, [r3, #20]
     398:	82da      	strh	r2, [r3, #22]
     39a:	3901      	subs	r1, #1
     39c:	3320      	adds	r3, #32
     39e:	2900      	cmp	r1, #0
     3a0:	daf2      	bge.n	388 <main+0x1b8>
     3a2:	2109      	movs	r1, #9
     3a4:	ab46      	add	r3, sp, #280	; 0x118
     3a6:	e01e      	b.n	3e6 <main+0x216>
     3a8:	40001000 	.word	0x40001000
     3ac:	2000068c 	.word	0x2000068c
     3b0:	00006a50 	.word	0x00006a50
     3b4:	200005d8 	.word	0x200005d8
     3b8:	2000016c 	.word	0x2000016c
     3bc:	40002000 	.word	0x40002000
     3c0:	016e3600 	.word	0x016e3600
     3c4:	20000588 	.word	0x20000588
     3c8:	00006ac0 	.word	0x00006ac0
     3cc:	00ffff00 	.word	0x00ffff00
     3d0:	2200      	movs	r2, #0
     3d2:	811a      	strh	r2, [r3, #8]
     3d4:	815a      	strh	r2, [r3, #10]
     3d6:	819a      	strh	r2, [r3, #12]
     3d8:	81da      	strh	r2, [r3, #14]
     3da:	821a      	strh	r2, [r3, #16]
     3dc:	825a      	strh	r2, [r3, #18]
     3de:	829a      	strh	r2, [r3, #20]
     3e0:	82da      	strh	r2, [r3, #22]
     3e2:	3901      	subs	r1, #1
     3e4:	3320      	adds	r3, #32
     3e6:	2900      	cmp	r1, #0
     3e8:	daf2      	bge.n	3d0 <main+0x200>
     3ea:	2678      	movs	r6, #120	; 0x78
     3ec:	9601      	str	r6, [sp, #4]
     3ee:	9600      	str	r6, [sp, #0]
     3f0:	2300      	movs	r3, #0
     3f2:	461a      	mov	r2, r3
     3f4:	a935      	add	r1, sp, #212	; 0xd4
     3f6:	f20d 40e4 	addw	r0, sp, #1252	; 0x4e4
     3fa:	f003 ff67 	bl	42cc <uGUI::WindowResize(uGUI::WINDOW*, short, short, short, short)>
     3fe:	4ba5      	ldr	r3, [pc, #660]	; (694 <main+0x4c4>)
     400:	9300      	str	r3, [sp, #0]
     402:	230a      	movs	r3, #10
     404:	aae6      	add	r2, sp, #920	; 0x398
     406:	a935      	add	r1, sp, #212	; 0xd4
     408:	f20d 40e4 	addw	r0, sp, #1252	; 0x4e4
     40c:	f003 ff0c 	bl	4228 <uGUI::WindowCreate(uGUI::WINDOW*, uGUI::OBJECT*, unsigned char, void (*)(uGUI::MESSAGE*))>
     410:	4ba1      	ldr	r3, [pc, #644]	; (698 <main+0x4c8>)
     412:	931e      	str	r3, [sp, #120]	; 0x78
     414:	2328      	movs	r3, #40	; 0x28
     416:	9303      	str	r3, [sp, #12]
     418:	246e      	movs	r4, #110	; 0x6e
     41a:	9402      	str	r4, [sp, #8]
     41c:	250a      	movs	r5, #10
     41e:	9501      	str	r5, [sp, #4]
     420:	9500      	str	r5, [sp, #0]
     422:	2300      	movs	r3, #0
     424:	aa1d      	add	r2, sp, #116	; 0x74
     426:	a935      	add	r1, sp, #212	; 0xd4
     428:	f20d 40e4 	addw	r0, sp, #1252	; 0x4e4
     42c:	f004 fae8 	bl	4a00 <uGUI::ButtonCreate(uGUI::WINDOW*, uGUI::BUTTON*, unsigned char, short, short, short, short)>
     430:	2350      	movs	r3, #80	; 0x50
     432:	9303      	str	r3, [sp, #12]
     434:	9402      	str	r4, [sp, #8]
     436:	2732      	movs	r7, #50	; 0x32
     438:	9701      	str	r7, [sp, #4]
     43a:	9500      	str	r5, [sp, #0]
     43c:	2301      	movs	r3, #1
     43e:	aa16      	add	r2, sp, #88	; 0x58
     440:	a935      	add	r1, sp, #212	; 0xd4
     442:	f20d 40e4 	addw	r0, sp, #1252	; 0x4e4
     446:	f004 fadb 	bl	4a00 <uGUI::ButtonCreate(uGUI::WINDOW*, uGUI::BUTTON*, unsigned char, short, short, short, short)>
     44a:	2376      	movs	r3, #118	; 0x76
     44c:	f88d 3057 	strb.w	r3, [sp, #87]	; 0x57
     450:	f10d 0357 	add.w	r3, sp, #87	; 0x57
     454:	2200      	movs	r2, #0
     456:	a935      	add	r1, sp, #212	; 0xd4
     458:	f20d 40e4 	addw	r0, sp, #1252	; 0x4e4
     45c:	f004 fb4a 	bl	4af4 <uGUI::ButtonSetText(uGUI::WINDOW*, unsigned char, char*)>
     460:	200d      	movs	r0, #13
     462:	f004 fba1 	bl	4ba8 <operator new[](unsigned int)>
     466:	4603      	mov	r3, r0
     468:	4c8c      	ldr	r4, [pc, #560]	; (69c <main+0x4cc>)
     46a:	cc07      	ldmia	r4!, {r0, r1, r2}
     46c:	6018      	str	r0, [r3, #0]
     46e:	6059      	str	r1, [r3, #4]
     470:	609a      	str	r2, [r3, #8]
     472:	7822      	ldrb	r2, [r4, #0]
     474:	731a      	strb	r2, [r3, #12]
     476:	2200      	movs	r2, #0
     478:	a935      	add	r1, sp, #212	; 0xd4
     47a:	f20d 40e4 	addw	r0, sp, #1252	; 0x4e4
     47e:	f004 fb39 	bl	4af4 <uGUI::ButtonSetText(uGUI::WINDOW*, unsigned char, char*)>
     482:	f8df 8240 	ldr.w	r8, [pc, #576]	; 6c4 <main+0x4f4>
     486:	4643      	mov	r3, r8
     488:	2200      	movs	r2, #0
     48a:	a935      	add	r1, sp, #212	; 0xd4
     48c:	f20d 40e4 	addw	r0, sp, #1252	; 0x4e4
     490:	f004 fb50 	bl	4b34 <uGUI::ButtonSetFont(uGUI::WINDOW*, unsigned char, uGUI::FONT const*)>
     494:	2008      	movs	r0, #8
     496:	f004 fb87 	bl	4ba8 <operator new[](unsigned int)>
     49a:	4603      	mov	r3, r0
     49c:	4a80      	ldr	r2, [pc, #512]	; (6a0 <main+0x4d0>)
     49e:	ca03      	ldmia	r2!, {r0, r1}
     4a0:	6018      	str	r0, [r3, #0]
     4a2:	6059      	str	r1, [r3, #4]
     4a4:	2201      	movs	r2, #1
     4a6:	a935      	add	r1, sp, #212	; 0xd4
     4a8:	f20d 40e4 	addw	r0, sp, #1252	; 0x4e4
     4ac:	f004 fb22 	bl	4af4 <uGUI::ButtonSetText(uGUI::WINDOW*, unsigned char, char*)>
     4b0:	4643      	mov	r3, r8
     4b2:	2201      	movs	r2, #1
     4b4:	a935      	add	r1, sp, #212	; 0xd4
     4b6:	f20d 40e4 	addw	r0, sp, #1252	; 0x4e4
     4ba:	f004 fb3b 	bl	4b34 <uGUI::ButtonSetFont(uGUI::WINDOW*, unsigned char, uGUI::FONT const*)>
     4be:	200e      	movs	r0, #14
     4c0:	f004 fb72 	bl	4ba8 <operator new[](unsigned int)>
     4c4:	4603      	mov	r3, r0
     4c6:	4c77      	ldr	r4, [pc, #476]	; (6a4 <main+0x4d4>)
     4c8:	cc07      	ldmia	r4!, {r0, r1, r2}
     4ca:	6018      	str	r0, [r3, #0]
     4cc:	6059      	str	r1, [r3, #4]
     4ce:	609a      	str	r2, [r3, #8]
     4d0:	8822      	ldrh	r2, [r4, #0]
     4d2:	819a      	strh	r2, [r3, #12]
     4d4:	461a      	mov	r2, r3
     4d6:	a935      	add	r1, sp, #212	; 0xd4
     4d8:	f20d 40e4 	addw	r0, sp, #1252	; 0x4e4
     4dc:	f003 ffd8 	bl	4490 <uGUI::WindowSetTitleText(uGUI::WINDOW*, char*)>
     4e0:	4a71      	ldr	r2, [pc, #452]	; (6a8 <main+0x4d8>)
     4e2:	a935      	add	r1, sp, #212	; 0xd4
     4e4:	f20d 40e4 	addw	r0, sp, #1252	; 0x4e4
     4e8:	f003 ffc4 	bl	4474 <uGUI::WindowSetTitleColor(uGUI::WINDOW*, unsigned long)>
     4ec:	f06f 427f 	mvn.w	r2, #4278190080	; 0xff000000
     4f0:	a935      	add	r1, sp, #212	; 0xd4
     4f2:	f20d 40e4 	addw	r0, sp, #1252	; 0x4e4
     4f6:	f003 ffaf 	bl	4458 <uGUI::WindowSetTitleTextColor(uGUI::WINDOW*, unsigned long)>
     4fa:	4642      	mov	r2, r8
     4fc:	a935      	add	r1, sp, #212	; 0xd4
     4fe:	f20d 40e4 	addw	r0, sp, #1252	; 0x4e4
     502:	f003 ffd3 	bl	44ac <uGUI::WindowSetTitleTextFont(uGUI::WINDOW*, uGUI::FONT const*)>
     506:	2010      	movs	r0, #16
     508:	f004 fb4e 	bl	4ba8 <operator new[](unsigned int)>
     50c:	4604      	mov	r4, r0
     50e:	f8df c1b8 	ldr.w	ip, [pc, #440]	; 6c8 <main+0x4f8>
     512:	e8bc 000f 	ldmia.w	ip!, {r0, r1, r2, r3}
     516:	6020      	str	r0, [r4, #0]
     518:	6061      	str	r1, [r4, #4]
     51a:	60a2      	str	r2, [r4, #8]
     51c:	60e3      	str	r3, [r4, #12]
     51e:	9601      	str	r6, [sp, #4]
     520:	9600      	str	r6, [sp, #0]
     522:	2300      	movs	r3, #0
     524:	461a      	mov	r2, r3
     526:	a904      	add	r1, sp, #16
     528:	f20d 40e4 	addw	r0, sp, #1252	; 0x4e4
     52c:	f003 fece 	bl	42cc <uGUI::WindowResize(uGUI::WINDOW*, short, short, short, short)>
     530:	4b5e      	ldr	r3, [pc, #376]	; (6ac <main+0x4dc>)
     532:	9300      	str	r3, [sp, #0]
     534:	462b      	mov	r3, r5
     536:	aa46      	add	r2, sp, #280	; 0x118
     538:	a904      	add	r1, sp, #16
     53a:	f20d 40e4 	addw	r0, sp, #1252	; 0x4e4
     53e:	f003 fe73 	bl	4228 <uGUI::WindowCreate(uGUI::WINDOW*, uGUI::OBJECT*, unsigned char, void (*)(uGUI::MESSAGE*))>
     542:	4622      	mov	r2, r4
     544:	a904      	add	r1, sp, #16
     546:	f20d 40e4 	addw	r0, sp, #1252	; 0x4e4
     54a:	f003 ffa1 	bl	4490 <uGUI::WindowSetTitleText(uGUI::WINDOW*, char*)>
     54e:	f44f 027f 	mov.w	r2, #16711680	; 0xff0000
     552:	a904      	add	r1, sp, #16
     554:	f20d 40e4 	addw	r0, sp, #1252	; 0x4e4
     558:	f003 ff8c 	bl	4474 <uGUI::WindowSetTitleColor(uGUI::WINDOW*, unsigned long)>
     55c:	f06f 427f 	mvn.w	r2, #4278190080	; 0xff000000
     560:	a904      	add	r1, sp, #16
     562:	f20d 40e4 	addw	r0, sp, #1252	; 0x4e4
     566:	f003 ff77 	bl	4458 <uGUI::WindowSetTitleTextColor(uGUI::WINDOW*, unsigned long)>
     56a:	4632      	mov	r2, r6
     56c:	a904      	add	r1, sp, #16
     56e:	f20d 40e4 	addw	r0, sp, #1252	; 0x4e4
     572:	f003 ffb7 	bl	44e4 <uGUI::WindowSetTitleHeight(uGUI::WINDOW*, unsigned char)>
     576:	4642      	mov	r2, r8
     578:	a904      	add	r1, sp, #16
     57a:	f20d 40e4 	addw	r0, sp, #1252	; 0x4e4
     57e:	f003 ff95 	bl	44ac <uGUI::WindowSetTitleTextFont(uGUI::WINDOW*, uGUI::FONT const*)>
     582:	f20d 40e4 	addw	r0, sp, #1252	; 0x4e4
     586:	f004 f901 	bl	478c <uGUI::Update()>
     58a:	4949      	ldr	r1, [pc, #292]	; (6b0 <main+0x4e0>)
     58c:	f50d 60a6 	add.w	r0, sp, #1328	; 0x530
     590:	f000 fd30 	bl	ff4 <st7735s_drv::clearScreen(unsigned long)>
     594:	4b47      	ldr	r3, [pc, #284]	; (6b4 <main+0x4e4>)
     596:	9300      	str	r3, [sp, #0]
     598:	462b      	mov	r3, r5
     59a:	aa96      	add	r2, sp, #600	; 0x258
     59c:	a924      	add	r1, sp, #144	; 0x90
     59e:	f20d 40e4 	addw	r0, sp, #1252	; 0x4e4
     5a2:	f003 fe41 	bl	4228 <uGUI::WindowCreate(uGUI::WINDOW*, uGUI::OBJECT*, unsigned char, void (*)(uGUI::MESSAGE*))>
     5a6:	237e      	movs	r3, #126	; 0x7e
     5a8:	9301      	str	r3, [sp, #4]
     5aa:	2346      	movs	r3, #70	; 0x46
     5ac:	9300      	str	r3, [sp, #0]
     5ae:	236a      	movs	r3, #106	; 0x6a
     5b0:	463a      	mov	r2, r7
     5b2:	a924      	add	r1, sp, #144	; 0x90
     5b4:	f20d 40e4 	addw	r0, sp, #1252	; 0x4e4
     5b8:	f003 fe88 	bl	42cc <uGUI::WindowResize(uGUI::WINDOW*, short, short, short, short)>
     5bc:	4a3e      	ldr	r2, [pc, #248]	; (6b8 <main+0x4e8>)
     5be:	a924      	add	r1, sp, #144	; 0x90
     5c0:	f20d 40e4 	addw	r0, sp, #1252	; 0x4e4
     5c4:	f003 ff3a 	bl	443c <uGUI::WindowSetBackColor(uGUI::WINDOW*, unsigned long)>
     5c8:	a924      	add	r1, sp, #144	; 0x90
     5ca:	f20d 40e4 	addw	r0, sp, #1252	; 0x4e4
     5ce:	f003 fe6f 	bl	42b0 <uGUI::WindowShow(uGUI::WINDOW*)>
     5d2:	2200      	movs	r2, #0
     5d4:	a924      	add	r1, sp, #144	; 0x90
     5d6:	f20d 40e4 	addw	r0, sp, #1252	; 0x4e4
     5da:	f003 ff83 	bl	44e4 <uGUI::WindowSetTitleHeight(uGUI::WINDOW*, unsigned char)>
     5de:	f04f 0800 	mov.w	r8, #0
     5e2:	4647      	mov	r7, r8
     5e4:	e0a2      	b.n	72c <main+0x55c>
     5e6:	a904      	add	r1, sp, #16
     5e8:	f20d 40e4 	addw	r0, sp, #1252	; 0x4e4
     5ec:	f003 fe60 	bl	42b0 <uGUI::WindowShow(uGUI::WINDOW*)>
     5f0:	f20d 40e4 	addw	r0, sp, #1252	; 0x4e4
     5f4:	f004 f8ca 	bl	478c <uGUI::Update()>
     5f8:	f7ff fdcc 	bl	194 <setSpeed()>
     5fc:	a904      	add	r1, sp, #16
     5fe:	f20d 40e4 	addw	r0, sp, #1252	; 0x4e4
     602:	f004 f98b 	bl	491c <uGUI::WindowHide(uGUI::WINDOW*)>
     606:	f20d 40e4 	addw	r0, sp, #1252	; 0x4e4
     60a:	f004 f8bf 	bl	478c <uGUI::Update()>
     60e:	2064      	movs	r0, #100	; 0x64
     610:	f002 fb4a 	bl	2ca8 <task::sleep(unsigned long)>
     614:	e097      	b.n	746 <main+0x576>
     616:	f5b5 7fc8 	cmp.w	r5, #400	; 0x190
     61a:	da03      	bge.n	624 <main+0x454>
     61c:	4b27      	ldr	r3, [pc, #156]	; (6bc <main+0x4ec>)
     61e:	681c      	ldr	r4, [r3, #0]
     620:	4264      	negs	r4, r4
     622:	e0a2      	b.n	76a <main+0x59a>
     624:	2400      	movs	r4, #0
     626:	e0a0      	b.n	76a <main+0x59a>
     628:	f44f 437f 	mov.w	r3, #65280	; 0xff00
     62c:	2201      	movs	r2, #1
     62e:	a935      	add	r1, sp, #212	; 0xd4
     630:	f20d 40e4 	addw	r0, sp, #1252	; 0x4e4
     634:	f004 fa3e 	bl	4ab4 <uGUI::ButtonSetBackColor(uGUI::WINDOW*, unsigned char, unsigned long)>
     638:	f06f 437f 	mvn.w	r3, #4278190080	; 0xff000000
     63c:	2200      	movs	r2, #0
     63e:	a935      	add	r1, sp, #212	; 0xd4
     640:	f20d 40e4 	addw	r0, sp, #1252	; 0x4e4
     644:	f004 fa36 	bl	4ab4 <uGUI::ButtonSetBackColor(uGUI::WINDOW*, unsigned char, unsigned long)>
     648:	2064      	movs	r0, #100	; 0x64
     64a:	f002 fb2d 	bl	2ca8 <task::sleep(unsigned long)>
     64e:	f04f 0800 	mov.w	r8, #0
     652:	e093      	b.n	77c <main+0x5ac>
     654:	f5b0 7f16 	cmp.w	r0, #600	; 0x258
     658:	dd1a      	ble.n	690 <main+0x4c0>
     65a:	4b19      	ldr	r3, [pc, #100]	; (6c0 <main+0x4f0>)
     65c:	681e      	ldr	r6, [r3, #0]
     65e:	4276      	negs	r6, r6
     660:	2f00      	cmp	r7, #0
     662:	f000 808b 	beq.w	77c <main+0x5ac>
     666:	f44f 437f 	mov.w	r3, #65280	; 0xff00
     66a:	2200      	movs	r2, #0
     66c:	a935      	add	r1, sp, #212	; 0xd4
     66e:	f20d 40e4 	addw	r0, sp, #1252	; 0x4e4
     672:	f004 fa1f 	bl	4ab4 <uGUI::ButtonSetBackColor(uGUI::WINDOW*, unsigned char, unsigned long)>
     676:	f06f 437f 	mvn.w	r3, #4278190080	; 0xff000000
     67a:	2201      	movs	r2, #1
     67c:	a935      	add	r1, sp, #212	; 0xd4
     67e:	f20d 40e4 	addw	r0, sp, #1252	; 0x4e4
     682:	f004 fa17 	bl	4ab4 <uGUI::ButtonSetBackColor(uGUI::WINDOW*, unsigned char, unsigned long)>
     686:	2064      	movs	r0, #100	; 0x64
     688:	f002 fb0e 	bl	2ca8 <task::sleep(unsigned long)>
     68c:	46b8      	mov	r8, r7
     68e:	e075      	b.n	77c <main+0x5ac>
     690:	2600      	movs	r6, #0
     692:	e073      	b.n	77c <main+0x5ac>
     694:	00000175 	.word	0x00000175
     698:	00ffff00 	.word	0x00ffff00
     69c:	00006a88 	.word	0x00006a88
     6a0:	00006a98 	.word	0x00006a98
     6a4:	00006aa0 	.word	0x00006aa0
     6a8:	00bc8f8f 	.word	0x00bc8f8f
     6ac:	00000171 	.word	0x00000171
     6b0:	004682b4 	.word	0x004682b4
     6b4:	00000185 	.word	0x00000185
     6b8:	00d2691e 	.word	0x00d2691e
     6bc:	20000008 	.word	0x20000008
     6c0:	20000004 	.word	0x20000004
     6c4:	0000ef58 	.word	0x0000ef58
     6c8:	00006ab0 	.word	0x00006ab0
     6cc:	3b01      	subs	r3, #1
     6ce:	2b00      	cmp	r3, #0
     6d0:	dcfc      	bgt.n	6cc <main+0x4fc>
     6d2:	4842      	ldr	r0, [pc, #264]	; (7dc <main+0x60c>)
     6d4:	6803      	ldr	r3, [r0, #0]
     6d6:	685b      	ldr	r3, [r3, #4]
     6d8:	f240 5101 	movw	r1, #1281	; 0x501
     6dc:	4798      	blx	r3
     6de:	b960      	cbnz	r0, 6fa <main+0x52a>
     6e0:	483e      	ldr	r0, [pc, #248]	; (7dc <main+0x60c>)
     6e2:	6803      	ldr	r3, [r0, #0]
     6e4:	689b      	ldr	r3, [r3, #8]
     6e6:	2201      	movs	r2, #1
     6e8:	f44f 7180 	mov.w	r1, #256	; 0x100
     6ec:	4798      	blx	r3
     6ee:	a935      	add	r1, sp, #212	; 0xd4
     6f0:	f20d 40e4 	addw	r0, sp, #1252	; 0x4e4
     6f4:	f003 fddc 	bl	42b0 <uGUI::WindowShow(uGUI::WINDOW*)>
     6f8:	2701      	movs	r7, #1
     6fa:	4838      	ldr	r0, [pc, #224]	; (7dc <main+0x60c>)
     6fc:	6803      	ldr	r3, [r0, #0]
     6fe:	685b      	ldr	r3, [r3, #4]
     700:	f240 3105 	movw	r1, #773	; 0x305
     704:	4798      	blx	r3
     706:	4604      	mov	r4, r0
     708:	b960      	cbnz	r0, 724 <main+0x554>
     70a:	4834      	ldr	r0, [pc, #208]	; (7dc <main+0x60c>)
     70c:	6803      	ldr	r3, [r0, #0]
     70e:	689b      	ldr	r3, [r3, #8]
     710:	2200      	movs	r2, #0
     712:	f44f 7180 	mov.w	r1, #256	; 0x100
     716:	4798      	blx	r3
     718:	a935      	add	r1, sp, #212	; 0xd4
     71a:	f20d 40e4 	addw	r0, sp, #1252	; 0x4e4
     71e:	f004 f8fd 	bl	491c <uGUI::WindowHide(uGUI::WINDOW*)>
     722:	4627      	mov	r7, r4
     724:	f20d 40e4 	addw	r0, sp, #1252	; 0x4e4
     728:	f004 f830 	bl	478c <uGUI::Update()>
     72c:	f1b8 0f00 	cmp.w	r8, #0
     730:	d009      	beq.n	746 <main+0x576>
     732:	b147      	cbz	r7, 746 <main+0x576>
     734:	4829      	ldr	r0, [pc, #164]	; (7dc <main+0x60c>)
     736:	6803      	ldr	r3, [r0, #0]
     738:	685b      	ldr	r3, [r3, #4]
     73a:	f240 5101 	movw	r1, #1281	; 0x501
     73e:	4798      	blx	r3
     740:	2800      	cmp	r0, #0
     742:	f43f af50 	beq.w	5e6 <main+0x416>
     746:	4c26      	ldr	r4, [pc, #152]	; (7e0 <main+0x610>)
     748:	6823      	ldr	r3, [r4, #0]
     74a:	689b      	ldr	r3, [r3, #8]
     74c:	210f      	movs	r1, #15
     74e:	4620      	mov	r0, r4
     750:	4798      	blx	r3
     752:	4605      	mov	r5, r0
     754:	6823      	ldr	r3, [r4, #0]
     756:	689b      	ldr	r3, [r3, #8]
     758:	2109      	movs	r1, #9
     75a:	4620      	mov	r0, r4
     75c:	4798      	blx	r3
     75e:	f5b5 7f16 	cmp.w	r5, #600	; 0x258
     762:	f77f af58 	ble.w	616 <main+0x446>
     766:	4b1f      	ldr	r3, [pc, #124]	; (7e4 <main+0x614>)
     768:	681c      	ldr	r4, [r3, #0]
     76a:	f5b0 7fc8 	cmp.w	r0, #400	; 0x190
     76e:	f6bf af71 	bge.w	654 <main+0x484>
     772:	4b1d      	ldr	r3, [pc, #116]	; (7e8 <main+0x618>)
     774:	681e      	ldr	r6, [r3, #0]
     776:	2f00      	cmp	r7, #0
     778:	f47f af56 	bne.w	628 <main+0x458>
     77c:	a924      	add	r1, sp, #144	; 0x90
     77e:	f20d 40e4 	addw	r0, sp, #1252	; 0x4e4
     782:	f003 febf 	bl	4504 <uGUI::WindowGetXStart(uGUI::WINDOW*)>
     786:	b2a4      	uxth	r4, r4
     788:	fa14 f580 	uxtah	r5, r4, r0
     78c:	b2ad      	uxth	r5, r5
     78e:	a924      	add	r1, sp, #144	; 0x90
     790:	f20d 40e4 	addw	r0, sp, #1252	; 0x4e4
     794:	f003 fec0 	bl	4518 <uGUI::WindowGetYStart(uGUI::WINDOW*)>
     798:	fa1f f986 	uxth.w	r9, r6
     79c:	fa19 f680 	uxtah	r6, r9, r0
     7a0:	b2b6      	uxth	r6, r6
     7a2:	a924      	add	r1, sp, #144	; 0x90
     7a4:	f20d 40e4 	addw	r0, sp, #1252	; 0x4e4
     7a8:	f003 fec0 	bl	452c <uGUI::WindowGetXEnd(uGUI::WINDOW*)>
     7ac:	fa14 f480 	uxtah	r4, r4, r0
     7b0:	b2a4      	uxth	r4, r4
     7b2:	a924      	add	r1, sp, #144	; 0x90
     7b4:	f20d 40e4 	addw	r0, sp, #1252	; 0x4e4
     7b8:	f003 fec2 	bl	4540 <uGUI::WindowGetYEnd(uGUI::WINDOW*)>
     7bc:	fa19 f380 	uxtah	r3, r9, r0
     7c0:	b21b      	sxth	r3, r3
     7c2:	9301      	str	r3, [sp, #4]
     7c4:	b224      	sxth	r4, r4
     7c6:	9400      	str	r4, [sp, #0]
     7c8:	b233      	sxth	r3, r6
     7ca:	b22a      	sxth	r2, r5
     7cc:	a924      	add	r1, sp, #144	; 0x90
     7ce:	f20d 40e4 	addw	r0, sp, #1252	; 0x4e4
     7d2:	f003 fd7b 	bl	42cc <uGUI::WindowResize(uGUI::WINDOW*, short, short, short, short)>
     7d6:	4b05      	ldr	r3, [pc, #20]	; (7ec <main+0x61c>)
     7d8:	e779      	b.n	6ce <main+0x4fe>
     7da:	bf00      	nop
     7dc:	2000016c 	.word	0x2000016c
     7e0:	200005d8 	.word	0x200005d8
     7e4:	20000008 	.word	0x20000008
     7e8:	20000004 	.word	0x20000004
     7ec:	000186a0 	.word	0x000186a0

000007f0 <yahal_assert_func()>:
     7f0:	e7fe      	b.n	7f0 <yahal_assert_func()>

000007f2 <pixel_stream_const::getColorType()>:
     7f2:	6840      	ldr	r0, [r0, #4]
     7f4:	f000 407f 	and.w	r0, r0, #4278190080	; 0xff000000
     7f8:	4770      	bx	lr

000007fa <pixel_stream_const::getNext()>:
     7fa:	6840      	ldr	r0, [r0, #4]
     7fc:	4770      	bx	lr

000007fe <pixel_stream_const::reset()>:
     7fe:	4770      	bx	lr

00000800 <st7735s_drv::~st7735s_drv()>:
     800:	4a02      	ldr	r2, [pc, #8]	; (80c <st7735s_drv::~st7735s_drv()+0xc>)
     802:	6002      	str	r2, [r0, #0]
     804:	4a02      	ldr	r2, [pc, #8]	; (810 <st7735s_drv::~st7735s_drv()+0x10>)
     806:	6002      	str	r2, [r0, #0]
     808:	4770      	bx	lr
     80a:	bf00      	nop
     80c:	0000eb58 	.word	0x0000eb58
     810:	0000eb2c 	.word	0x0000eb2c

00000814 <st7735s_drv::getSizeX()>:
     814:	f890 3114 	ldrb.w	r3, [r0, #276]	; 0x114
     818:	2b01      	cmp	r3, #1
     81a:	d903      	bls.n	824 <st7735s_drv::getSizeX()+0x10>
     81c:	f8d0 3110 	ldr.w	r3, [r0, #272]	; 0x110
     820:	8858      	ldrh	r0, [r3, #2]
     822:	4770      	bx	lr
     824:	f8d0 3110 	ldr.w	r3, [r0, #272]	; 0x110
     828:	8818      	ldrh	r0, [r3, #0]
     82a:	4770      	bx	lr

0000082c <st7735s_drv::getSizeY()>:
     82c:	f890 3114 	ldrb.w	r3, [r0, #276]	; 0x114
     830:	2b01      	cmp	r3, #1
     832:	d903      	bls.n	83c <st7735s_drv::getSizeY()+0x10>
     834:	f8d0 3110 	ldr.w	r3, [r0, #272]	; 0x110
     838:	8818      	ldrh	r0, [r3, #0]
     83a:	4770      	bx	lr
     83c:	f8d0 3110 	ldr.w	r3, [r0, #272]	; 0x110
     840:	8858      	ldrh	r0, [r3, #2]
     842:	4770      	bx	lr

00000844 <pixel_stream_const::~pixel_stream_const()>:
     844:	4b01      	ldr	r3, [pc, #4]	; (84c <pixel_stream_const::~pixel_stream_const()+0x8>)
     846:	6003      	str	r3, [r0, #0]
     848:	4770      	bx	lr
     84a:	bf00      	nop
     84c:	0000eb84 	.word	0x0000eb84

00000850 <__static_initialization_and_destruction_0(int, int)>:
     850:	2801      	cmp	r0, #1
     852:	d000      	beq.n	856 <__static_initialization_and_destruction_0(int, int)+0x6>
     854:	4770      	bx	lr
     856:	f64f 73ff 	movw	r3, #65535	; 0xffff
     85a:	4299      	cmp	r1, r3
     85c:	d1fa      	bne.n	854 <__static_initialization_and_destruction_0(int, int)+0x4>
     85e:	4b06      	ldr	r3, [pc, #24]	; (878 <__static_initialization_and_destruction_0(int, int)+0x28>)
     860:	2280      	movs	r2, #128	; 0x80
     862:	801a      	strh	r2, [r3, #0]
     864:	805a      	strh	r2, [r3, #2]
     866:	2284      	movs	r2, #132	; 0x84
     868:	809a      	strh	r2, [r3, #4]
     86a:	80da      	strh	r2, [r3, #6]
     86c:	2202      	movs	r2, #2
     86e:	721a      	strb	r2, [r3, #8]
     870:	2201      	movs	r2, #1
     872:	725a      	strb	r2, [r3, #9]
     874:	729a      	strb	r2, [r3, #10]
     876:	e7ed      	b.n	854 <__static_initialization_and_destruction_0(int, int)+0x4>
     878:	20000588 	.word	0x20000588

0000087c <pixel_stream_const::~pixel_stream_const()>:
     87c:	b510      	push	{r4, lr}
     87e:	4604      	mov	r4, r0
     880:	4b03      	ldr	r3, [pc, #12]	; (890 <pixel_stream_const::~pixel_stream_const()+0x14>)
     882:	6003      	str	r3, [r0, #0]
     884:	2108      	movs	r1, #8
     886:	f004 f97a 	bl	4b7e <operator delete(void*, unsigned int)>
     88a:	4620      	mov	r0, r4
     88c:	bd10      	pop	{r4, pc}
     88e:	bf00      	nop
     890:	0000eb84 	.word	0x0000eb84

00000894 <st7735s_drv::~st7735s_drv()>:
     894:	b510      	push	{r4, lr}
     896:	4604      	mov	r4, r0
     898:	f7ff ffb2 	bl	800 <st7735s_drv::~st7735s_drv()>
     89c:	f44f 718e 	mov.w	r1, #284	; 0x11c
     8a0:	4620      	mov	r0, r4
     8a2:	f004 f96c 	bl	4b7e <operator delete(void*, unsigned int)>
     8a6:	4620      	mov	r0, r4
     8a8:	bd10      	pop	{r4, pc}
	...

000008ac <lcd_interface::convertColor(unsigned long, unsigned long)>:
     8ac:	b508      	push	{r3, lr}
     8ae:	f001 437f 	and.w	r3, r1, #4278190080	; 0xff000000
     8b2:	4293      	cmp	r3, r2
     8b4:	d018      	beq.n	8e8 <lcd_interface::convertColor(unsigned long, unsigned long)+0x3c>
     8b6:	b97b      	cbnz	r3, 8d8 <lcd_interface::convertColor(unsigned long, unsigned long)+0x2c>
     8b8:	f1b2 7f80 	cmp.w	r2, #16777216	; 0x1000000
     8bc:	d10c      	bne.n	8d8 <lcd_interface::convertColor(unsigned long, unsigned long)+0x2c>
     8be:	0a0b      	lsrs	r3, r1, #8
     8c0:	f403 4378 	and.w	r3, r3, #63488	; 0xf800
     8c4:	094a      	lsrs	r2, r1, #5
     8c6:	f402 62fc 	and.w	r2, r2, #2016	; 0x7e0
     8ca:	4313      	orrs	r3, r2
     8cc:	f3c1 01c4 	ubfx	r1, r1, #3, #5
     8d0:	430b      	orrs	r3, r1
     8d2:	f043 7080 	orr.w	r0, r3, #16777216	; 0x1000000
     8d6:	bd08      	pop	{r3, pc}
     8d8:	4b04      	ldr	r3, [pc, #16]	; (8ec <lcd_interface::convertColor(unsigned long, unsigned long)+0x40>)
     8da:	4a05      	ldr	r2, [pc, #20]	; (8f0 <lcd_interface::convertColor(unsigned long, unsigned long)+0x44>)
     8dc:	601a      	str	r2, [r3, #0]
     8de:	4b05      	ldr	r3, [pc, #20]	; (8f4 <lcd_interface::convertColor(unsigned long, unsigned long)+0x48>)
     8e0:	2254      	movs	r2, #84	; 0x54
     8e2:	601a      	str	r2, [r3, #0]
     8e4:	f7ff ff84 	bl	7f0 <yahal_assert_func()>
     8e8:	4608      	mov	r0, r1
     8ea:	e7f4      	b.n	8d6 <lcd_interface::convertColor(unsigned long, unsigned long)+0x2a>
     8ec:	200000b0 	.word	0x200000b0
     8f0:	0000eac0 	.word	0x0000eac0
     8f4:	200000cc 	.word	0x200000cc

000008f8 <st7735s_drv::fillArea(unsigned short, unsigned short, unsigned short, unsigned short, unsigned long)>:
     8f8:	e92d 43f0 	stmdb	sp!, {r4, r5, r6, r7, r8, r9, lr}
     8fc:	b085      	sub	sp, #20
     8fe:	4604      	mov	r4, r0
     900:	460d      	mov	r5, r1
     902:	4616      	mov	r6, r2
     904:	461f      	mov	r7, r3
     906:	f04f 7280 	mov.w	r2, #16777216	; 0x1000000
     90a:	990d      	ldr	r1, [sp, #52]	; 0x34
     90c:	f7ff ffce 	bl	8ac <lcd_interface::convertColor(unsigned long, unsigned long)>
     910:	4b0c      	ldr	r3, [pc, #48]	; (944 <st7735s_drv::fillArea(unsigned short, unsigned short, unsigned short, unsigned short, unsigned long)+0x4c>)
     912:	9302      	str	r3, [sp, #8]
     914:	f8df 8030 	ldr.w	r8, [pc, #48]	; 948 <st7735s_drv::fillArea(unsigned short, unsigned short, unsigned short, unsigned short, unsigned long)+0x50>
     918:	f8cd 8008 	str.w	r8, [sp, #8]
     91c:	9003      	str	r0, [sp, #12]
     91e:	6823      	ldr	r3, [r4, #0]
     920:	aa02      	add	r2, sp, #8
     922:	9201      	str	r2, [sp, #4]
     924:	f8bd 2030 	ldrh.w	r2, [sp, #48]	; 0x30
     928:	9200      	str	r2, [sp, #0]
     92a:	f8d3 9014 	ldr.w	r9, [r3, #20]
     92e:	463b      	mov	r3, r7
     930:	4632      	mov	r2, r6
     932:	4629      	mov	r1, r5
     934:	4620      	mov	r0, r4
     936:	47c8      	blx	r9
     938:	f8cd 8008 	str.w	r8, [sp, #8]
     93c:	b005      	add	sp, #20
     93e:	e8bd 83f0 	ldmia.w	sp!, {r4, r5, r6, r7, r8, r9, pc}
     942:	bf00      	nop
     944:	0000eb18 	.word	0x0000eb18
     948:	0000eb84 	.word	0x0000eb84

0000094c <st7735s_drv::change(unsigned short&, unsigned short&)>:
     94c:	b510      	push	{r4, lr}
     94e:	f890 3114 	ldrb.w	r3, [r0, #276]	; 0x114
     952:	2b03      	cmp	r3, #3
     954:	d815      	bhi.n	982 <st7735s_drv::change(unsigned short&, unsigned short&)+0x36>
     956:	e8df f003 	tbb	[pc, r3]
     95a:	2702      	.short	0x2702
     95c:	412e      	.short	0x412e
     95e:	f8b2 e000 	ldrh.w	lr, [r2]
     962:	f8d0 4110 	ldr.w	r4, [r0, #272]	; 0x110
     966:	8863      	ldrh	r3, [r4, #2]
     968:	7a64      	ldrb	r4, [r4, #9]
     96a:	4423      	add	r3, r4
     96c:	b29b      	uxth	r3, r3
     96e:	f990 c115 	ldrsb.w	ip, [r0, #277]	; 0x115
     972:	fa1f fc8c 	uxth.w	ip, ip
     976:	eba3 030c 	sub.w	r3, r3, ip
     97a:	fa1e f383 	uxtah	r3, lr, r3
     97e:	3b01      	subs	r3, #1
     980:	8013      	strh	r3, [r2, #0]
     982:	8813      	ldrh	r3, [r2, #0]
     984:	f8d0 4110 	ldr.w	r4, [r0, #272]	; 0x110
     988:	f8b4 c002 	ldrh.w	ip, [r4, #2]
     98c:	4563      	cmp	r3, ip
     98e:	d302      	bcc.n	996 <st7735s_drv::change(unsigned short&, unsigned short&)+0x4a>
     990:	eba3 030c 	sub.w	r3, r3, ip
     994:	8013      	strh	r3, [r2, #0]
     996:	880b      	ldrh	r3, [r1, #0]
     998:	f8d0 2110 	ldr.w	r2, [r0, #272]	; 0x110
     99c:	8852      	ldrh	r2, [r2, #2]
     99e:	4293      	cmp	r3, r2
     9a0:	d301      	bcc.n	9a6 <st7735s_drv::change(unsigned short&, unsigned short&)+0x5a>
     9a2:	1a9b      	subs	r3, r3, r2
     9a4:	800b      	strh	r3, [r1, #0]
     9a6:	bd10      	pop	{r4, pc}
     9a8:	8814      	ldrh	r4, [r2, #0]
     9aa:	f990 3115 	ldrsb.w	r3, [r0, #277]	; 0x115
     9ae:	fa14 f383 	uxtah	r3, r4, r3
     9b2:	8013      	strh	r3, [r2, #0]
     9b4:	e7e5      	b.n	982 <st7735s_drv::change(unsigned short&, unsigned short&)+0x36>
     9b6:	f8b1 e000 	ldrh.w	lr, [r1]
     9ba:	f8d0 4110 	ldr.w	r4, [r0, #272]	; 0x110
     9be:	8863      	ldrh	r3, [r4, #2]
     9c0:	7a64      	ldrb	r4, [r4, #9]
     9c2:	4423      	add	r3, r4
     9c4:	b29b      	uxth	r3, r3
     9c6:	f990 c115 	ldrsb.w	ip, [r0, #277]	; 0x115
     9ca:	fa1f fc8c 	uxth.w	ip, ip
     9ce:	eba3 030c 	sub.w	r3, r3, ip
     9d2:	fa1e f383 	uxtah	r3, lr, r3
     9d6:	3b01      	subs	r3, #1
     9d8:	800b      	strh	r3, [r1, #0]
     9da:	e7d2      	b.n	982 <st7735s_drv::change(unsigned short&, unsigned short&)+0x36>
     9dc:	880c      	ldrh	r4, [r1, #0]
     9de:	f990 3115 	ldrsb.w	r3, [r0, #277]	; 0x115
     9e2:	fa14 f383 	uxtah	r3, r4, r3
     9e6:	800b      	strh	r3, [r1, #0]
     9e8:	e7cb      	b.n	982 <st7735s_drv::change(unsigned short&, unsigned short&)+0x36>

000009ea <st7735s_drv::writeData(unsigned char)>:
     9ea:	b500      	push	{lr}
     9ec:	b083      	sub	sp, #12
     9ee:	f88d 1007 	strb.w	r1, [sp, #7]
     9f2:	f8d0 0104 	ldr.w	r0, [r0, #260]	; 0x104
     9f6:	6803      	ldr	r3, [r0, #0]
     9f8:	685b      	ldr	r3, [r3, #4]
     9fa:	2201      	movs	r2, #1
     9fc:	f10d 0107 	add.w	r1, sp, #7
     a00:	4798      	blx	r3
     a02:	b003      	add	sp, #12
     a04:	f85d fb04 	ldr.w	pc, [sp], #4

00000a08 <st7735s_drv::writeDataBuffer(int)>:
     a08:	b510      	push	{r4, lr}
     a0a:	4603      	mov	r3, r0
     a0c:	f8d0 0104 	ldr.w	r0, [r0, #260]	; 0x104
     a10:	6802      	ldr	r2, [r0, #0]
     a12:	6854      	ldr	r4, [r2, #4]
     a14:	b28a      	uxth	r2, r1
     a16:	1d19      	adds	r1, r3, #4
     a18:	47a0      	blx	r4
     a1a:	bd10      	pop	{r4, pc}

00000a1c <st7735s_drv::writeCommand(unsigned char)>:
     a1c:	b530      	push	{r4, r5, lr}
     a1e:	b085      	sub	sp, #20
     a20:	4604      	mov	r4, r0
     a22:	f88d 1007 	strb.w	r1, [sp, #7]
     a26:	f8d0 310c 	ldr.w	r3, [r0, #268]	; 0x10c
     a2a:	6818      	ldr	r0, [r3, #0]
     a2c:	6802      	ldr	r2, [r0, #0]
     a2e:	6895      	ldr	r5, [r2, #8]
     a30:	2200      	movs	r2, #0
     a32:	8899      	ldrh	r1, [r3, #4]
     a34:	47a8      	blx	r5
     a36:	f8d4 0104 	ldr.w	r0, [r4, #260]	; 0x104
     a3a:	6803      	ldr	r3, [r0, #0]
     a3c:	681d      	ldr	r5, [r3, #0]
     a3e:	2301      	movs	r3, #1
     a40:	f10d 020f 	add.w	r2, sp, #15
     a44:	f10d 0107 	add.w	r1, sp, #7
     a48:	47a8      	blx	r5
     a4a:	f8d4 310c 	ldr.w	r3, [r4, #268]	; 0x10c
     a4e:	6818      	ldr	r0, [r3, #0]
     a50:	6802      	ldr	r2, [r0, #0]
     a52:	6894      	ldr	r4, [r2, #8]
     a54:	2201      	movs	r2, #1
     a56:	8899      	ldrh	r1, [r3, #4]
     a58:	47a0      	blx	r4
     a5a:	b005      	add	sp, #20
     a5c:	bd30      	pop	{r4, r5, pc}

00000a5e <st7735s_drv::setOrientation(st7735s_drv::Orientation)>:
     a5e:	b570      	push	{r4, r5, r6, lr}
     a60:	4604      	mov	r4, r0
     a62:	460d      	mov	r5, r1
     a64:	f880 1114 	strb.w	r1, [r0, #276]	; 0x114
     a68:	f8d0 3110 	ldr.w	r3, [r0, #272]	; 0x110
     a6c:	7a99      	ldrb	r1, [r3, #10]
     a6e:	00c9      	lsls	r1, r1, #3
     a70:	f001 0608 	and.w	r6, r1, #8
     a74:	f8d0 0118 	ldr.w	r0, [r0, #280]	; 0x118
     a78:	b110      	cbz	r0, a80 <st7735s_drv::setOrientation(st7735s_drv::Orientation)+0x22>
     a7a:	6803      	ldr	r3, [r0, #0]
     a7c:	681b      	ldr	r3, [r3, #0]
     a7e:	4798      	blx	r3
     a80:	2136      	movs	r1, #54	; 0x36
     a82:	4620      	mov	r0, r4
     a84:	f7ff ffca 	bl	a1c <st7735s_drv::writeCommand(unsigned char)>
     a88:	2d03      	cmp	r5, #3
     a8a:	d808      	bhi.n	a9e <st7735s_drv::setOrientation(st7735s_drv::Orientation)+0x40>
     a8c:	e8df f005 	tbb	[pc, r5]
     a90:	19130e02 	.word	0x19130e02
     a94:	f046 01c0 	orr.w	r1, r6, #192	; 0xc0
     a98:	4620      	mov	r0, r4
     a9a:	f7ff ffa6 	bl	9ea <st7735s_drv::writeData(unsigned char)>
     a9e:	f8d4 0118 	ldr.w	r0, [r4, #280]	; 0x118
     aa2:	b110      	cbz	r0, aaa <st7735s_drv::setOrientation(st7735s_drv::Orientation)+0x4c>
     aa4:	6803      	ldr	r3, [r0, #0]
     aa6:	685b      	ldr	r3, [r3, #4]
     aa8:	4798      	blx	r3
     aaa:	bd70      	pop	{r4, r5, r6, pc}
     aac:	4631      	mov	r1, r6
     aae:	4620      	mov	r0, r4
     ab0:	f7ff ff9b 	bl	9ea <st7735s_drv::writeData(unsigned char)>
     ab4:	e7f3      	b.n	a9e <st7735s_drv::setOrientation(st7735s_drv::Orientation)+0x40>
     ab6:	f046 01a0 	orr.w	r1, r6, #160	; 0xa0
     aba:	4620      	mov	r0, r4
     abc:	f7ff ff95 	bl	9ea <st7735s_drv::writeData(unsigned char)>
     ac0:	e7ed      	b.n	a9e <st7735s_drv::setOrientation(st7735s_drv::Orientation)+0x40>
     ac2:	f046 0160 	orr.w	r1, r6, #96	; 0x60
     ac6:	4620      	mov	r0, r4
     ac8:	f7ff ff8f 	bl	9ea <st7735s_drv::writeData(unsigned char)>
     acc:	e7e7      	b.n	a9e <st7735s_drv::setOrientation(st7735s_drv::Orientation)+0x40>

00000ace <st7735s_drv::scroll(short)>:
     ace:	b510      	push	{r4, lr}
     ad0:	4604      	mov	r4, r0
     ad2:	f890 3115 	ldrb.w	r3, [r0, #277]	; 0x115
     ad6:	4419      	add	r1, r3
     ad8:	b2cb      	uxtb	r3, r1
     ada:	b249      	sxtb	r1, r1
     adc:	f880 1115 	strb.w	r1, [r0, #277]	; 0x115
     ae0:	2900      	cmp	r1, #0
     ae2:	db08      	blt.n	af6 <st7735s_drv::scroll(short)+0x28>
     ae4:	f8d0 2110 	ldr.w	r2, [r0, #272]	; 0x110
     ae8:	8852      	ldrh	r2, [r2, #2]
     aea:	4291      	cmp	r1, r2
     aec:	db09      	blt.n	b02 <st7735s_drv::scroll(short)+0x34>
     aee:	1a9b      	subs	r3, r3, r2
     af0:	f880 3115 	strb.w	r3, [r0, #277]	; 0x115
     af4:	e005      	b.n	b02 <st7735s_drv::scroll(short)+0x34>
     af6:	f8d0 2110 	ldr.w	r2, [r0, #272]	; 0x110
     afa:	8852      	ldrh	r2, [r2, #2]
     afc:	4413      	add	r3, r2
     afe:	f880 3115 	strb.w	r3, [r0, #277]	; 0x115
     b02:	f8d4 0118 	ldr.w	r0, [r4, #280]	; 0x118
     b06:	b110      	cbz	r0, b0e <st7735s_drv::scroll(short)+0x40>
     b08:	6803      	ldr	r3, [r0, #0]
     b0a:	681b      	ldr	r3, [r3, #0]
     b0c:	4798      	blx	r3
     b0e:	2137      	movs	r1, #55	; 0x37
     b10:	4620      	mov	r0, r4
     b12:	f7ff ff83 	bl	a1c <st7735s_drv::writeCommand(unsigned char)>
     b16:	2100      	movs	r1, #0
     b18:	4620      	mov	r0, r4
     b1a:	f7ff ff66 	bl	9ea <st7735s_drv::writeData(unsigned char)>
     b1e:	f8d4 3110 	ldr.w	r3, [r4, #272]	; 0x110
     b22:	7a59      	ldrb	r1, [r3, #9]
     b24:	f894 3115 	ldrb.w	r3, [r4, #277]	; 0x115
     b28:	4419      	add	r1, r3
     b2a:	b2c9      	uxtb	r1, r1
     b2c:	4620      	mov	r0, r4
     b2e:	f7ff ff5c 	bl	9ea <st7735s_drv::writeData(unsigned char)>
     b32:	f8d4 0118 	ldr.w	r0, [r4, #280]	; 0x118
     b36:	b110      	cbz	r0, b3e <st7735s_drv::scroll(short)+0x70>
     b38:	6803      	ldr	r3, [r0, #0]
     b3a:	685b      	ldr	r3, [r3, #4]
     b3c:	4798      	blx	r3
     b3e:	bd10      	pop	{r4, pc}

00000b40 <st7735s_drv::st7735s_drv(spi_interface&, gpio_pin&, gpio_pin&, st7735s_drv::config&, mutex_interface*)>:
     b40:	b538      	push	{r3, r4, r5, lr}
     b42:	4604      	mov	r4, r0
     b44:	4615      	mov	r5, r2
     b46:	4a43      	ldr	r2, [pc, #268]	; (c54 <st7735s_drv::st7735s_drv(spi_interface&, gpio_pin&, gpio_pin&, st7735s_drv::config&, mutex_interface*)+0x114>)
     b48:	6002      	str	r2, [r0, #0]
     b4a:	4a43      	ldr	r2, [pc, #268]	; (c58 <st7735s_drv::st7735s_drv(spi_interface&, gpio_pin&, gpio_pin&, st7735s_drv::config&, mutex_interface*)+0x118>)
     b4c:	6002      	str	r2, [r0, #0]
     b4e:	f8c0 1104 	str.w	r1, [r0, #260]	; 0x104
     b52:	f8c0 5108 	str.w	r5, [r0, #264]	; 0x108
     b56:	f8c0 310c 	str.w	r3, [r0, #268]	; 0x10c
     b5a:	9b04      	ldr	r3, [sp, #16]
     b5c:	f8c0 3110 	str.w	r3, [r0, #272]	; 0x110
     b60:	9b05      	ldr	r3, [sp, #20]
     b62:	f8c0 3118 	str.w	r3, [r0, #280]	; 0x118
     b66:	6828      	ldr	r0, [r5, #0]
     b68:	6803      	ldr	r3, [r0, #0]
     b6a:	681b      	ldr	r3, [r3, #0]
     b6c:	f44f 7281 	mov.w	r2, #258	; 0x102
     b70:	88a9      	ldrh	r1, [r5, #4]
     b72:	4798      	blx	r3
     b74:	f8d4 310c 	ldr.w	r3, [r4, #268]	; 0x10c
     b78:	6818      	ldr	r0, [r3, #0]
     b7a:	6802      	ldr	r2, [r0, #0]
     b7c:	6815      	ldr	r5, [r2, #0]
     b7e:	f44f 7281 	mov.w	r2, #258	; 0x102
     b82:	8899      	ldrh	r1, [r3, #4]
     b84:	47a8      	blx	r5
     b86:	f8d4 3108 	ldr.w	r3, [r4, #264]	; 0x108
     b8a:	6818      	ldr	r0, [r3, #0]
     b8c:	6802      	ldr	r2, [r0, #0]
     b8e:	6895      	ldr	r5, [r2, #8]
     b90:	2200      	movs	r2, #0
     b92:	8899      	ldrh	r1, [r3, #4]
     b94:	47a8      	blx	r5
     b96:	200a      	movs	r0, #10
     b98:	f002 f886 	bl	2ca8 <task::sleep(unsigned long)>
     b9c:	f8d4 3108 	ldr.w	r3, [r4, #264]	; 0x108
     ba0:	6818      	ldr	r0, [r3, #0]
     ba2:	6802      	ldr	r2, [r0, #0]
     ba4:	6895      	ldr	r5, [r2, #8]
     ba6:	2201      	movs	r2, #1
     ba8:	8899      	ldrh	r1, [r3, #4]
     baa:	47a8      	blx	r5
     bac:	f44f 7096 	mov.w	r0, #300	; 0x12c
     bb0:	f002 f87a 	bl	2ca8 <task::sleep(unsigned long)>
     bb4:	2111      	movs	r1, #17
     bb6:	4620      	mov	r0, r4
     bb8:	f7ff ff30 	bl	a1c <st7735s_drv::writeCommand(unsigned char)>
     bbc:	2096      	movs	r0, #150	; 0x96
     bbe:	f002 f873 	bl	2ca8 <task::sleep(unsigned long)>
     bc2:	2126      	movs	r1, #38	; 0x26
     bc4:	4620      	mov	r0, r4
     bc6:	f7ff ff29 	bl	a1c <st7735s_drv::writeCommand(unsigned char)>
     bca:	2103      	movs	r1, #3
     bcc:	4620      	mov	r0, r4
     bce:	f7ff ff0c 	bl	9ea <st7735s_drv::writeData(unsigned char)>
     bd2:	213a      	movs	r1, #58	; 0x3a
     bd4:	4620      	mov	r0, r4
     bd6:	f7ff ff21 	bl	a1c <st7735s_drv::writeCommand(unsigned char)>
     bda:	2105      	movs	r1, #5
     bdc:	4620      	mov	r0, r4
     bde:	f7ff ff04 	bl	9ea <st7735s_drv::writeData(unsigned char)>
     be2:	2133      	movs	r1, #51	; 0x33
     be4:	4620      	mov	r0, r4
     be6:	f7ff ff19 	bl	a1c <st7735s_drv::writeCommand(unsigned char)>
     bea:	2100      	movs	r1, #0
     bec:	4620      	mov	r0, r4
     bee:	f7ff fefc 	bl	9ea <st7735s_drv::writeData(unsigned char)>
     bf2:	f8d4 3110 	ldr.w	r3, [r4, #272]	; 0x110
     bf6:	7a59      	ldrb	r1, [r3, #9]
     bf8:	4620      	mov	r0, r4
     bfa:	f7ff fef6 	bl	9ea <st7735s_drv::writeData(unsigned char)>
     bfe:	2100      	movs	r1, #0
     c00:	4620      	mov	r0, r4
     c02:	f7ff fef2 	bl	9ea <st7735s_drv::writeData(unsigned char)>
     c06:	f8d4 3110 	ldr.w	r3, [r4, #272]	; 0x110
     c0a:	7899      	ldrb	r1, [r3, #2]
     c0c:	4620      	mov	r0, r4
     c0e:	f7ff feec 	bl	9ea <st7735s_drv::writeData(unsigned char)>
     c12:	2100      	movs	r1, #0
     c14:	4620      	mov	r0, r4
     c16:	f7ff fee8 	bl	9ea <st7735s_drv::writeData(unsigned char)>
     c1a:	f8d4 3110 	ldr.w	r3, [r4, #272]	; 0x110
     c1e:	88d9      	ldrh	r1, [r3, #6]
     c20:	885a      	ldrh	r2, [r3, #2]
     c22:	1a89      	subs	r1, r1, r2
     c24:	b2c9      	uxtb	r1, r1
     c26:	7a5b      	ldrb	r3, [r3, #9]
     c28:	1ac9      	subs	r1, r1, r3
     c2a:	b2c9      	uxtb	r1, r1
     c2c:	4620      	mov	r0, r4
     c2e:	f7ff fedc 	bl	9ea <st7735s_drv::writeData(unsigned char)>
     c32:	2100      	movs	r1, #0
     c34:	4620      	mov	r0, r4
     c36:	f7ff ff12 	bl	a5e <st7735s_drv::setOrientation(st7735s_drv::Orientation)>
     c3a:	2100      	movs	r1, #0
     c3c:	f884 1115 	strb.w	r1, [r4, #277]	; 0x115
     c40:	4620      	mov	r0, r4
     c42:	f7ff ff44 	bl	ace <st7735s_drv::scroll(short)>
     c46:	2129      	movs	r1, #41	; 0x29
     c48:	4620      	mov	r0, r4
     c4a:	f7ff fee7 	bl	a1c <st7735s_drv::writeCommand(unsigned char)>
     c4e:	4620      	mov	r0, r4
     c50:	bd38      	pop	{r3, r4, r5, pc}
     c52:	bf00      	nop
     c54:	0000eb2c 	.word	0x0000eb2c
     c58:	0000eb58 	.word	0x0000eb58

00000c5c <st7735s_drv::setFrame(unsigned short, unsigned short, unsigned short, unsigned short)>:
     c5c:	e92d 43f8 	stmdb	sp!, {r3, r4, r5, r6, r7, r8, r9, lr}
     c60:	4604      	mov	r4, r0
     c62:	460e      	mov	r6, r1
     c64:	4615      	mov	r5, r2
     c66:	461f      	mov	r7, r3
     c68:	f8bd 9020 	ldrh.w	r9, [sp, #32]
     c6c:	f890 3114 	ldrb.w	r3, [r0, #276]	; 0x114
     c70:	2b03      	cmp	r3, #3
     c72:	d81c      	bhi.n	cae <st7735s_drv::setFrame(unsigned short, unsigned short, unsigned short, unsigned short)+0x52>
     c74:	e8df f003 	tbb	[pc, r3]
     c78:	5e4a3c02 	.word	0x5e4a3c02
     c7c:	f8d0 1110 	ldr.w	r1, [r0, #272]	; 0x110
     c80:	888a      	ldrh	r2, [r1, #4]
     c82:	880b      	ldrh	r3, [r1, #0]
     c84:	1ad2      	subs	r2, r2, r3
     c86:	b292      	uxth	r2, r2
     c88:	7a0b      	ldrb	r3, [r1, #8]
     c8a:	1ad2      	subs	r2, r2, r3
     c8c:	b292      	uxth	r2, r2
     c8e:	4416      	add	r6, r2
     c90:	b2b6      	uxth	r6, r6
     c92:	88cb      	ldrh	r3, [r1, #6]
     c94:	8848      	ldrh	r0, [r1, #2]
     c96:	1a1b      	subs	r3, r3, r0
     c98:	b29b      	uxth	r3, r3
     c9a:	7a49      	ldrb	r1, [r1, #9]
     c9c:	1a5b      	subs	r3, r3, r1
     c9e:	b29b      	uxth	r3, r3
     ca0:	441d      	add	r5, r3
     ca2:	b2ad      	uxth	r5, r5
     ca4:	443a      	add	r2, r7
     ca6:	b297      	uxth	r7, r2
     ca8:	444b      	add	r3, r9
     caa:	fa1f f983 	uxth.w	r9, r3
     cae:	212a      	movs	r1, #42	; 0x2a
     cb0:	4620      	mov	r0, r4
     cb2:	f7ff feb3 	bl	a1c <st7735s_drv::writeCommand(unsigned char)>
     cb6:	f04f 0800 	mov.w	r8, #0
     cba:	f884 8004 	strb.w	r8, [r4, #4]
     cbe:	7166      	strb	r6, [r4, #5]
     cc0:	f884 8006 	strb.w	r8, [r4, #6]
     cc4:	71e7      	strb	r7, [r4, #7]
     cc6:	2104      	movs	r1, #4
     cc8:	4620      	mov	r0, r4
     cca:	f7ff fe9d 	bl	a08 <st7735s_drv::writeDataBuffer(int)>
     cce:	212b      	movs	r1, #43	; 0x2b
     cd0:	4620      	mov	r0, r4
     cd2:	f7ff fea3 	bl	a1c <st7735s_drv::writeCommand(unsigned char)>
     cd6:	f884 8004 	strb.w	r8, [r4, #4]
     cda:	7165      	strb	r5, [r4, #5]
     cdc:	f884 8006 	strb.w	r8, [r4, #6]
     ce0:	f884 9007 	strb.w	r9, [r4, #7]
     ce4:	2104      	movs	r1, #4
     ce6:	4620      	mov	r0, r4
     ce8:	f7ff fe8e 	bl	a08 <st7735s_drv::writeDataBuffer(int)>
     cec:	e8bd 83f8 	ldmia.w	sp!, {r3, r4, r5, r6, r7, r8, r9, pc}
     cf0:	f8d0 3110 	ldr.w	r3, [r0, #272]	; 0x110
     cf4:	7a1a      	ldrb	r2, [r3, #8]
     cf6:	4416      	add	r6, r2
     cf8:	b2b6      	uxth	r6, r6
     cfa:	7a5b      	ldrb	r3, [r3, #9]
     cfc:	441d      	add	r5, r3
     cfe:	b2ad      	uxth	r5, r5
     d00:	443a      	add	r2, r7
     d02:	b297      	uxth	r7, r2
     d04:	444b      	add	r3, r9
     d06:	fa1f f983 	uxth.w	r9, r3
     d0a:	e7d0      	b.n	cae <st7735s_drv::setFrame(unsigned short, unsigned short, unsigned short, unsigned short)+0x52>
     d0c:	f8d0 2110 	ldr.w	r2, [r0, #272]	; 0x110
     d10:	88d3      	ldrh	r3, [r2, #6]
     d12:	8851      	ldrh	r1, [r2, #2]
     d14:	1a5b      	subs	r3, r3, r1
     d16:	b29b      	uxth	r3, r3
     d18:	7a51      	ldrb	r1, [r2, #9]
     d1a:	1a5b      	subs	r3, r3, r1
     d1c:	b29b      	uxth	r3, r3
     d1e:	441e      	add	r6, r3
     d20:	b2b6      	uxth	r6, r6
     d22:	7a12      	ldrb	r2, [r2, #8]
     d24:	4415      	add	r5, r2
     d26:	b2ad      	uxth	r5, r5
     d28:	443b      	add	r3, r7
     d2a:	b29f      	uxth	r7, r3
     d2c:	444a      	add	r2, r9
     d2e:	fa1f f982 	uxth.w	r9, r2
     d32:	e7bc      	b.n	cae <st7735s_drv::setFrame(unsigned short, unsigned short, unsigned short, unsigned short)+0x52>
     d34:	f8d0 1110 	ldr.w	r1, [r0, #272]	; 0x110
     d38:	7a4a      	ldrb	r2, [r1, #9]
     d3a:	4416      	add	r6, r2
     d3c:	b2b6      	uxth	r6, r6
     d3e:	888b      	ldrh	r3, [r1, #4]
     d40:	8808      	ldrh	r0, [r1, #0]
     d42:	1a1b      	subs	r3, r3, r0
     d44:	b29b      	uxth	r3, r3
     d46:	7a09      	ldrb	r1, [r1, #8]
     d48:	1a5b      	subs	r3, r3, r1
     d4a:	b29b      	uxth	r3, r3
     d4c:	441d      	add	r5, r3
     d4e:	b2ad      	uxth	r5, r5
     d50:	443a      	add	r2, r7
     d52:	b297      	uxth	r7, r2
     d54:	444b      	add	r3, r9
     d56:	fa1f f983 	uxth.w	r9, r3
     d5a:	e7a8      	b.n	cae <st7735s_drv::setFrame(unsigned short, unsigned short, unsigned short, unsigned short)+0x52>

00000d5c <st7735s_drv::drawPixel(unsigned short, unsigned short, unsigned long)>:
     d5c:	b530      	push	{r4, r5, lr}
     d5e:	b085      	sub	sp, #20
     d60:	4604      	mov	r4, r0
     d62:	f8ad 100e 	strh.w	r1, [sp, #14]
     d66:	f8ad 200c 	strh.w	r2, [sp, #12]
     d6a:	f04f 7280 	mov.w	r2, #16777216	; 0x1000000
     d6e:	4619      	mov	r1, r3
     d70:	f7ff fd9c 	bl	8ac <lcd_interface::convertColor(unsigned long, unsigned long)>
     d74:	4605      	mov	r5, r0
     d76:	aa03      	add	r2, sp, #12
     d78:	f10d 010e 	add.w	r1, sp, #14
     d7c:	4620      	mov	r0, r4
     d7e:	f7ff fde5 	bl	94c <st7735s_drv::change(unsigned short&, unsigned short&)>
     d82:	f8d4 0118 	ldr.w	r0, [r4, #280]	; 0x118
     d86:	b110      	cbz	r0, d8e <st7735s_drv::drawPixel(unsigned short, unsigned short, unsigned long)+0x32>
     d88:	6803      	ldr	r3, [r0, #0]
     d8a:	681b      	ldr	r3, [r3, #0]
     d8c:	4798      	blx	r3
     d8e:	f8bd 100e 	ldrh.w	r1, [sp, #14]
     d92:	f8bd 200c 	ldrh.w	r2, [sp, #12]
     d96:	9200      	str	r2, [sp, #0]
     d98:	460b      	mov	r3, r1
     d9a:	4620      	mov	r0, r4
     d9c:	f7ff ff5e 	bl	c5c <st7735s_drv::setFrame(unsigned short, unsigned short, unsigned short, unsigned short)>
     da0:	212c      	movs	r1, #44	; 0x2c
     da2:	4620      	mov	r0, r4
     da4:	f7ff fe3a 	bl	a1c <st7735s_drv::writeCommand(unsigned char)>
     da8:	0a2b      	lsrs	r3, r5, #8
     daa:	7123      	strb	r3, [r4, #4]
     dac:	7165      	strb	r5, [r4, #5]
     dae:	2102      	movs	r1, #2
     db0:	4620      	mov	r0, r4
     db2:	f7ff fe29 	bl	a08 <st7735s_drv::writeDataBuffer(int)>
     db6:	f8d4 0118 	ldr.w	r0, [r4, #280]	; 0x118
     dba:	b110      	cbz	r0, dc2 <st7735s_drv::drawPixel(unsigned short, unsigned short, unsigned long)+0x66>
     dbc:	6803      	ldr	r3, [r0, #0]
     dbe:	685b      	ldr	r3, [r3, #4]
     dc0:	4798      	blx	r3
     dc2:	b005      	add	sp, #20
     dc4:	bd30      	pop	{r4, r5, pc}

00000dc6 <st7735s_drv::drawHLine(unsigned short, unsigned short, unsigned short, unsigned long)>:
     dc6:	b530      	push	{r4, r5, lr}
     dc8:	b087      	sub	sp, #28
     dca:	4604      	mov	r4, r0
     dcc:	f8ad 100e 	strh.w	r1, [sp, #14]
     dd0:	f8ad 200c 	strh.w	r2, [sp, #12]
     dd4:	f8ad 300a 	strh.w	r3, [sp, #10]
     dd8:	f04f 7280 	mov.w	r2, #16777216	; 0x1000000
     ddc:	990a      	ldr	r1, [sp, #40]	; 0x28
     dde:	f7ff fd65 	bl	8ac <lcd_interface::convertColor(unsigned long, unsigned long)>
     de2:	4605      	mov	r5, r0
     de4:	aa03      	add	r2, sp, #12
     de6:	f10d 010e 	add.w	r1, sp, #14
     dea:	4620      	mov	r0, r4
     dec:	f7ff fdae 	bl	94c <st7735s_drv::change(unsigned short&, unsigned short&)>
     df0:	f10d 0216 	add.w	r2, sp, #22
     df4:	f10d 010a 	add.w	r1, sp, #10
     df8:	4620      	mov	r0, r4
     dfa:	f7ff fda7 	bl	94c <st7735s_drv::change(unsigned short&, unsigned short&)>
     dfe:	f8d4 0118 	ldr.w	r0, [r4, #280]	; 0x118
     e02:	b110      	cbz	r0, e0a <st7735s_drv::drawHLine(unsigned short, unsigned short, unsigned short, unsigned long)+0x44>
     e04:	6803      	ldr	r3, [r0, #0]
     e06:	681b      	ldr	r3, [r3, #0]
     e08:	4798      	blx	r3
     e0a:	f8bd 200c 	ldrh.w	r2, [sp, #12]
     e0e:	9200      	str	r2, [sp, #0]
     e10:	f8bd 300a 	ldrh.w	r3, [sp, #10]
     e14:	f8bd 100e 	ldrh.w	r1, [sp, #14]
     e18:	4620      	mov	r0, r4
     e1a:	f7ff ff1f 	bl	c5c <st7735s_drv::setFrame(unsigned short, unsigned short, unsigned short, unsigned short)>
     e1e:	212c      	movs	r1, #44	; 0x2c
     e20:	4620      	mov	r0, r4
     e22:	f7ff fdfb 	bl	a1c <st7735s_drv::writeCommand(unsigned char)>
     e26:	f8bd 000e 	ldrh.w	r0, [sp, #14]
     e2a:	2100      	movs	r1, #0
     e2c:	e009      	b.n	e42 <st7735s_drv::drawHLine(unsigned short, unsigned short, unsigned short, unsigned long)+0x7c>
     e2e:	0a2a      	lsrs	r2, r5, #8
     e30:	1c4b      	adds	r3, r1, #1
     e32:	eb04 0c01 	add.w	ip, r4, r1
     e36:	f88c 2004 	strb.w	r2, [ip, #4]
     e3a:	4423      	add	r3, r4
     e3c:	3102      	adds	r1, #2
     e3e:	711d      	strb	r5, [r3, #4]
     e40:	3001      	adds	r0, #1
     e42:	f8bd 300a 	ldrh.w	r3, [sp, #10]
     e46:	4283      	cmp	r3, r0
     e48:	daf1      	bge.n	e2e <st7735s_drv::drawHLine(unsigned short, unsigned short, unsigned short, unsigned long)+0x68>
     e4a:	4620      	mov	r0, r4
     e4c:	f7ff fddc 	bl	a08 <st7735s_drv::writeDataBuffer(int)>
     e50:	f8d4 0118 	ldr.w	r0, [r4, #280]	; 0x118
     e54:	b110      	cbz	r0, e5c <st7735s_drv::drawHLine(unsigned short, unsigned short, unsigned short, unsigned long)+0x96>
     e56:	6803      	ldr	r3, [r0, #0]
     e58:	685b      	ldr	r3, [r3, #4]
     e5a:	4798      	blx	r3
     e5c:	b007      	add	sp, #28
     e5e:	bd30      	pop	{r4, r5, pc}

00000e60 <st7735s_drv::drawVLine(unsigned short, unsigned short, unsigned short, unsigned long)>:
     e60:	b530      	push	{r4, r5, lr}
     e62:	b087      	sub	sp, #28
     e64:	4604      	mov	r4, r0
     e66:	f8ad 100e 	strh.w	r1, [sp, #14]
     e6a:	f8ad 200c 	strh.w	r2, [sp, #12]
     e6e:	f8ad 300a 	strh.w	r3, [sp, #10]
     e72:	f04f 7280 	mov.w	r2, #16777216	; 0x1000000
     e76:	990a      	ldr	r1, [sp, #40]	; 0x28
     e78:	f7ff fd18 	bl	8ac <lcd_interface::convertColor(unsigned long, unsigned long)>
     e7c:	4605      	mov	r5, r0
     e7e:	aa03      	add	r2, sp, #12
     e80:	f10d 010e 	add.w	r1, sp, #14
     e84:	4620      	mov	r0, r4
     e86:	f7ff fd61 	bl	94c <st7735s_drv::change(unsigned short&, unsigned short&)>
     e8a:	f10d 020a 	add.w	r2, sp, #10
     e8e:	f10d 0116 	add.w	r1, sp, #22
     e92:	4620      	mov	r0, r4
     e94:	f7ff fd5a 	bl	94c <st7735s_drv::change(unsigned short&, unsigned short&)>
     e98:	f8d4 0118 	ldr.w	r0, [r4, #280]	; 0x118
     e9c:	b110      	cbz	r0, ea4 <st7735s_drv::drawVLine(unsigned short, unsigned short, unsigned short, unsigned long)+0x44>
     e9e:	6803      	ldr	r3, [r0, #0]
     ea0:	681b      	ldr	r3, [r3, #0]
     ea2:	4798      	blx	r3
     ea4:	f8bd 100e 	ldrh.w	r1, [sp, #14]
     ea8:	f8bd 300a 	ldrh.w	r3, [sp, #10]
     eac:	9300      	str	r3, [sp, #0]
     eae:	460b      	mov	r3, r1
     eb0:	f8bd 200c 	ldrh.w	r2, [sp, #12]
     eb4:	4620      	mov	r0, r4
     eb6:	f7ff fed1 	bl	c5c <st7735s_drv::setFrame(unsigned short, unsigned short, unsigned short, unsigned short)>
     eba:	212c      	movs	r1, #44	; 0x2c
     ebc:	4620      	mov	r0, r4
     ebe:	f7ff fdad 	bl	a1c <st7735s_drv::writeCommand(unsigned char)>
     ec2:	f8bd 000c 	ldrh.w	r0, [sp, #12]
     ec6:	2100      	movs	r1, #0
     ec8:	e009      	b.n	ede <st7735s_drv::drawVLine(unsigned short, unsigned short, unsigned short, unsigned long)+0x7e>
     eca:	0a2a      	lsrs	r2, r5, #8
     ecc:	1c4b      	adds	r3, r1, #1
     ece:	eb04 0c01 	add.w	ip, r4, r1
     ed2:	f88c 2004 	strb.w	r2, [ip, #4]
     ed6:	4423      	add	r3, r4
     ed8:	3102      	adds	r1, #2
     eda:	711d      	strb	r5, [r3, #4]
     edc:	3001      	adds	r0, #1
     ede:	f8bd 300a 	ldrh.w	r3, [sp, #10]
     ee2:	4283      	cmp	r3, r0
     ee4:	daf1      	bge.n	eca <st7735s_drv::drawVLine(unsigned short, unsigned short, unsigned short, unsigned long)+0x6a>
     ee6:	4620      	mov	r0, r4
     ee8:	f7ff fd8e 	bl	a08 <st7735s_drv::writeDataBuffer(int)>
     eec:	f8d4 0118 	ldr.w	r0, [r4, #280]	; 0x118
     ef0:	b110      	cbz	r0, ef8 <st7735s_drv::drawVLine(unsigned short, unsigned short, unsigned short, unsigned long)+0x98>
     ef2:	6803      	ldr	r3, [r0, #0]
     ef4:	685b      	ldr	r3, [r3, #4]
     ef6:	4798      	blx	r3
     ef8:	b007      	add	sp, #28
     efa:	bd30      	pop	{r4, r5, pc}

00000efc <st7735s_drv::drawArea(unsigned short, unsigned short, unsigned short, unsigned short, pixel_stream&)>:
     efc:	e92d 43f0 	stmdb	sp!, {r4, r5, r6, r7, r8, r9, lr}
     f00:	b085      	sub	sp, #20
     f02:	4605      	mov	r5, r0
     f04:	9f0d      	ldr	r7, [sp, #52]	; 0x34
     f06:	f8ad 100e 	strh.w	r1, [sp, #14]
     f0a:	f8ad 200c 	strh.w	r2, [sp, #12]
     f0e:	f8ad 300a 	strh.w	r3, [sp, #10]
     f12:	683b      	ldr	r3, [r7, #0]
     f14:	681b      	ldr	r3, [r3, #0]
     f16:	4638      	mov	r0, r7
     f18:	4798      	blx	r3
     f1a:	4681      	mov	r9, r0
     f1c:	683b      	ldr	r3, [r7, #0]
     f1e:	689b      	ldr	r3, [r3, #8]
     f20:	4638      	mov	r0, r7
     f22:	4798      	blx	r3
     f24:	aa03      	add	r2, sp, #12
     f26:	f10d 010e 	add.w	r1, sp, #14
     f2a:	4628      	mov	r0, r5
     f2c:	f7ff fd0e 	bl	94c <st7735s_drv::change(unsigned short&, unsigned short&)>
     f30:	aa0c      	add	r2, sp, #48	; 0x30
     f32:	f10d 010a 	add.w	r1, sp, #10
     f36:	4628      	mov	r0, r5
     f38:	f7ff fd08 	bl	94c <st7735s_drv::change(unsigned short&, unsigned short&)>
     f3c:	f8d5 0118 	ldr.w	r0, [r5, #280]	; 0x118
     f40:	b110      	cbz	r0, f48 <st7735s_drv::drawArea(unsigned short, unsigned short, unsigned short, unsigned short, pixel_stream&)+0x4c>
     f42:	6803      	ldr	r3, [r0, #0]
     f44:	681b      	ldr	r3, [r3, #0]
     f46:	4798      	blx	r3
     f48:	f8bd 3030 	ldrh.w	r3, [sp, #48]	; 0x30
     f4c:	9300      	str	r3, [sp, #0]
     f4e:	f8bd 300a 	ldrh.w	r3, [sp, #10]
     f52:	f8bd 200c 	ldrh.w	r2, [sp, #12]
     f56:	f8bd 100e 	ldrh.w	r1, [sp, #14]
     f5a:	4628      	mov	r0, r5
     f5c:	f7ff fe7e 	bl	c5c <st7735s_drv::setFrame(unsigned short, unsigned short, unsigned short, unsigned short)>
     f60:	f8bd 800a 	ldrh.w	r8, [sp, #10]
     f64:	f8bd 300e 	ldrh.w	r3, [sp, #14]
     f68:	eba8 0803 	sub.w	r8, r8, r3
     f6c:	f108 0801 	add.w	r8, r8, #1
     f70:	f8bd 3030 	ldrh.w	r3, [sp, #48]	; 0x30
     f74:	f8bd 200c 	ldrh.w	r2, [sp, #12]
     f78:	1a9b      	subs	r3, r3, r2
     f7a:	3301      	adds	r3, #1
     f7c:	fb18 f803 	smulbb	r8, r8, r3
     f80:	fa0f f888 	sxth.w	r8, r8
     f84:	212c      	movs	r1, #44	; 0x2c
     f86:	4628      	mov	r0, r5
     f88:	f7ff fd48 	bl	a1c <st7735s_drv::writeCommand(unsigned char)>
     f8c:	2600      	movs	r6, #0
     f8e:	4634      	mov	r4, r6
     f90:	e00a      	b.n	fa8 <st7735s_drv::drawArea(unsigned short, unsigned short, unsigned short, unsigned short, pixel_stream&)+0xac>
     f92:	0a08      	lsrs	r0, r1, #8
     f94:	1c63      	adds	r3, r4, #1
     f96:	192a      	adds	r2, r5, r4
     f98:	7110      	strb	r0, [r2, #4]
     f9a:	3402      	adds	r4, #2
     f9c:	442b      	add	r3, r5
     f9e:	7119      	strb	r1, [r3, #4]
     fa0:	f5b4 7f80 	cmp.w	r4, #256	; 0x100
     fa4:	d011      	beq.n	fca <st7735s_drv::drawArea(unsigned short, unsigned short, unsigned short, unsigned short, pixel_stream&)+0xce>
     fa6:	3601      	adds	r6, #1
     fa8:	45b0      	cmp	r8, r6
     faa:	dd14      	ble.n	fd6 <st7735s_drv::drawArea(unsigned short, unsigned short, unsigned short, unsigned short, pixel_stream&)+0xda>
     fac:	683b      	ldr	r3, [r7, #0]
     fae:	685b      	ldr	r3, [r3, #4]
     fb0:	4638      	mov	r0, r7
     fb2:	4798      	blx	r3
     fb4:	4601      	mov	r1, r0
     fb6:	f1b9 7f80 	cmp.w	r9, #16777216	; 0x1000000
     fba:	d0ea      	beq.n	f92 <st7735s_drv::drawArea(unsigned short, unsigned short, unsigned short, unsigned short, pixel_stream&)+0x96>
     fbc:	f04f 7280 	mov.w	r2, #16777216	; 0x1000000
     fc0:	4628      	mov	r0, r5
     fc2:	f7ff fc73 	bl	8ac <lcd_interface::convertColor(unsigned long, unsigned long)>
     fc6:	4601      	mov	r1, r0
     fc8:	e7e3      	b.n	f92 <st7735s_drv::drawArea(unsigned short, unsigned short, unsigned short, unsigned short, pixel_stream&)+0x96>
     fca:	4621      	mov	r1, r4
     fcc:	4628      	mov	r0, r5
     fce:	f7ff fd1b 	bl	a08 <st7735s_drv::writeDataBuffer(int)>
     fd2:	2400      	movs	r4, #0
     fd4:	e7e7      	b.n	fa6 <st7735s_drv::drawArea(unsigned short, unsigned short, unsigned short, unsigned short, pixel_stream&)+0xaa>
     fd6:	b944      	cbnz	r4, fea <st7735s_drv::drawArea(unsigned short, unsigned short, unsigned short, unsigned short, pixel_stream&)+0xee>
     fd8:	f8d5 0118 	ldr.w	r0, [r5, #280]	; 0x118
     fdc:	b110      	cbz	r0, fe4 <st7735s_drv::drawArea(unsigned short, unsigned short, unsigned short, unsigned short, pixel_stream&)+0xe8>
     fde:	6803      	ldr	r3, [r0, #0]
     fe0:	685b      	ldr	r3, [r3, #4]
     fe2:	4798      	blx	r3
     fe4:	b005      	add	sp, #20
     fe6:	e8bd 83f0 	ldmia.w	sp!, {r4, r5, r6, r7, r8, r9, pc}
     fea:	4621      	mov	r1, r4
     fec:	4628      	mov	r0, r5
     fee:	f7ff fd0b 	bl	a08 <st7735s_drv::writeDataBuffer(int)>
     ff2:	e7f1      	b.n	fd8 <st7735s_drv::drawArea(unsigned short, unsigned short, unsigned short, unsigned short, pixel_stream&)+0xdc>

00000ff4 <st7735s_drv::clearScreen(unsigned long)>:
     ff4:	e92d 41f0 	stmdb	sp!, {r4, r5, r6, r7, r8, lr}
     ff8:	b082      	sub	sp, #8
     ffa:	4604      	mov	r4, r0
     ffc:	f04f 7280 	mov.w	r2, #16777216	; 0x1000000
    1000:	f7ff fc54 	bl	8ac <lcd_interface::convertColor(unsigned long, unsigned long)>
    1004:	4606      	mov	r6, r0
    1006:	f994 1115 	ldrsb.w	r1, [r4, #277]	; 0x115
    100a:	b289      	uxth	r1, r1
    100c:	4249      	negs	r1, r1
    100e:	b209      	sxth	r1, r1
    1010:	4620      	mov	r0, r4
    1012:	f7ff fd5c 	bl	ace <st7735s_drv::scroll(short)>
    1016:	f8d4 0118 	ldr.w	r0, [r4, #280]	; 0x118
    101a:	b110      	cbz	r0, 1022 <st7735s_drv::clearScreen(unsigned long)+0x2e>
    101c:	6803      	ldr	r3, [r0, #0]
    101e:	681b      	ldr	r3, [r3, #0]
    1020:	4798      	blx	r3
    1022:	f8d4 2110 	ldr.w	r2, [r4, #272]	; 0x110
    1026:	8813      	ldrh	r3, [r2, #0]
    1028:	8852      	ldrh	r2, [r2, #2]
    102a:	3b01      	subs	r3, #1
    102c:	3a01      	subs	r2, #1
    102e:	b292      	uxth	r2, r2
    1030:	9200      	str	r2, [sp, #0]
    1032:	b29b      	uxth	r3, r3
    1034:	2200      	movs	r2, #0
    1036:	4611      	mov	r1, r2
    1038:	4620      	mov	r0, r4
    103a:	f7ff fe0f 	bl	c5c <st7735s_drv::setFrame(unsigned short, unsigned short, unsigned short, unsigned short)>
    103e:	f8d4 3110 	ldr.w	r3, [r4, #272]	; 0x110
    1042:	881f      	ldrh	r7, [r3, #0]
    1044:	885b      	ldrh	r3, [r3, #2]
    1046:	fb17 f703 	smulbb	r7, r7, r3
    104a:	b23f      	sxth	r7, r7
    104c:	212c      	movs	r1, #44	; 0x2c
    104e:	4620      	mov	r0, r4
    1050:	f7ff fce4 	bl	a1c <st7735s_drv::writeCommand(unsigned char)>
    1054:	f3c6 2807 	ubfx	r8, r6, #8, #8
    1058:	b2f6      	uxtb	r6, r6
    105a:	2500      	movs	r5, #0
    105c:	4629      	mov	r1, r5
    105e:	e000      	b.n	1062 <st7735s_drv::clearScreen(unsigned long)+0x6e>
    1060:	3501      	adds	r5, #1
    1062:	42af      	cmp	r7, r5
    1064:	db0e      	blt.n	1084 <st7735s_drv::clearScreen(unsigned long)+0x90>
    1066:	1c4b      	adds	r3, r1, #1
    1068:	1862      	adds	r2, r4, r1
    106a:	f882 8004 	strb.w	r8, [r2, #4]
    106e:	3102      	adds	r1, #2
    1070:	4423      	add	r3, r4
    1072:	711e      	strb	r6, [r3, #4]
    1074:	f5b1 7f80 	cmp.w	r1, #256	; 0x100
    1078:	d1f2      	bne.n	1060 <st7735s_drv::clearScreen(unsigned long)+0x6c>
    107a:	4620      	mov	r0, r4
    107c:	f7ff fcc4 	bl	a08 <st7735s_drv::writeDataBuffer(int)>
    1080:	2100      	movs	r1, #0
    1082:	e7ed      	b.n	1060 <st7735s_drv::clearScreen(unsigned long)+0x6c>
    1084:	b941      	cbnz	r1, 1098 <st7735s_drv::clearScreen(unsigned long)+0xa4>
    1086:	f8d4 0118 	ldr.w	r0, [r4, #280]	; 0x118
    108a:	b110      	cbz	r0, 1092 <st7735s_drv::clearScreen(unsigned long)+0x9e>
    108c:	6803      	ldr	r3, [r0, #0]
    108e:	685b      	ldr	r3, [r3, #4]
    1090:	4798      	blx	r3
    1092:	b002      	add	sp, #8
    1094:	e8bd 81f0 	ldmia.w	sp!, {r4, r5, r6, r7, r8, pc}
    1098:	4620      	mov	r0, r4
    109a:	f7ff fcb5 	bl	a08 <st7735s_drv::writeDataBuffer(int)>
    109e:	e7f2      	b.n	1086 <st7735s_drv::clearScreen(unsigned long)+0x92>

000010a0 <_GLOBAL__sub_I__ZN11st7735s_drv20Crystalfontz_128x128E>:
    10a0:	b508      	push	{r3, lr}
    10a2:	f64f 71ff 	movw	r1, #65535	; 0xffff
    10a6:	2001      	movs	r0, #1
    10a8:	f7ff fbd2 	bl	850 <__static_initialization_and_destruction_0(int, int)>
    10ac:	bd08      	pop	{r3, pc}

000010ae <yahal_assert_func()>:
    10ae:	e7fe      	b.n	10ae <yahal_assert_func()>

000010b0 <adc14_msp432::getMode(unsigned char)>:
    10b0:	2917      	cmp	r1, #23
    10b2:	d804      	bhi.n	10be <adc14_msp432::getMode(unsigned char)+0xe>
    10b4:	3134      	adds	r1, #52	; 0x34
    10b6:	eb00 0041 	add.w	r0, r0, r1, lsl #1
    10ba:	8880      	ldrh	r0, [r0, #4]
    10bc:	4770      	bx	lr
    10be:	b508      	push	{r3, lr}
    10c0:	4b03      	ldr	r3, [pc, #12]	; (10d0 <adc14_msp432::getMode(unsigned char)+0x20>)
    10c2:	4a04      	ldr	r2, [pc, #16]	; (10d4 <adc14_msp432::getMode(unsigned char)+0x24>)
    10c4:	601a      	str	r2, [r3, #0]
    10c6:	4b04      	ldr	r3, [pc, #16]	; (10d8 <adc14_msp432::getMode(unsigned char)+0x28>)
    10c8:	2240      	movs	r2, #64	; 0x40
    10ca:	601a      	str	r2, [r3, #0]
    10cc:	f7ff ffef 	bl	10ae <yahal_assert_func()>
    10d0:	200000b4 	.word	0x200000b4
    10d4:	0000eb98 	.word	0x0000eb98
    10d8:	200000d0 	.word	0x200000d0

000010dc <adc14_msp432::adcReadVoltage(unsigned char)>:
    10dc:	b570      	push	{r4, r5, r6, lr}
    10de:	4604      	mov	r4, r0
    10e0:	460d      	mov	r5, r1
    10e2:	6803      	ldr	r3, [r0, #0]
    10e4:	691e      	ldr	r6, [r3, #16]
    10e6:	689b      	ldr	r3, [r3, #8]
    10e8:	4798      	blx	r3
    10ea:	4602      	mov	r2, r0
    10ec:	4629      	mov	r1, r5
    10ee:	4620      	mov	r0, r4
    10f0:	47b0      	blx	r6
    10f2:	bd70      	pop	{r4, r5, r6, pc}

000010f4 <adc14_msp432::rawToVoltage(unsigned char, unsigned short)>:
    10f4:	b508      	push	{r3, lr}
    10f6:	ee07 2a90 	vmov	s15, r2
    10fa:	eef8 7a67 	vcvt.f32.u32	s15, s15
    10fe:	ed9f 7a16 	vldr	s14, [pc, #88]	; 1158 <adc14_msp432::rawToVoltage(unsigned char, unsigned short)+0x64>
    1102:	ee67 7a87 	vmul.f32	s15, s15, s14
    1106:	3134      	adds	r1, #52	; 0x34
    1108:	eb00 0041 	add.w	r0, r0, r1, lsl #1
    110c:	8883      	ldrh	r3, [r0, #4]
    110e:	3b01      	subs	r3, #1
    1110:	2b07      	cmp	r3, #7
    1112:	d819      	bhi.n	1148 <adc14_msp432::rawToVoltage(unsigned char, unsigned short)+0x54>
    1114:	e8df f003 	tbb	[pc, r3]
    1118:	0e180904 	.word	0x0e180904
    111c:	13181818 	.word	0x13181818
    1120:	ed9f 7a0e 	vldr	s14, [pc, #56]	; 115c <adc14_msp432::rawToVoltage(unsigned char, unsigned short)+0x68>
    1124:	ee87 0a87 	vdiv.f32	s0, s15, s14
    1128:	bd08      	pop	{r3, pc}
    112a:	ed9f 7a0d 	vldr	s14, [pc, #52]	; 1160 <adc14_msp432::rawToVoltage(unsigned char, unsigned short)+0x6c>
    112e:	ee87 0a87 	vdiv.f32	s0, s15, s14
    1132:	e7f9      	b.n	1128 <adc14_msp432::rawToVoltage(unsigned char, unsigned short)+0x34>
    1134:	ed9f 7a0b 	vldr	s14, [pc, #44]	; 1164 <adc14_msp432::rawToVoltage(unsigned char, unsigned short)+0x70>
    1138:	ee87 0a87 	vdiv.f32	s0, s15, s14
    113c:	e7f4      	b.n	1128 <adc14_msp432::rawToVoltage(unsigned char, unsigned short)+0x34>
    113e:	ed9f 7a0a 	vldr	s14, [pc, #40]	; 1168 <adc14_msp432::rawToVoltage(unsigned char, unsigned short)+0x74>
    1142:	ee87 0a87 	vdiv.f32	s0, s15, s14
    1146:	e7ef      	b.n	1128 <adc14_msp432::rawToVoltage(unsigned char, unsigned short)+0x34>
    1148:	4b08      	ldr	r3, [pc, #32]	; (116c <adc14_msp432::rawToVoltage(unsigned char, unsigned short)+0x78>)
    114a:	4a09      	ldr	r2, [pc, #36]	; (1170 <adc14_msp432::rawToVoltage(unsigned char, unsigned short)+0x7c>)
    114c:	601a      	str	r2, [r3, #0]
    114e:	4b09      	ldr	r3, [pc, #36]	; (1174 <adc14_msp432::rawToVoltage(unsigned char, unsigned short)+0x80>)
    1150:	2264      	movs	r2, #100	; 0x64
    1152:	601a      	str	r2, [r3, #0]
    1154:	f7ff ffab 	bl	10ae <yahal_assert_func()>
    1158:	40533333 	.word	0x40533333
    115c:	437f0000 	.word	0x437f0000
    1160:	447fc000 	.word	0x447fc000
    1164:	457ff000 	.word	0x457ff000
    1168:	467ffc00 	.word	0x467ffc00
    116c:	200000b4 	.word	0x200000b4
    1170:	0000eb98 	.word	0x0000eb98
    1174:	200000d0 	.word	0x200000d0

00001178 <adc14_msp432::~adc14_msp432()>:
    1178:	4a02      	ldr	r2, [pc, #8]	; (1184 <adc14_msp432::~adc14_msp432()+0xc>)
    117a:	6002      	str	r2, [r0, #0]
    117c:	4a02      	ldr	r2, [pc, #8]	; (1188 <adc14_msp432::~adc14_msp432()+0x10>)
    117e:	6002      	str	r2, [r0, #0]
    1180:	4770      	bx	lr
    1182:	bf00      	nop
    1184:	0000ec18 	.word	0x0000ec18
    1188:	0000ebf4 	.word	0x0000ebf4

0000118c <adc14_msp432::adcMode(unsigned char, unsigned short)>:
    118c:	b508      	push	{r3, lr}
    118e:	2917      	cmp	r1, #23
    1190:	d80a      	bhi.n	11a8 <adc14_msp432::adcMode(unsigned char, unsigned short)+0x1c>
    1192:	f101 0334 	add.w	r3, r1, #52	; 0x34
    1196:	eb00 0043 	add.w	r0, r0, r3, lsl #1
    119a:	8082      	strh	r2, [r0, #4]
    119c:	290d      	cmp	r1, #13
    119e:	d90b      	bls.n	11b8 <adc14_msp432::adcMode(unsigned char, unsigned short)+0x2c>
    11a0:	290f      	cmp	r1, #15
    11a2:	d816      	bhi.n	11d2 <adc14_msp432::adcMode(unsigned char, unsigned short)+0x46>
    11a4:	233f      	movs	r3, #63	; 0x3f
    11a6:	e008      	b.n	11ba <adc14_msp432::adcMode(unsigned char, unsigned short)+0x2e>
    11a8:	4b0b      	ldr	r3, [pc, #44]	; (11d8 <adc14_msp432::adcMode(unsigned char, unsigned short)+0x4c>)
    11aa:	4a0c      	ldr	r2, [pc, #48]	; (11dc <adc14_msp432::adcMode(unsigned char, unsigned short)+0x50>)
    11ac:	601a      	str	r2, [r3, #0]
    11ae:	4b0c      	ldr	r3, [pc, #48]	; (11e0 <adc14_msp432::adcMode(unsigned char, unsigned short)+0x54>)
    11b0:	222e      	movs	r2, #46	; 0x2e
    11b2:	601a      	str	r2, [r3, #0]
    11b4:	f7ff ff7b 	bl	10ae <yahal_assert_func()>
    11b8:	232d      	movs	r3, #45	; 0x2d
    11ba:	1a5b      	subs	r3, r3, r1
    11bc:	f3c3 01c7 	ubfx	r1, r3, #3, #8
    11c0:	f003 0307 	and.w	r3, r3, #7
    11c4:	2203      	movs	r2, #3
    11c6:	ea43 2101 	orr.w	r1, r3, r1, lsl #8
    11ca:	4806      	ldr	r0, [pc, #24]	; (11e4 <adc14_msp432::adcMode(unsigned char, unsigned short)+0x58>)
    11cc:	f000 fb1e 	bl	180c <gpio_msp432::setSEL(unsigned short, unsigned char)>
    11d0:	bd08      	pop	{r3, pc}
    11d2:	2359      	movs	r3, #89	; 0x59
    11d4:	e7f1      	b.n	11ba <adc14_msp432::adcMode(unsigned char, unsigned short)+0x2e>
    11d6:	bf00      	nop
    11d8:	200000b4 	.word	0x200000b4
    11dc:	0000eb98 	.word	0x0000eb98
    11e0:	200000d0 	.word	0x200000d0
    11e4:	2000016c 	.word	0x2000016c

000011e8 <adc14_msp432::~adc14_msp432()>:
    11e8:	b510      	push	{r4, lr}
    11ea:	4604      	mov	r4, r0
    11ec:	4b04      	ldr	r3, [pc, #16]	; (1200 <adc14_msp432::~adc14_msp432()+0x18>)
    11ee:	6003      	str	r3, [r0, #0]
    11f0:	4b04      	ldr	r3, [pc, #16]	; (1204 <adc14_msp432::~adc14_msp432()+0x1c>)
    11f2:	6003      	str	r3, [r0, #0]
    11f4:	21a0      	movs	r1, #160	; 0xa0
    11f6:	f003 fcc2 	bl	4b7e <operator delete(void*, unsigned int)>
    11fa:	4620      	mov	r0, r4
    11fc:	bd10      	pop	{r4, pc}
    11fe:	bf00      	nop
    1200:	0000ec18 	.word	0x0000ec18
    1204:	0000ebf4 	.word	0x0000ebf4

00001208 <adc14_msp432::adcStopScan()>:
    1208:	4b05      	ldr	r3, [pc, #20]	; (1220 <adc14_msp432::adcStopScan()+0x18>)
    120a:	791b      	ldrb	r3, [r3, #4]
    120c:	b13b      	cbz	r3, 121e <adc14_msp432::adcStopScan()+0x16>
    120e:	2300      	movs	r3, #0
    1210:	4a03      	ldr	r2, [pc, #12]	; (1220 <adc14_msp432::adcStopScan()+0x18>)
    1212:	7113      	strb	r3, [r2, #4]
    1214:	e000      	b.n	1218 <adc14_msp432::adcStopScan()+0x10>
    1216:	3301      	adds	r3, #1
    1218:	f5b3 7f7a 	cmp.w	r3, #1000	; 0x3e8
    121c:	dbfb      	blt.n	1216 <adc14_msp432::adcStopScan()+0xe>
    121e:	4770      	bx	lr
    1220:	42240000 	.word	0x42240000

00001224 <adc14_msp432::adc14_msp432()>:
    1224:	b510      	push	{r4, lr}
    1226:	4604      	mov	r4, r0
    1228:	4b12      	ldr	r3, [pc, #72]	; (1274 <adc14_msp432::adc14_msp432()+0x50>)
    122a:	6003      	str	r3, [r0, #0]
    122c:	4b12      	ldr	r3, [pc, #72]	; (1278 <adc14_msp432::adc14_msp432()+0x54>)
    122e:	6003      	str	r3, [r0, #0]
    1230:	f7ff ffea 	bl	1208 <adc14_msp432::adcStopScan()>
    1234:	2300      	movs	r3, #0
    1236:	e009      	b.n	124c <adc14_msp432::adc14_msp432()+0x28>
    1238:	4a10      	ldr	r2, [pc, #64]	; (127c <adc14_msp432::adc14_msp432()+0x58>)
    123a:	1d99      	adds	r1, r3, #6
    123c:	f842 3021 	str.w	r3, [r2, r1, lsl #2]
    1240:	f852 0021 	ldr.w	r0, [r2, r1, lsl #2]
    1244:	f842 0021 	str.w	r0, [r2, r1, lsl #2]
    1248:	3301      	adds	r3, #1
    124a:	b2db      	uxtb	r3, r3
    124c:	2b17      	cmp	r3, #23
    124e:	d9f3      	bls.n	1238 <adc14_msp432::adc14_msp432()+0x14>
    1250:	2200      	movs	r2, #0
    1252:	f8a4 209c 	strh.w	r2, [r4, #156]	; 0x9c
    1256:	4b09      	ldr	r3, [pc, #36]	; (127c <adc14_msp432::adc14_msp432()+0x58>)
    1258:	4909      	ldr	r1, [pc, #36]	; (1280 <adc14_msp432::adc14_msp432()+0x5c>)
    125a:	6019      	str	r1, [r3, #0]
    125c:	6859      	ldr	r1, [r3, #4]
    125e:	6059      	str	r1, [r3, #4]
    1260:	f8c3 213c 	str.w	r2, [r3, #316]	; 0x13c
    1264:	f8c3 2140 	str.w	r2, [r3, #320]	; 0x140
    1268:	4b06      	ldr	r3, [pc, #24]	; (1284 <adc14_msp432::adc14_msp432()+0x60>)
    126a:	f04f 7280 	mov.w	r2, #16777216	; 0x1000000
    126e:	601a      	str	r2, [r3, #0]
    1270:	4620      	mov	r0, r4
    1272:	bd10      	pop	{r4, pc}
    1274:	0000ebf4 	.word	0x0000ebf4
    1278:	0000ec18 	.word	0x0000ec18
    127c:	40012000 	.word	0x40012000
    1280:	44204410 	.word	0x44204410
    1284:	e000e100 	.word	0xe000e100

00001288 <__static_initialization_and_destruction_0(int, int)>:
    1288:	2801      	cmp	r0, #1
    128a:	d000      	beq.n	128e <__static_initialization_and_destruction_0(int, int)+0x6>
    128c:	4770      	bx	lr
    128e:	f64f 73ff 	movw	r3, #65535	; 0xffff
    1292:	4299      	cmp	r1, r3
    1294:	d1fa      	bne.n	128c <__static_initialization_and_destruction_0(int, int)+0x4>
    1296:	b510      	push	{r4, lr}
    1298:	4c04      	ldr	r4, [pc, #16]	; (12ac <__static_initialization_and_destruction_0(int, int)+0x24>)
    129a:	4620      	mov	r0, r4
    129c:	f7ff ffc2 	bl	1224 <adc14_msp432::adc14_msp432()>
    12a0:	4a03      	ldr	r2, [pc, #12]	; (12b0 <__static_initialization_and_destruction_0(int, int)+0x28>)
    12a2:	4904      	ldr	r1, [pc, #16]	; (12b4 <__static_initialization_and_destruction_0(int, int)+0x2c>)
    12a4:	4620      	mov	r0, r4
    12a6:	f003 fc65 	bl	4b74 <__aeabi_atexit>
    12aa:	bd10      	pop	{r4, pc}
    12ac:	200005d8 	.word	0x200005d8
    12b0:	20000000 	.word	0x20000000
    12b4:	00001179 	.word	0x00001179

000012b8 <adc14_msp432::set_resolution(unsigned short)>:
    12b8:	b538      	push	{r3, r4, r5, lr}
    12ba:	4605      	mov	r5, r0
    12bc:	460c      	mov	r4, r1
    12be:	f7ff ffa3 	bl	1208 <adc14_msp432::adcStopScan()>
    12c2:	4a1c      	ldr	r2, [pc, #112]	; (1334 <adc14_msp432::set_resolution(unsigned short)+0x7c>)
    12c4:	6853      	ldr	r3, [r2, #4]
    12c6:	f023 0330 	bic.w	r3, r3, #48	; 0x30
    12ca:	6053      	str	r3, [r2, #4]
    12cc:	1e61      	subs	r1, r4, #1
    12ce:	2907      	cmp	r1, #7
    12d0:	d827      	bhi.n	1322 <adc14_msp432::set_resolution(unsigned short)+0x6a>
    12d2:	e8df f001 	tbb	[pc, r1]
    12d6:	0b04      	.short	0x0b04
    12d8:	26261426 	.word	0x26261426
    12dc:	1d26      	.short	0x1d26
    12de:	4b15      	ldr	r3, [pc, #84]	; (1334 <adc14_msp432::set_resolution(unsigned short)+0x7c>)
    12e0:	685a      	ldr	r2, [r3, #4]
    12e2:	605a      	str	r2, [r3, #4]
    12e4:	2301      	movs	r3, #1
    12e6:	f8a5 309c 	strh.w	r3, [r5, #156]	; 0x9c
    12ea:	bd38      	pop	{r3, r4, r5, pc}
    12ec:	4a11      	ldr	r2, [pc, #68]	; (1334 <adc14_msp432::set_resolution(unsigned short)+0x7c>)
    12ee:	6853      	ldr	r3, [r2, #4]
    12f0:	f043 0310 	orr.w	r3, r3, #16
    12f4:	6053      	str	r3, [r2, #4]
    12f6:	2302      	movs	r3, #2
    12f8:	f8a5 309c 	strh.w	r3, [r5, #156]	; 0x9c
    12fc:	e7f5      	b.n	12ea <adc14_msp432::set_resolution(unsigned short)+0x32>
    12fe:	4a0d      	ldr	r2, [pc, #52]	; (1334 <adc14_msp432::set_resolution(unsigned short)+0x7c>)
    1300:	6853      	ldr	r3, [r2, #4]
    1302:	f043 0320 	orr.w	r3, r3, #32
    1306:	6053      	str	r3, [r2, #4]
    1308:	2304      	movs	r3, #4
    130a:	f8a5 309c 	strh.w	r3, [r5, #156]	; 0x9c
    130e:	e7ec      	b.n	12ea <adc14_msp432::set_resolution(unsigned short)+0x32>
    1310:	4a08      	ldr	r2, [pc, #32]	; (1334 <adc14_msp432::set_resolution(unsigned short)+0x7c>)
    1312:	6853      	ldr	r3, [r2, #4]
    1314:	f043 0330 	orr.w	r3, r3, #48	; 0x30
    1318:	6053      	str	r3, [r2, #4]
    131a:	2308      	movs	r3, #8
    131c:	f8a5 309c 	strh.w	r3, [r5, #156]	; 0x9c
    1320:	e7e3      	b.n	12ea <adc14_msp432::set_resolution(unsigned short)+0x32>
    1322:	4b05      	ldr	r3, [pc, #20]	; (1338 <adc14_msp432::set_resolution(unsigned short)+0x80>)
    1324:	4a05      	ldr	r2, [pc, #20]	; (133c <adc14_msp432::set_resolution(unsigned short)+0x84>)
    1326:	601a      	str	r2, [r3, #0]
    1328:	4b05      	ldr	r3, [pc, #20]	; (1340 <adc14_msp432::set_resolution(unsigned short)+0x88>)
    132a:	22c5      	movs	r2, #197	; 0xc5
    132c:	601a      	str	r2, [r3, #0]
    132e:	f7ff febe 	bl	10ae <yahal_assert_func()>
    1332:	bf00      	nop
    1334:	40012000 	.word	0x40012000
    1338:	200000b4 	.word	0x200000b4
    133c:	0000eb98 	.word	0x0000eb98
    1340:	200000d0 	.word	0x200000d0

00001344 <adc14_msp432::adcReadRaw(unsigned char)>:
    1344:	b510      	push	{r4, lr}
    1346:	2917      	cmp	r1, #23
    1348:	d82c      	bhi.n	13a4 <adc14_msp432::adcReadRaw(unsigned char)+0x60>
    134a:	460c      	mov	r4, r1
    134c:	f8b0 209c 	ldrh.w	r2, [r0, #156]	; 0x9c
    1350:	f101 0334 	add.w	r3, r1, #52	; 0x34
    1354:	eb00 0343 	add.w	r3, r0, r3, lsl #1
    1358:	8899      	ldrh	r1, [r3, #4]
    135a:	428a      	cmp	r2, r1
    135c:	d02a      	beq.n	13b4 <adc14_msp432::adcReadRaw(unsigned char)+0x70>
    135e:	f7ff ffab 	bl	12b8 <adc14_msp432::set_resolution(unsigned short)>
    1362:	4b16      	ldr	r3, [pc, #88]	; (13bc <adc14_msp432::adcReadRaw(unsigned char)+0x78>)
    1364:	685a      	ldr	r2, [r3, #4]
    1366:	f422 12f8 	bic.w	r2, r2, #2031616	; 0x1f0000
    136a:	605a      	str	r2, [r3, #4]
    136c:	685a      	ldr	r2, [r3, #4]
    136e:	ea42 4204 	orr.w	r2, r2, r4, lsl #16
    1372:	605a      	str	r2, [r3, #4]
    1374:	681a      	ldr	r2, [r3, #0]
    1376:	f422 22c0 	bic.w	r2, r2, #393216	; 0x60000
    137a:	601a      	str	r2, [r3, #0]
    137c:	681a      	ldr	r2, [r3, #0]
    137e:	601a      	str	r2, [r3, #0]
    1380:	681a      	ldr	r2, [r3, #0]
    1382:	f042 0203 	orr.w	r2, r2, #3
    1386:	601a      	str	r2, [r3, #0]
    1388:	4b0d      	ldr	r3, [pc, #52]	; (13c0 <adc14_msp432::adcReadRaw(unsigned char)+0x7c>)
    138a:	f893 3040 	ldrb.w	r3, [r3, #64]	; 0x40
    138e:	2b00      	cmp	r3, #0
    1390:	d1fa      	bne.n	1388 <adc14_msp432::adcReadRaw(unsigned char)+0x44>
    1392:	3426      	adds	r4, #38	; 0x26
    1394:	f103 4380 	add.w	r3, r3, #1073741824	; 0x40000000
    1398:	f503 3390 	add.w	r3, r3, #73728	; 0x12000
    139c:	f853 0024 	ldr.w	r0, [r3, r4, lsl #2]
    13a0:	b280      	uxth	r0, r0
    13a2:	bd10      	pop	{r4, pc}
    13a4:	4b07      	ldr	r3, [pc, #28]	; (13c4 <adc14_msp432::adcReadRaw(unsigned char)+0x80>)
    13a6:	4a08      	ldr	r2, [pc, #32]	; (13c8 <adc14_msp432::adcReadRaw(unsigned char)+0x84>)
    13a8:	601a      	str	r2, [r3, #0]
    13aa:	4b08      	ldr	r3, [pc, #32]	; (13cc <adc14_msp432::adcReadRaw(unsigned char)+0x88>)
    13ac:	2245      	movs	r2, #69	; 0x45
    13ae:	601a      	str	r2, [r3, #0]
    13b0:	f7ff fe7d 	bl	10ae <yahal_assert_func()>
    13b4:	f7ff ff28 	bl	1208 <adc14_msp432::adcStopScan()>
    13b8:	e7d3      	b.n	1362 <adc14_msp432::adcReadRaw(unsigned char)+0x1e>
    13ba:	bf00      	nop
    13bc:	40012000 	.word	0x40012000
    13c0:	42240000 	.word	0x42240000
    13c4:	200000b4 	.word	0x200000b4
    13c8:	0000eb98 	.word	0x0000eb98
    13cc:	200000d0 	.word	0x200000d0

000013d0 <adc14_msp432::handleIrq(unsigned long)>:
    13d0:	b538      	push	{r3, r4, r5, lr}
    13d2:	4605      	mov	r5, r0
    13d4:	460c      	mov	r4, r1
    13d6:	290b      	cmp	r1, #11
    13d8:	d90e      	bls.n	13f8 <adc14_msp432::handleIrq(unsigned long)+0x28>
    13da:	084c      	lsrs	r4, r1, #1
    13dc:	3c06      	subs	r4, #6
    13de:	eb00 0084 	add.w	r0, r0, r4, lsl #2
    13e2:	6843      	ldr	r3, [r0, #4]
    13e4:	b13b      	cbz	r3, 13f6 <adc14_msp432::handleIrq(unsigned long)+0x26>
    13e6:	f104 0126 	add.w	r1, r4, #38	; 0x26
    13ea:	4a1e      	ldr	r2, [pc, #120]	; (1464 <adc14_msp432::handleIrq(unsigned long)+0x94>)
    13ec:	f852 1021 	ldr.w	r1, [r2, r1, lsl #2]
    13f0:	b289      	uxth	r1, r1
    13f2:	b2a0      	uxth	r0, r4
    13f4:	4798      	blx	r3
    13f6:	bd38      	pop	{r3, r4, r5, pc}
    13f8:	f7ff ff06 	bl	1208 <adc14_msp432::adcStopScan()>
    13fc:	f895 206a 	ldrb.w	r2, [r5, #106]	; 0x6a
    1400:	4b18      	ldr	r3, [pc, #96]	; (1464 <adc14_msp432::handleIrq(unsigned long)+0x94>)
    1402:	3206      	adds	r2, #6
    1404:	f853 1022 	ldr.w	r1, [r3, r2, lsl #2]
    1408:	f421 4180 	bic.w	r1, r1, #16384	; 0x4000
    140c:	f843 1022 	str.w	r1, [r3, r2, lsl #2]
    1410:	f8d3 2140 	ldr.w	r2, [r3, #320]	; 0x140
    1414:	f022 020e 	bic.w	r2, r2, #14
    1418:	f8c3 2140 	str.w	r2, [r3, #320]	; 0x140
    141c:	f8d3 2150 	ldr.w	r2, [r3, #336]	; 0x150
    1420:	f042 020e 	orr.w	r2, r2, #14
    1424:	f8c3 2150 	str.w	r2, [r3, #336]	; 0x150
    1428:	2c08      	cmp	r4, #8
    142a:	d016      	beq.n	145a <adc14_msp432::handleIrq(unsigned long)+0x8a>
    142c:	2c0a      	cmp	r4, #10
    142e:	d016      	beq.n	145e <adc14_msp432::handleIrq(unsigned long)+0x8e>
    1430:	2c06      	cmp	r4, #6
    1432:	d010      	beq.n	1456 <adc14_msp432::handleIrq(unsigned long)+0x86>
    1434:	2100      	movs	r1, #0
    1436:	6e6a      	ldr	r2, [r5, #100]	; 0x64
    1438:	b13a      	cbz	r2, 144a <adc14_msp432::handleIrq(unsigned long)+0x7a>
    143a:	f895 306a 	ldrb.w	r3, [r5, #106]	; 0x6a
    143e:	3326      	adds	r3, #38	; 0x26
    1440:	4808      	ldr	r0, [pc, #32]	; (1464 <adc14_msp432::handleIrq(unsigned long)+0x94>)
    1442:	f850 0023 	ldr.w	r0, [r0, r3, lsl #2]
    1446:	b280      	uxth	r0, r0
    1448:	4790      	blx	r2
    144a:	4a06      	ldr	r2, [pc, #24]	; (1464 <adc14_msp432::handleIrq(unsigned long)+0x94>)
    144c:	6813      	ldr	r3, [r2, #0]
    144e:	f043 0303 	orr.w	r3, r3, #3
    1452:	6013      	str	r3, [r2, #0]
    1454:	e7cf      	b.n	13f6 <adc14_msp432::handleIrq(unsigned long)+0x26>
    1456:	2102      	movs	r1, #2
    1458:	e7ed      	b.n	1436 <adc14_msp432::handleIrq(unsigned long)+0x66>
    145a:	2101      	movs	r1, #1
    145c:	e7eb      	b.n	1436 <adc14_msp432::handleIrq(unsigned long)+0x66>
    145e:	2104      	movs	r1, #4
    1460:	e7e9      	b.n	1436 <adc14_msp432::handleIrq(unsigned long)+0x66>
    1462:	bf00      	nop
    1464:	40012000 	.word	0x40012000

00001468 <ADC14_IRQHandler>:
    1468:	b508      	push	{r3, lr}
    146a:	4b03      	ldr	r3, [pc, #12]	; (1478 <ADC14_IRQHandler+0x10>)
    146c:	f8d3 1154 	ldr.w	r1, [r3, #340]	; 0x154
    1470:	4802      	ldr	r0, [pc, #8]	; (147c <ADC14_IRQHandler+0x14>)
    1472:	f7ff ffad 	bl	13d0 <adc14_msp432::handleIrq(unsigned long)>
    1476:	bd08      	pop	{r3, pc}
    1478:	40012000 	.word	0x40012000
    147c:	200005d8 	.word	0x200005d8

00001480 <_GLOBAL__sub_I__ZN12adc14_msp4324instE>:
    1480:	b508      	push	{r3, lr}
    1482:	f64f 71ff 	movw	r1, #65535	; 0xffff
    1486:	2001      	movs	r0, #1
    1488:	f7ff fefe 	bl	1288 <__static_initialization_and_destruction_0(int, int)>
    148c:	bd08      	pop	{r3, pc}
	...

00001490 <__NVIC_EnableIRQ>:
    1490:	2800      	cmp	r0, #0
    1492:	db07      	blt.n	14a4 <__NVIC_EnableIRQ+0x14>
    1494:	f000 021f 	and.w	r2, r0, #31
    1498:	0940      	lsrs	r0, r0, #5
    149a:	2301      	movs	r3, #1
    149c:	4093      	lsls	r3, r2
    149e:	4a02      	ldr	r2, [pc, #8]	; (14a8 <__NVIC_EnableIRQ+0x18>)
    14a0:	f842 3020 	str.w	r3, [r2, r0, lsl #2]
    14a4:	4770      	bx	lr
    14a6:	bf00      	nop
    14a8:	e000e100 	.word	0xe000e100

000014ac <yahal_assert_func()>:
    14ac:	e7fe      	b.n	14ac <yahal_assert_func()>
	...

000014b0 <gpio_msp432::gpioRead(unsigned short)>:
    14b0:	b508      	push	{r3, lr}
    14b2:	0a0b      	lsrs	r3, r1, #8
    14b4:	1e5a      	subs	r2, r3, #1
    14b6:	b2d2      	uxtb	r2, r2
    14b8:	2a09      	cmp	r2, #9
    14ba:	d80c      	bhi.n	14d6 <gpio_msp432::gpioRead(unsigned short)+0x26>
    14bc:	b2c9      	uxtb	r1, r1
    14be:	2907      	cmp	r1, #7
    14c0:	d809      	bhi.n	14d6 <gpio_msp432::gpioRead(unsigned short)+0x26>
    14c2:	3b01      	subs	r3, #1
    14c4:	4a08      	ldr	r2, [pc, #32]	; (14e8 <gpio_msp432::gpioRead(unsigned short)+0x38>)
    14c6:	f852 3023 	ldr.w	r3, [r2, r3, lsl #2]
    14ca:	f813 0021 	ldrb.w	r0, [r3, r1, lsl #2]
    14ce:	3800      	subs	r0, #0
    14d0:	bf18      	it	ne
    14d2:	2001      	movne	r0, #1
    14d4:	bd08      	pop	{r3, pc}
    14d6:	4b05      	ldr	r3, [pc, #20]	; (14ec <gpio_msp432::gpioRead(unsigned short)+0x3c>)
    14d8:	4a05      	ldr	r2, [pc, #20]	; (14f0 <gpio_msp432::gpioRead(unsigned short)+0x40>)
    14da:	601a      	str	r2, [r3, #0]
    14dc:	4b05      	ldr	r3, [pc, #20]	; (14f4 <gpio_msp432::gpioRead(unsigned short)+0x44>)
    14de:	2233      	movs	r2, #51	; 0x33
    14e0:	601a      	str	r2, [r3, #0]
    14e2:	f7ff ffe3 	bl	14ac <yahal_assert_func()>
    14e6:	bf00      	nop
    14e8:	2000000c 	.word	0x2000000c
    14ec:	200000b8 	.word	0x200000b8
    14f0:	0000ec34 	.word	0x0000ec34
    14f4:	200000d4 	.word	0x200000d4

000014f8 <gpio_msp432::gpioWrite(unsigned short, bool)>:
    14f8:	b510      	push	{r4, lr}
    14fa:	0a0b      	lsrs	r3, r1, #8
    14fc:	f103 3cff 	add.w	ip, r3, #4294967295
    1500:	fa5f fc8c 	uxtb.w	ip, ip
    1504:	f1bc 0f09 	cmp.w	ip, #9
    1508:	d82a      	bhi.n	1560 <gpio_msp432::gpioWrite(unsigned short, bool)+0x68>
    150a:	fa5f fe81 	uxtb.w	lr, r1
    150e:	f1be 0f07 	cmp.w	lr, #7
    1512:	d825      	bhi.n	1560 <gpio_msp432::gpioWrite(unsigned short, bool)+0x68>
    1514:	3b01      	subs	r3, #1
    1516:	eb00 0c03 	add.w	ip, r0, r3
    151a:	f89c c3fe 	ldrb.w	ip, [ip, #1022]	; 0x3fe
    151e:	fa4c fc01 	asr.w	ip, ip, r1
    1522:	f01c 0f01 	tst.w	ip, #1
    1526:	d040      	beq.n	15aa <gpio_msp432::gpioWrite(unsigned short, bool)+0xb2>
    1528:	4418      	add	r0, r3
    152a:	f890 0408 	ldrb.w	r0, [r0, #1032]	; 0x408
    152e:	fa40 f101 	asr.w	r1, r0, r1
    1532:	f011 0f01 	tst.w	r1, #1
    1536:	d02e      	beq.n	1596 <gpio_msp432::gpioWrite(unsigned short, bool)+0x9e>
    1538:	b1d2      	cbz	r2, 1570 <gpio_msp432::gpioWrite(unsigned short, bool)+0x78>
    153a:	4a3d      	ldr	r2, [pc, #244]	; (1630 <gpio_msp432::gpioWrite(unsigned short, bool)+0x138>)
    153c:	f852 0023 	ldr.w	r0, [r2, r3, lsl #2]
    1540:	ea4f 0e8e 	mov.w	lr, lr, lsl #2
    1544:	f10e 0180 	add.w	r1, lr, #128	; 0x80
    1548:	f04f 0c00 	mov.w	ip, #0
    154c:	f800 c001 	strb.w	ip, [r0, r1]
    1550:	f852 3023 	ldr.w	r3, [r2, r3, lsl #2]
    1554:	f10e 0e40 	add.w	lr, lr, #64	; 0x40
    1558:	2201      	movs	r2, #1
    155a:	f803 200e 	strb.w	r2, [r3, lr]
    155e:	e023      	b.n	15a8 <gpio_msp432::gpioWrite(unsigned short, bool)+0xb0>
    1560:	4b34      	ldr	r3, [pc, #208]	; (1634 <gpio_msp432::gpioWrite(unsigned short, bool)+0x13c>)
    1562:	4a35      	ldr	r2, [pc, #212]	; (1638 <gpio_msp432::gpioWrite(unsigned short, bool)+0x140>)
    1564:	601a      	str	r2, [r3, #0]
    1566:	4b35      	ldr	r3, [pc, #212]	; (163c <gpio_msp432::gpioWrite(unsigned short, bool)+0x144>)
    1568:	223a      	movs	r2, #58	; 0x3a
    156a:	601a      	str	r2, [r3, #0]
    156c:	f7ff ff9e 	bl	14ac <yahal_assert_func()>
    1570:	4a2f      	ldr	r2, [pc, #188]	; (1630 <gpio_msp432::gpioWrite(unsigned short, bool)+0x138>)
    1572:	f852 0023 	ldr.w	r0, [r2, r3, lsl #2]
    1576:	ea4f 0e8e 	mov.w	lr, lr, lsl #2
    157a:	f10e 0140 	add.w	r1, lr, #64	; 0x40
    157e:	f04f 0c00 	mov.w	ip, #0
    1582:	f800 c001 	strb.w	ip, [r0, r1]
    1586:	f852 3023 	ldr.w	r3, [r2, r3, lsl #2]
    158a:	f10e 0e80 	add.w	lr, lr, #128	; 0x80
    158e:	2201      	movs	r2, #1
    1590:	f803 200e 	strb.w	r2, [r3, lr]
    1594:	e008      	b.n	15a8 <gpio_msp432::gpioWrite(unsigned short, bool)+0xb0>
    1596:	4926      	ldr	r1, [pc, #152]	; (1630 <gpio_msp432::gpioWrite(unsigned short, bool)+0x138>)
    1598:	f851 1023 	ldr.w	r1, [r1, r3, lsl #2]
    159c:	ea4f 038e 	mov.w	r3, lr, lsl #2
    15a0:	3380      	adds	r3, #128	; 0x80
    15a2:	f082 0201 	eor.w	r2, r2, #1
    15a6:	54ca      	strb	r2, [r1, r3]
    15a8:	bd10      	pop	{r4, pc}
    15aa:	eb00 0c03 	add.w	ip, r0, r3
    15ae:	f89c c3f4 	ldrb.w	ip, [ip, #1012]	; 0x3f4
    15b2:	fa4c fc01 	asr.w	ip, ip, r1
    15b6:	f01c 0f01 	tst.w	ip, #1
    15ba:	d030      	beq.n	161e <gpio_msp432::gpioWrite(unsigned short, bool)+0x126>
    15bc:	4418      	add	r0, r3
    15be:	f890 0412 	ldrb.w	r0, [r0, #1042]	; 0x412
    15c2:	fa40 f101 	asr.w	r1, r0, r1
    15c6:	f011 0f01 	tst.w	r1, #1
    15ca:	d020      	beq.n	160e <gpio_msp432::gpioWrite(unsigned short, bool)+0x116>
    15cc:	b17a      	cbz	r2, 15ee <gpio_msp432::gpioWrite(unsigned short, bool)+0xf6>
    15ce:	4918      	ldr	r1, [pc, #96]	; (1630 <gpio_msp432::gpioWrite(unsigned short, bool)+0x138>)
    15d0:	ea4f 0e8e 	mov.w	lr, lr, lsl #2
    15d4:	f10e 0040 	add.w	r0, lr, #64	; 0x40
    15d8:	2201      	movs	r2, #1
    15da:	f851 4023 	ldr.w	r4, [r1, r3, lsl #2]
    15de:	5422      	strb	r2, [r4, r0]
    15e0:	f851 3023 	ldr.w	r3, [r1, r3, lsl #2]
    15e4:	f10e 0e80 	add.w	lr, lr, #128	; 0x80
    15e8:	f803 200e 	strb.w	r2, [r3, lr]
    15ec:	e7dc      	b.n	15a8 <gpio_msp432::gpioWrite(unsigned short, bool)+0xb0>
    15ee:	4910      	ldr	r1, [pc, #64]	; (1630 <gpio_msp432::gpioWrite(unsigned short, bool)+0x138>)
    15f0:	ea4f 0e8e 	mov.w	lr, lr, lsl #2
    15f4:	f10e 0080 	add.w	r0, lr, #128	; 0x80
    15f8:	2200      	movs	r2, #0
    15fa:	f851 4023 	ldr.w	r4, [r1, r3, lsl #2]
    15fe:	5422      	strb	r2, [r4, r0]
    1600:	f851 3023 	ldr.w	r3, [r1, r3, lsl #2]
    1604:	f10e 0e40 	add.w	lr, lr, #64	; 0x40
    1608:	f803 200e 	strb.w	r2, [r3, lr]
    160c:	e7cc      	b.n	15a8 <gpio_msp432::gpioWrite(unsigned short, bool)+0xb0>
    160e:	4908      	ldr	r1, [pc, #32]	; (1630 <gpio_msp432::gpioWrite(unsigned short, bool)+0x138>)
    1610:	f851 1023 	ldr.w	r1, [r1, r3, lsl #2]
    1614:	ea4f 038e 	mov.w	r3, lr, lsl #2
    1618:	3380      	adds	r3, #128	; 0x80
    161a:	54ca      	strb	r2, [r1, r3]
    161c:	e7c4      	b.n	15a8 <gpio_msp432::gpioWrite(unsigned short, bool)+0xb0>
    161e:	4904      	ldr	r1, [pc, #16]	; (1630 <gpio_msp432::gpioWrite(unsigned short, bool)+0x138>)
    1620:	f851 1023 	ldr.w	r1, [r1, r3, lsl #2]
    1624:	ea4f 038e 	mov.w	r3, lr, lsl #2
    1628:	3340      	adds	r3, #64	; 0x40
    162a:	54ca      	strb	r2, [r1, r3]
    162c:	e7bc      	b.n	15a8 <gpio_msp432::gpioWrite(unsigned short, bool)+0xb0>
    162e:	bf00      	nop
    1630:	2000000c 	.word	0x2000000c
    1634:	200000b8 	.word	0x200000b8
    1638:	0000ec34 	.word	0x0000ec34
    163c:	200000d4 	.word	0x200000d4

00001640 <gpio_msp432::gpioToggle(unsigned short)>:
    1640:	b508      	push	{r3, lr}
    1642:	0a0b      	lsrs	r3, r1, #8
    1644:	1e5a      	subs	r2, r3, #1
    1646:	b2d2      	uxtb	r2, r2
    1648:	2a09      	cmp	r2, #9
    164a:	d811      	bhi.n	1670 <gpio_msp432::gpioToggle(unsigned short)+0x30>
    164c:	fa5f fc81 	uxtb.w	ip, r1
    1650:	f1bc 0f07 	cmp.w	ip, #7
    1654:	d80c      	bhi.n	1670 <gpio_msp432::gpioToggle(unsigned short)+0x30>
    1656:	3b01      	subs	r3, #1
    1658:	4a09      	ldr	r2, [pc, #36]	; (1680 <gpio_msp432::gpioToggle(unsigned short)+0x40>)
    165a:	f852 3023 	ldr.w	r3, [r2, r3, lsl #2]
    165e:	f813 202c 	ldrb.w	r2, [r3, ip, lsl #2]
    1662:	6803      	ldr	r3, [r0, #0]
    1664:	689b      	ldr	r3, [r3, #8]
    1666:	fab2 f282 	clz	r2, r2
    166a:	0952      	lsrs	r2, r2, #5
    166c:	4798      	blx	r3
    166e:	bd08      	pop	{r3, pc}
    1670:	4b04      	ldr	r3, [pc, #16]	; (1684 <gpio_msp432::gpioToggle(unsigned short)+0x44>)
    1672:	4a05      	ldr	r2, [pc, #20]	; (1688 <gpio_msp432::gpioToggle(unsigned short)+0x48>)
    1674:	601a      	str	r2, [r3, #0]
    1676:	4b05      	ldr	r3, [pc, #20]	; (168c <gpio_msp432::gpioToggle(unsigned short)+0x4c>)
    1678:	225e      	movs	r2, #94	; 0x5e
    167a:	601a      	str	r2, [r3, #0]
    167c:	f7ff ff16 	bl	14ac <yahal_assert_func()>
    1680:	2000000c 	.word	0x2000000c
    1684:	200000b8 	.word	0x200000b8
    1688:	0000ec34 	.word	0x0000ec34
    168c:	200000d4 	.word	0x200000d4

00001690 <gpio_msp432::gpioEnableIrq(unsigned short)>:
    1690:	b510      	push	{r4, lr}
    1692:	0a08      	lsrs	r0, r1, #8
    1694:	1e43      	subs	r3, r0, #1
    1696:	b2db      	uxtb	r3, r3
    1698:	2b05      	cmp	r3, #5
    169a:	d818      	bhi.n	16ce <gpio_msp432::gpioEnableIrq(unsigned short)+0x3e>
    169c:	b2c9      	uxtb	r1, r1
    169e:	2907      	cmp	r1, #7
    16a0:	d815      	bhi.n	16ce <gpio_msp432::gpioEnableIrq(unsigned short)+0x3e>
    16a2:	1e42      	subs	r2, r0, #1
    16a4:	4b0e      	ldr	r3, [pc, #56]	; (16e0 <gpio_msp432::gpioEnableIrq(unsigned short)+0x50>)
    16a6:	0089      	lsls	r1, r1, #2
    16a8:	f501 7c60 	add.w	ip, r1, #896	; 0x380
    16ac:	f04f 0e00 	mov.w	lr, #0
    16b0:	f853 4022 	ldr.w	r4, [r3, r2, lsl #2]
    16b4:	f804 e00c 	strb.w	lr, [r4, ip]
    16b8:	f853 3022 	ldr.w	r3, [r3, r2, lsl #2]
    16bc:	f501 7150 	add.w	r1, r1, #832	; 0x340
    16c0:	2201      	movs	r2, #1
    16c2:	545a      	strb	r2, [r3, r1]
    16c4:	3022      	adds	r0, #34	; 0x22
    16c6:	b240      	sxtb	r0, r0
    16c8:	f7ff fee2 	bl	1490 <__NVIC_EnableIRQ>
    16cc:	bd10      	pop	{r4, pc}
    16ce:	4b05      	ldr	r3, [pc, #20]	; (16e4 <gpio_msp432::gpioEnableIrq(unsigned short)+0x54>)
    16d0:	4a05      	ldr	r2, [pc, #20]	; (16e8 <gpio_msp432::gpioEnableIrq(unsigned short)+0x58>)
    16d2:	601a      	str	r2, [r3, #0]
    16d4:	4b05      	ldr	r3, [pc, #20]	; (16ec <gpio_msp432::gpioEnableIrq(unsigned short)+0x5c>)
    16d6:	2290      	movs	r2, #144	; 0x90
    16d8:	601a      	str	r2, [r3, #0]
    16da:	f7ff fee7 	bl	14ac <yahal_assert_func()>
    16de:	bf00      	nop
    16e0:	2000000c 	.word	0x2000000c
    16e4:	200000b8 	.word	0x200000b8
    16e8:	0000ec34 	.word	0x0000ec34
    16ec:	200000d4 	.word	0x200000d4

000016f0 <gpio_msp432::gpioDisableIrq(unsigned short)>:
    16f0:	b508      	push	{r3, lr}
    16f2:	0a0b      	lsrs	r3, r1, #8
    16f4:	1e5a      	subs	r2, r3, #1
    16f6:	b2d2      	uxtb	r2, r2
    16f8:	2a05      	cmp	r2, #5
    16fa:	d80c      	bhi.n	1716 <gpio_msp432::gpioDisableIrq(unsigned short)+0x26>
    16fc:	b2c9      	uxtb	r1, r1
    16fe:	2907      	cmp	r1, #7
    1700:	d809      	bhi.n	1716 <gpio_msp432::gpioDisableIrq(unsigned short)+0x26>
    1702:	3b01      	subs	r3, #1
    1704:	4a08      	ldr	r2, [pc, #32]	; (1728 <gpio_msp432::gpioDisableIrq(unsigned short)+0x38>)
    1706:	f852 3023 	ldr.w	r3, [r2, r3, lsl #2]
    170a:	0089      	lsls	r1, r1, #2
    170c:	f501 7150 	add.w	r1, r1, #832	; 0x340
    1710:	2200      	movs	r2, #0
    1712:	545a      	strb	r2, [r3, r1]
    1714:	bd08      	pop	{r3, pc}
    1716:	4b05      	ldr	r3, [pc, #20]	; (172c <gpio_msp432::gpioDisableIrq(unsigned short)+0x3c>)
    1718:	4a05      	ldr	r2, [pc, #20]	; (1730 <gpio_msp432::gpioDisableIrq(unsigned short)+0x40>)
    171a:	601a      	str	r2, [r3, #0]
    171c:	4b05      	ldr	r3, [pc, #20]	; (1734 <gpio_msp432::gpioDisableIrq(unsigned short)+0x44>)
    171e:	229a      	movs	r2, #154	; 0x9a
    1720:	601a      	str	r2, [r3, #0]
    1722:	f7ff fec3 	bl	14ac <yahal_assert_func()>
    1726:	bf00      	nop
    1728:	2000000c 	.word	0x2000000c
    172c:	200000b8 	.word	0x200000b8
    1730:	0000ec34 	.word	0x0000ec34
    1734:	200000d4 	.word	0x200000d4

00001738 <std::_Function_base::~_Function_base()>:
    1738:	b510      	push	{r4, lr}
    173a:	4604      	mov	r4, r0
    173c:	6883      	ldr	r3, [r0, #8]
    173e:	b113      	cbz	r3, 1746 <std::_Function_base::~_Function_base()+0xe>
    1740:	2203      	movs	r2, #3
    1742:	4601      	mov	r1, r0
    1744:	4798      	blx	r3
    1746:	4620      	mov	r0, r4
    1748:	bd10      	pop	{r4, pc}
	...

0000174c <gpio_msp432::~gpio_msp432()>:
    174c:	b570      	push	{r4, r5, r6, lr}
    174e:	4606      	mov	r6, r0
    1750:	4605      	mov	r5, r0
    1752:	4b08      	ldr	r3, [pc, #32]	; (1774 <gpio_msp432::~gpio_msp432()+0x28>)
    1754:	f845 3b04 	str.w	r3, [r5], #4
    1758:	f500 7441 	add.w	r4, r0, #772	; 0x304
    175c:	e003      	b.n	1766 <gpio_msp432::~gpio_msp432()+0x1a>
    175e:	3c10      	subs	r4, #16
    1760:	4620      	mov	r0, r4
    1762:	f7ff ffe9 	bl	1738 <std::_Function_base::~_Function_base()>
    1766:	42a5      	cmp	r5, r4
    1768:	d1f9      	bne.n	175e <gpio_msp432::~gpio_msp432()+0x12>
    176a:	4b03      	ldr	r3, [pc, #12]	; (1778 <gpio_msp432::~gpio_msp432()+0x2c>)
    176c:	6033      	str	r3, [r6, #0]
    176e:	4630      	mov	r0, r6
    1770:	bd70      	pop	{r4, r5, r6, pc}
    1772:	bf00      	nop
    1774:	0000ecc0 	.word	0x0000ecc0
    1778:	0000ec90 	.word	0x0000ec90

0000177c <gpio_msp432::~gpio_msp432()>:
    177c:	b510      	push	{r4, lr}
    177e:	4604      	mov	r4, r0
    1780:	f7ff ffe4 	bl	174c <gpio_msp432::~gpio_msp432()>
    1784:	f240 411c 	movw	r1, #1052	; 0x41c
    1788:	4620      	mov	r0, r4
    178a:	f003 f9f8 	bl	4b7e <operator delete(void*, unsigned int)>
    178e:	4620      	mov	r0, r4
    1790:	bd10      	pop	{r4, pc}
	...

00001794 <gpio_msp432::gpio_msp432()>:
    1794:	b500      	push	{lr}
    1796:	4b0f      	ldr	r3, [pc, #60]	; (17d4 <gpio_msp432::gpio_msp432()+0x40>)
    1798:	6003      	str	r3, [r0, #0]
    179a:	4684      	mov	ip, r0
    179c:	4b0e      	ldr	r3, [pc, #56]	; (17d8 <gpio_msp432::gpio_msp432()+0x44>)
    179e:	f84c 3b04 	str.w	r3, [ip], #4
    17a2:	f04f 0e05 	mov.w	lr, #5
    17a6:	e00c      	b.n	17c2 <gpio_msp432::gpio_msp432()+0x2e>
    17a8:	2200      	movs	r2, #0
    17aa:	601a      	str	r2, [r3, #0]
    17ac:	605a      	str	r2, [r3, #4]
    17ae:	609a      	str	r2, [r3, #8]
    17b0:	60da      	str	r2, [r3, #12]
    17b2:	3901      	subs	r1, #1
    17b4:	3310      	adds	r3, #16
    17b6:	2900      	cmp	r1, #0
    17b8:	daf6      	bge.n	17a8 <gpio_msp432::gpio_msp432()+0x14>
    17ba:	f10e 3eff 	add.w	lr, lr, #4294967295
    17be:	f10c 0c80 	add.w	ip, ip, #128	; 0x80
    17c2:	f1be 0f00 	cmp.w	lr, #0
    17c6:	db02      	blt.n	17ce <gpio_msp432::gpio_msp432()+0x3a>
    17c8:	4663      	mov	r3, ip
    17ca:	2107      	movs	r1, #7
    17cc:	e7f3      	b.n	17b6 <gpio_msp432::gpio_msp432()+0x22>
    17ce:	f85d fb04 	ldr.w	pc, [sp], #4
    17d2:	bf00      	nop
    17d4:	0000ec90 	.word	0x0000ec90
    17d8:	0000ecc0 	.word	0x0000ecc0

000017dc <__static_initialization_and_destruction_0(int, int)>:
    17dc:	2801      	cmp	r0, #1
    17de:	d000      	beq.n	17e2 <__static_initialization_and_destruction_0(int, int)+0x6>
    17e0:	4770      	bx	lr
    17e2:	f64f 73ff 	movw	r3, #65535	; 0xffff
    17e6:	4299      	cmp	r1, r3
    17e8:	d1fa      	bne.n	17e0 <__static_initialization_and_destruction_0(int, int)+0x4>
    17ea:	b510      	push	{r4, lr}
    17ec:	4c04      	ldr	r4, [pc, #16]	; (1800 <__static_initialization_and_destruction_0(int, int)+0x24>)
    17ee:	4620      	mov	r0, r4
    17f0:	f7ff ffd0 	bl	1794 <gpio_msp432::gpio_msp432()>
    17f4:	4a03      	ldr	r2, [pc, #12]	; (1804 <__static_initialization_and_destruction_0(int, int)+0x28>)
    17f6:	4904      	ldr	r1, [pc, #16]	; (1808 <__static_initialization_and_destruction_0(int, int)+0x2c>)
    17f8:	4620      	mov	r0, r4
    17fa:	f003 f9bb 	bl	4b74 <__aeabi_atexit>
    17fe:	bd10      	pop	{r4, pc}
    1800:	2000016c 	.word	0x2000016c
    1804:	20000000 	.word	0x20000000
    1808:	0000174d 	.word	0x0000174d

0000180c <gpio_msp432::setSEL(unsigned short, unsigned char)>:
    180c:	b510      	push	{r4, lr}
    180e:	0a0b      	lsrs	r3, r1, #8
    1810:	1e58      	subs	r0, r3, #1
    1812:	b2c0      	uxtb	r0, r0
    1814:	2809      	cmp	r0, #9
    1816:	d815      	bhi.n	1844 <gpio_msp432::setSEL(unsigned short, unsigned char)+0x38>
    1818:	b2c9      	uxtb	r1, r1
    181a:	2907      	cmp	r1, #7
    181c:	d812      	bhi.n	1844 <gpio_msp432::setSEL(unsigned short, unsigned char)+0x38>
    181e:	3b01      	subs	r3, #1
    1820:	480c      	ldr	r0, [pc, #48]	; (1854 <gpio_msp432::setSEL(unsigned short, unsigned char)+0x48>)
    1822:	0089      	lsls	r1, r1, #2
    1824:	f501 7ca0 	add.w	ip, r1, #320	; 0x140
    1828:	f002 0e01 	and.w	lr, r2, #1
    182c:	f850 4023 	ldr.w	r4, [r0, r3, lsl #2]
    1830:	f804 e00c 	strb.w	lr, [r4, ip]
    1834:	f850 3023 	ldr.w	r3, [r0, r3, lsl #2]
    1838:	f501 71c0 	add.w	r1, r1, #384	; 0x180
    183c:	f3c2 0240 	ubfx	r2, r2, #1, #1
    1840:	545a      	strb	r2, [r3, r1]
    1842:	bd10      	pop	{r4, pc}
    1844:	4b04      	ldr	r3, [pc, #16]	; (1858 <gpio_msp432::setSEL(unsigned short, unsigned char)+0x4c>)
    1846:	4a05      	ldr	r2, [pc, #20]	; (185c <gpio_msp432::setSEL(unsigned short, unsigned char)+0x50>)
    1848:	601a      	str	r2, [r3, #0]
    184a:	4b05      	ldr	r3, [pc, #20]	; (1860 <gpio_msp432::setSEL(unsigned short, unsigned char)+0x54>)
    184c:	22aa      	movs	r2, #170	; 0xaa
    184e:	601a      	str	r2, [r3, #0]
    1850:	f7ff fe2c 	bl	14ac <yahal_assert_func()>
    1854:	2000000c 	.word	0x2000000c
    1858:	200000b8 	.word	0x200000b8
    185c:	0000ec34 	.word	0x0000ec34
    1860:	200000d4 	.word	0x200000d4

00001864 <gpio_msp432::setMode(unsigned short, unsigned short)>:
    1864:	e92d 43f8 	stmdb	sp!, {r3, r4, r5, r6, r7, r8, r9, lr}
    1868:	460e      	mov	r6, r1
    186a:	4614      	mov	r4, r2
    186c:	0a0b      	lsrs	r3, r1, #8
    186e:	b2ca      	uxtb	r2, r1
    1870:	1e59      	subs	r1, r3, #1
    1872:	b2c9      	uxtb	r1, r1
    1874:	2909      	cmp	r1, #9
    1876:	f200 8090 	bhi.w	199a <gpio_msp432::setMode(unsigned short, unsigned short)+0x136>
    187a:	4605      	mov	r5, r0
    187c:	2a07      	cmp	r2, #7
    187e:	f200 808c 	bhi.w	199a <gpio_msp432::setMode(unsigned short, unsigned short)+0x136>
    1882:	3b01      	subs	r3, #1
    1884:	eb00 0c03 	add.w	ip, r0, r3
    1888:	f89c 03fe 	ldrb.w	r0, [ip, #1022]	; 0x3fe
    188c:	2101      	movs	r1, #1
    188e:	40b1      	lsls	r1, r6
    1890:	ea20 0001 	bic.w	r0, r0, r1
    1894:	f88c 03fe 	strb.w	r0, [ip, #1022]	; 0x3fe
    1898:	f89c 03f4 	ldrb.w	r0, [ip, #1012]	; 0x3f4
    189c:	ea20 0001 	bic.w	r0, r0, r1
    18a0:	f88c 03f4 	strb.w	r0, [ip, #1012]	; 0x3f4
    18a4:	f89c 0408 	ldrb.w	r0, [ip, #1032]	; 0x408
    18a8:	ea20 0001 	bic.w	r0, r0, r1
    18ac:	f88c 0408 	strb.w	r0, [ip, #1032]	; 0x408
    18b0:	f89c 0412 	ldrb.w	r0, [ip, #1042]	; 0x412
    18b4:	ea20 0001 	bic.w	r0, r0, r1
    18b8:	f88c 0412 	strb.w	r0, [ip, #1042]	; 0x412
    18bc:	4f3f      	ldr	r7, [pc, #252]	; (19bc <gpio_msp432::setMode(unsigned short, unsigned short)+0x158>)
    18be:	f857 0023 	ldr.w	r0, [r7, r3, lsl #2]
    18c2:	0092      	lsls	r2, r2, #2
    18c4:	f102 0880 	add.w	r8, r2, #128	; 0x80
    18c8:	f04f 0c00 	mov.w	ip, #0
    18cc:	f800 c008 	strb.w	ip, [r0, r8]
    18d0:	f857 0023 	ldr.w	r0, [r7, r3, lsl #2]
    18d4:	f102 0ec0 	add.w	lr, r2, #192	; 0xc0
    18d8:	f800 c00e 	strb.w	ip, [r0, lr]
    18dc:	f857 0023 	ldr.w	r0, [r7, r3, lsl #2]
    18e0:	f102 0940 	add.w	r9, r2, #64	; 0x40
    18e4:	f800 c009 	strb.w	ip, [r0, r9]
    18e8:	f014 0f02 	tst.w	r4, #2
    18ec:	d004      	beq.n	18f8 <gpio_msp432::setMode(unsigned short, unsigned short)+0x94>
    18ee:	f857 0023 	ldr.w	r0, [r7, r3, lsl #2]
    18f2:	2701      	movs	r7, #1
    18f4:	f800 7008 	strb.w	r7, [r0, r8]
    18f8:	f014 0f04 	tst.w	r4, #4
    18fc:	d005      	beq.n	190a <gpio_msp432::setMode(unsigned short, unsigned short)+0xa6>
    18fe:	18ef      	adds	r7, r5, r3
    1900:	f897 03fe 	ldrb.w	r0, [r7, #1022]	; 0x3fe
    1904:	4308      	orrs	r0, r1
    1906:	f887 03fe 	strb.w	r0, [r7, #1022]	; 0x3fe
    190a:	f014 0f08 	tst.w	r4, #8
    190e:	d00b      	beq.n	1928 <gpio_msp432::setMode(unsigned short, unsigned short)+0xc4>
    1910:	18ef      	adds	r7, r5, r3
    1912:	f897 03f4 	ldrb.w	r0, [r7, #1012]	; 0x3f4
    1916:	4308      	orrs	r0, r1
    1918:	f887 03f4 	strb.w	r0, [r7, #1012]	; 0x3f4
    191c:	4827      	ldr	r0, [pc, #156]	; (19bc <gpio_msp432::setMode(unsigned short, unsigned short)+0x158>)
    191e:	f850 0023 	ldr.w	r0, [r0, r3, lsl #2]
    1922:	2701      	movs	r7, #1
    1924:	f800 7009 	strb.w	r7, [r0, r9]
    1928:	f014 0f10 	tst.w	r4, #16
    192c:	d00f      	beq.n	194e <gpio_msp432::setMode(unsigned short, unsigned short)+0xea>
    192e:	18ef      	adds	r7, r5, r3
    1930:	f897 0408 	ldrb.w	r0, [r7, #1032]	; 0x408
    1934:	4308      	orrs	r0, r1
    1936:	f887 0408 	strb.w	r0, [r7, #1032]	; 0x408
    193a:	4820      	ldr	r0, [pc, #128]	; (19bc <gpio_msp432::setMode(unsigned short, unsigned short)+0x158>)
    193c:	2701      	movs	r7, #1
    193e:	f850 2023 	ldr.w	r2, [r0, r3, lsl #2]
    1942:	f802 700e 	strb.w	r7, [r2, lr]
    1946:	f850 0023 	ldr.w	r0, [r0, r3, lsl #2]
    194a:	f800 7009 	strb.w	r7, [r0, r9]
    194e:	f014 0f20 	tst.w	r4, #32
    1952:	d00b      	beq.n	196c <gpio_msp432::setMode(unsigned short, unsigned short)+0x108>
    1954:	18e8      	adds	r0, r5, r3
    1956:	f890 2412 	ldrb.w	r2, [r0, #1042]	; 0x412
    195a:	430a      	orrs	r2, r1
    195c:	f880 2412 	strb.w	r2, [r0, #1042]	; 0x412
    1960:	4a16      	ldr	r2, [pc, #88]	; (19bc <gpio_msp432::setMode(unsigned short, unsigned short)+0x158>)
    1962:	f852 3023 	ldr.w	r3, [r2, r3, lsl #2]
    1966:	2201      	movs	r2, #1
    1968:	f803 200e 	strb.w	r2, [r3, lr]
    196c:	f014 0fc0 	tst.w	r4, #192	; 0xc0
    1970:	d11b      	bne.n	19aa <gpio_msp432::setMode(unsigned short, unsigned short)+0x146>
    1972:	f414 7f80 	tst.w	r4, #256	; 0x100
    1976:	d005      	beq.n	1984 <gpio_msp432::setMode(unsigned short, unsigned short)+0x120>
    1978:	682b      	ldr	r3, [r5, #0]
    197a:	689b      	ldr	r3, [r3, #8]
    197c:	2201      	movs	r2, #1
    197e:	4631      	mov	r1, r6
    1980:	4628      	mov	r0, r5
    1982:	4798      	blx	r3
    1984:	f414 7f00 	tst.w	r4, #512	; 0x200
    1988:	d005      	beq.n	1996 <gpio_msp432::setMode(unsigned short, unsigned short)+0x132>
    198a:	682b      	ldr	r3, [r5, #0]
    198c:	689b      	ldr	r3, [r3, #8]
    198e:	2200      	movs	r2, #0
    1990:	4631      	mov	r1, r6
    1992:	4628      	mov	r0, r5
    1994:	4798      	blx	r3
    1996:	e8bd 83f8 	ldmia.w	sp!, {r3, r4, r5, r6, r7, r8, r9, pc}
    199a:	4b09      	ldr	r3, [pc, #36]	; (19c0 <gpio_msp432::setMode(unsigned short, unsigned short)+0x15c>)
    199c:	4a09      	ldr	r2, [pc, #36]	; (19c4 <gpio_msp432::setMode(unsigned short, unsigned short)+0x160>)
    199e:	601a      	str	r2, [r3, #0]
    19a0:	4b09      	ldr	r3, [pc, #36]	; (19c8 <gpio_msp432::setMode(unsigned short, unsigned short)+0x164>)
    19a2:	22b2      	movs	r2, #178	; 0xb2
    19a4:	601a      	str	r2, [r3, #0]
    19a6:	f7ff fd81 	bl	14ac <yahal_assert_func()>
    19aa:	4b05      	ldr	r3, [pc, #20]	; (19c0 <gpio_msp432::setMode(unsigned short, unsigned short)+0x15c>)
    19ac:	4a05      	ldr	r2, [pc, #20]	; (19c4 <gpio_msp432::setMode(unsigned short, unsigned short)+0x160>)
    19ae:	601a      	str	r2, [r3, #0]
    19b0:	4b05      	ldr	r3, [pc, #20]	; (19c8 <gpio_msp432::setMode(unsigned short, unsigned short)+0x164>)
    19b2:	22d4      	movs	r2, #212	; 0xd4
    19b4:	601a      	str	r2, [r3, #0]
    19b6:	f7ff fd79 	bl	14ac <yahal_assert_func()>
    19ba:	bf00      	nop
    19bc:	2000000c 	.word	0x2000000c
    19c0:	200000b8 	.word	0x200000b8
    19c4:	0000ec34 	.word	0x0000ec34
    19c8:	200000d4 	.word	0x200000d4

000019cc <gpio_msp432::gpioMode(unsigned short, unsigned short)>:
    19cc:	b570      	push	{r4, r5, r6, lr}
    19ce:	4604      	mov	r4, r0
    19d0:	460d      	mov	r5, r1
    19d2:	4616      	mov	r6, r2
    19d4:	2200      	movs	r2, #0
    19d6:	f7ff ff19 	bl	180c <gpio_msp432::setSEL(unsigned short, unsigned char)>
    19da:	4632      	mov	r2, r6
    19dc:	4629      	mov	r1, r5
    19de:	4620      	mov	r0, r4
    19e0:	f7ff ff40 	bl	1864 <gpio_msp432::setMode(unsigned short, unsigned short)>
    19e4:	bd70      	pop	{r4, r5, r6, pc}

000019e6 <std::function<void ()>::function(std::function<void ()> const&)>:
    19e6:	b538      	push	{r3, r4, r5, lr}
    19e8:	4604      	mov	r4, r0
    19ea:	2300      	movs	r3, #0
    19ec:	6003      	str	r3, [r0, #0]
    19ee:	6043      	str	r3, [r0, #4]
    19f0:	6083      	str	r3, [r0, #8]
    19f2:	60c3      	str	r3, [r0, #12]
    19f4:	688b      	ldr	r3, [r1, #8]
    19f6:	b133      	cbz	r3, 1a06 <std::function<void ()>::function(std::function<void ()> const&)+0x20>
    19f8:	460d      	mov	r5, r1
    19fa:	2202      	movs	r2, #2
    19fc:	4798      	blx	r3
    19fe:	68eb      	ldr	r3, [r5, #12]
    1a00:	60e3      	str	r3, [r4, #12]
    1a02:	68ab      	ldr	r3, [r5, #8]
    1a04:	60a3      	str	r3, [r4, #8]
    1a06:	4620      	mov	r0, r4
    1a08:	bd38      	pop	{r3, r4, r5, pc}

00001a0a <std::function<void ()>::operator=(decltype(nullptr))>:
    1a0a:	b510      	push	{r4, lr}
    1a0c:	4604      	mov	r4, r0
    1a0e:	6883      	ldr	r3, [r0, #8]
    1a10:	b12b      	cbz	r3, 1a1e <std::function<void ()>::operator=(decltype(nullptr))+0x14>
    1a12:	2203      	movs	r2, #3
    1a14:	4601      	mov	r1, r0
    1a16:	4798      	blx	r3
    1a18:	2300      	movs	r3, #0
    1a1a:	60a3      	str	r3, [r4, #8]
    1a1c:	60e3      	str	r3, [r4, #12]
    1a1e:	4620      	mov	r0, r4
    1a20:	bd10      	pop	{r4, pc}
	...

00001a24 <gpio_msp432::gpioDetachIrq(unsigned short)>:
    1a24:	b570      	push	{r4, r5, r6, lr}
    1a26:	0a0d      	lsrs	r5, r1, #8
    1a28:	1e6b      	subs	r3, r5, #1
    1a2a:	b2db      	uxtb	r3, r3
    1a2c:	2b05      	cmp	r3, #5
    1a2e:	d810      	bhi.n	1a52 <gpio_msp432::gpioDetachIrq(unsigned short)+0x2e>
    1a30:	4604      	mov	r4, r0
    1a32:	b2ce      	uxtb	r6, r1
    1a34:	2e07      	cmp	r6, #7
    1a36:	d80c      	bhi.n	1a52 <gpio_msp432::gpioDetachIrq(unsigned short)+0x2e>
    1a38:	6803      	ldr	r3, [r0, #0]
    1a3a:	69db      	ldr	r3, [r3, #28]
    1a3c:	4798      	blx	r3
    1a3e:	3d01      	subs	r5, #1
    1a40:	eb06 06c5 	add.w	r6, r6, r5, lsl #3
    1a44:	eb04 1006 	add.w	r0, r4, r6, lsl #4
    1a48:	2100      	movs	r1, #0
    1a4a:	3004      	adds	r0, #4
    1a4c:	f7ff ffdd 	bl	1a0a <std::function<void ()>::operator=(decltype(nullptr))>
    1a50:	bd70      	pop	{r4, r5, r6, pc}
    1a52:	4b04      	ldr	r3, [pc, #16]	; (1a64 <gpio_msp432::gpioDetachIrq(unsigned short)+0x40>)
    1a54:	4a04      	ldr	r2, [pc, #16]	; (1a68 <gpio_msp432::gpioDetachIrq(unsigned short)+0x44>)
    1a56:	601a      	str	r2, [r3, #0]
    1a58:	4b04      	ldr	r3, [pc, #16]	; (1a6c <gpio_msp432::gpioDetachIrq(unsigned short)+0x48>)
    1a5a:	2288      	movs	r2, #136	; 0x88
    1a5c:	601a      	str	r2, [r3, #0]
    1a5e:	f7ff fd25 	bl	14ac <yahal_assert_func()>
    1a62:	bf00      	nop
    1a64:	200000b8 	.word	0x200000b8
    1a68:	0000ec34 	.word	0x0000ec34
    1a6c:	200000d4 	.word	0x200000d4

00001a70 <std::function<void ()>::operator()() const>:
    1a70:	b508      	push	{r3, lr}
    1a72:	6883      	ldr	r3, [r0, #8]
    1a74:	b113      	cbz	r3, 1a7c <std::function<void ()>::operator()() const+0xc>
    1a76:	68c3      	ldr	r3, [r0, #12]
    1a78:	4798      	blx	r3
    1a7a:	bd08      	pop	{r3, pc}
    1a7c:	f001 fa5a 	bl	2f34 <__yahal_bad_function_call>

00001a80 <gpio_msp432::handleIrq(unsigned char, unsigned char)>:
    1a80:	b5f8      	push	{r3, r4, r5, r6, r7, lr}
    1a82:	4604      	mov	r4, r0
    1a84:	4616      	mov	r6, r2
    1a86:	1e4d      	subs	r5, r1, #1
    1a88:	00ef      	lsls	r7, r5, #3
    1a8a:	eb02 00c5 	add.w	r0, r2, r5, lsl #3
    1a8e:	eb04 1000 	add.w	r0, r4, r0, lsl #4
    1a92:	3004      	adds	r0, #4
    1a94:	f7ff ffec 	bl	1a70 <std::function<void ()>::operator()() const>
    1a98:	443c      	add	r4, r7
    1a9a:	4434      	add	r4, r6
    1a9c:	f894 33c4 	ldrb.w	r3, [r4, #964]	; 0x3c4
    1aa0:	b17b      	cbz	r3, 1ac2 <gpio_msp432::handleIrq(unsigned char, unsigned char)+0x42>
    1aa2:	4908      	ldr	r1, [pc, #32]	; (1ac4 <gpio_msp432::handleIrq(unsigned char, unsigned char)+0x44>)
    1aa4:	f851 0025 	ldr.w	r0, [r1, r5, lsl #2]
    1aa8:	00b3      	lsls	r3, r6, #2
    1aaa:	f503 7440 	add.w	r4, r3, #768	; 0x300
    1aae:	f810 2026 	ldrb.w	r2, [r0, r6, lsl #2]
    1ab2:	b2d2      	uxtb	r2, r2
    1ab4:	5502      	strb	r2, [r0, r4]
    1ab6:	f851 2025 	ldr.w	r2, [r1, r5, lsl #2]
    1aba:	f503 7360 	add.w	r3, r3, #896	; 0x380
    1abe:	2100      	movs	r1, #0
    1ac0:	54d1      	strb	r1, [r2, r3]
    1ac2:	bdf8      	pop	{r3, r4, r5, r6, r7, pc}
    1ac4:	2000000c 	.word	0x2000000c

00001ac8 <PORT1_IRQHandler>:
    1ac8:	b508      	push	{r3, lr}
    1aca:	4b06      	ldr	r3, [pc, #24]	; (1ae4 <PORT1_IRQHandler+0x1c>)
    1acc:	89db      	ldrh	r3, [r3, #14]
    1ace:	f3c3 034e 	ubfx	r3, r3, #1, #15
    1ad2:	b903      	cbnz	r3, 1ad6 <PORT1_IRQHandler+0xe>
    1ad4:	bd08      	pop	{r3, pc}
    1ad6:	1e5a      	subs	r2, r3, #1
    1ad8:	b2d2      	uxtb	r2, r2
    1ada:	2101      	movs	r1, #1
    1adc:	4802      	ldr	r0, [pc, #8]	; (1ae8 <PORT1_IRQHandler+0x20>)
    1ade:	f7ff ffcf 	bl	1a80 <gpio_msp432::handleIrq(unsigned char, unsigned char)>
    1ae2:	e7f7      	b.n	1ad4 <PORT1_IRQHandler+0xc>
    1ae4:	40004c00 	.word	0x40004c00
    1ae8:	2000016c 	.word	0x2000016c

00001aec <PORT2_IRQHandler>:
    1aec:	b508      	push	{r3, lr}
    1aee:	4b06      	ldr	r3, [pc, #24]	; (1b08 <PORT2_IRQHandler+0x1c>)
    1af0:	8bdb      	ldrh	r3, [r3, #30]
    1af2:	f3c3 034e 	ubfx	r3, r3, #1, #15
    1af6:	b903      	cbnz	r3, 1afa <PORT2_IRQHandler+0xe>
    1af8:	bd08      	pop	{r3, pc}
    1afa:	1e5a      	subs	r2, r3, #1
    1afc:	b2d2      	uxtb	r2, r2
    1afe:	2102      	movs	r1, #2
    1b00:	4802      	ldr	r0, [pc, #8]	; (1b0c <PORT2_IRQHandler+0x20>)
    1b02:	f7ff ffbd 	bl	1a80 <gpio_msp432::handleIrq(unsigned char, unsigned char)>
    1b06:	e7f7      	b.n	1af8 <PORT2_IRQHandler+0xc>
    1b08:	40004c00 	.word	0x40004c00
    1b0c:	2000016c 	.word	0x2000016c

00001b10 <PORT3_IRQHandler>:
    1b10:	b508      	push	{r3, lr}
    1b12:	4b06      	ldr	r3, [pc, #24]	; (1b2c <PORT3_IRQHandler+0x1c>)
    1b14:	8ddb      	ldrh	r3, [r3, #46]	; 0x2e
    1b16:	f3c3 034e 	ubfx	r3, r3, #1, #15
    1b1a:	b903      	cbnz	r3, 1b1e <PORT3_IRQHandler+0xe>
    1b1c:	bd08      	pop	{r3, pc}
    1b1e:	1e5a      	subs	r2, r3, #1
    1b20:	b2d2      	uxtb	r2, r2
    1b22:	2103      	movs	r1, #3
    1b24:	4802      	ldr	r0, [pc, #8]	; (1b30 <PORT3_IRQHandler+0x20>)
    1b26:	f7ff ffab 	bl	1a80 <gpio_msp432::handleIrq(unsigned char, unsigned char)>
    1b2a:	e7f7      	b.n	1b1c <PORT3_IRQHandler+0xc>
    1b2c:	40004c00 	.word	0x40004c00
    1b30:	2000016c 	.word	0x2000016c

00001b34 <PORT4_IRQHandler>:
    1b34:	b508      	push	{r3, lr}
    1b36:	4b06      	ldr	r3, [pc, #24]	; (1b50 <PORT4_IRQHandler+0x1c>)
    1b38:	8fdb      	ldrh	r3, [r3, #62]	; 0x3e
    1b3a:	f3c3 034e 	ubfx	r3, r3, #1, #15
    1b3e:	b903      	cbnz	r3, 1b42 <PORT4_IRQHandler+0xe>
    1b40:	bd08      	pop	{r3, pc}
    1b42:	1e5a      	subs	r2, r3, #1
    1b44:	b2d2      	uxtb	r2, r2
    1b46:	2104      	movs	r1, #4
    1b48:	4802      	ldr	r0, [pc, #8]	; (1b54 <PORT4_IRQHandler+0x20>)
    1b4a:	f7ff ff99 	bl	1a80 <gpio_msp432::handleIrq(unsigned char, unsigned char)>
    1b4e:	e7f7      	b.n	1b40 <PORT4_IRQHandler+0xc>
    1b50:	40004c00 	.word	0x40004c00
    1b54:	2000016c 	.word	0x2000016c

00001b58 <PORT5_IRQHandler>:
    1b58:	b508      	push	{r3, lr}
    1b5a:	4b07      	ldr	r3, [pc, #28]	; (1b78 <PORT5_IRQHandler+0x20>)
    1b5c:	f8b3 304e 	ldrh.w	r3, [r3, #78]	; 0x4e
    1b60:	f3c3 034e 	ubfx	r3, r3, #1, #15
    1b64:	b903      	cbnz	r3, 1b68 <PORT5_IRQHandler+0x10>
    1b66:	bd08      	pop	{r3, pc}
    1b68:	1e5a      	subs	r2, r3, #1
    1b6a:	b2d2      	uxtb	r2, r2
    1b6c:	2105      	movs	r1, #5
    1b6e:	4803      	ldr	r0, [pc, #12]	; (1b7c <PORT5_IRQHandler+0x24>)
    1b70:	f7ff ff86 	bl	1a80 <gpio_msp432::handleIrq(unsigned char, unsigned char)>
    1b74:	e7f7      	b.n	1b66 <PORT5_IRQHandler+0xe>
    1b76:	bf00      	nop
    1b78:	40004c00 	.word	0x40004c00
    1b7c:	2000016c 	.word	0x2000016c

00001b80 <PORT6_IRQHandler>:
    1b80:	b508      	push	{r3, lr}
    1b82:	4b07      	ldr	r3, [pc, #28]	; (1ba0 <PORT6_IRQHandler+0x20>)
    1b84:	f8b3 305e 	ldrh.w	r3, [r3, #94]	; 0x5e
    1b88:	f3c3 034e 	ubfx	r3, r3, #1, #15
    1b8c:	b903      	cbnz	r3, 1b90 <PORT6_IRQHandler+0x10>
    1b8e:	bd08      	pop	{r3, pc}
    1b90:	1e5a      	subs	r2, r3, #1
    1b92:	b2d2      	uxtb	r2, r2
    1b94:	2106      	movs	r1, #6
    1b96:	4803      	ldr	r0, [pc, #12]	; (1ba4 <PORT6_IRQHandler+0x24>)
    1b98:	f7ff ff72 	bl	1a80 <gpio_msp432::handleIrq(unsigned char, unsigned char)>
    1b9c:	e7f7      	b.n	1b8e <PORT6_IRQHandler+0xe>
    1b9e:	bf00      	nop
    1ba0:	40004c00 	.word	0x40004c00
    1ba4:	2000016c 	.word	0x2000016c

00001ba8 <std::enable_if<std::__and_<std::__not_<std::__is_tuple_like<std::_Any_data> >, std::is_move_constructible<std::_Any_data>, std::is_move_assignable<std::_Any_data> >::value, void>::type std::swap<std::_Any_data>(std::_Any_data&, std::_Any_data&)>:
    1ba8:	b082      	sub	sp, #8
    1baa:	4602      	mov	r2, r0
    1bac:	460b      	mov	r3, r1
    1bae:	46ec      	mov	ip, sp
    1bb0:	e9d0 0100 	ldrd	r0, r1, [r0]
    1bb4:	e88c 0003 	stmia.w	ip, {r0, r1}
    1bb8:	e893 0003 	ldmia.w	r3, {r0, r1}
    1bbc:	e882 0003 	stmia.w	r2, {r0, r1}
    1bc0:	e89c 0003 	ldmia.w	ip, {r0, r1}
    1bc4:	e883 0003 	stmia.w	r3, {r0, r1}
    1bc8:	b002      	add	sp, #8
    1bca:	4770      	bx	lr

00001bcc <std::function<void ()>::swap(std::function<void ()>&)>:
    1bcc:	b538      	push	{r3, r4, r5, lr}
    1bce:	4605      	mov	r5, r0
    1bd0:	460c      	mov	r4, r1
    1bd2:	f7ff ffe9 	bl	1ba8 <std::enable_if<std::__and_<std::__not_<std::__is_tuple_like<std::_Any_data> >, std::is_move_constructible<std::_Any_data>, std::is_move_assignable<std::_Any_data> >::value, void>::type std::swap<std::_Any_data>(std::_Any_data&, std::_Any_data&)>
    1bd6:	68ab      	ldr	r3, [r5, #8]
    1bd8:	68a2      	ldr	r2, [r4, #8]
    1bda:	60aa      	str	r2, [r5, #8]
    1bdc:	60a3      	str	r3, [r4, #8]
    1bde:	68eb      	ldr	r3, [r5, #12]
    1be0:	68e2      	ldr	r2, [r4, #12]
    1be2:	60ea      	str	r2, [r5, #12]
    1be4:	60e3      	str	r3, [r4, #12]
    1be6:	bd38      	pop	{r3, r4, r5, pc}

00001be8 <std::function<void ()>::operator=(std::function<void ()> const&)>:
    1be8:	b510      	push	{r4, lr}
    1bea:	b084      	sub	sp, #16
    1bec:	4604      	mov	r4, r0
    1bee:	4668      	mov	r0, sp
    1bf0:	f7ff fef9 	bl	19e6 <std::function<void ()>::function(std::function<void ()> const&)>
    1bf4:	4621      	mov	r1, r4
    1bf6:	4668      	mov	r0, sp
    1bf8:	f7ff ffe8 	bl	1bcc <std::function<void ()>::swap(std::function<void ()>&)>
    1bfc:	4668      	mov	r0, sp
    1bfe:	f7ff fd9b 	bl	1738 <std::_Function_base::~_Function_base()>
    1c02:	4620      	mov	r0, r4
    1c04:	b004      	add	sp, #16
    1c06:	bd10      	pop	{r4, pc}

00001c08 <gpio_msp432::gpioAttachIrq(unsigned short, unsigned short, std::function<void ()>)>:
    1c08:	b5f8      	push	{r3, r4, r5, r6, r7, lr}
    1c0a:	460f      	mov	r7, r1
    1c0c:	4619      	mov	r1, r3
    1c0e:	0a3d      	lsrs	r5, r7, #8
    1c10:	1e6b      	subs	r3, r5, #1
    1c12:	b2db      	uxtb	r3, r3
    1c14:	2b05      	cmp	r3, #5
    1c16:	d811      	bhi.n	1c3c <gpio_msp432::gpioAttachIrq(unsigned short, unsigned short, std::function<void ()>)+0x34>
    1c18:	4606      	mov	r6, r0
    1c1a:	b2f8      	uxtb	r0, r7
    1c1c:	2807      	cmp	r0, #7
    1c1e:	d80d      	bhi.n	1c3c <gpio_msp432::gpioAttachIrq(unsigned short, unsigned short, std::function<void ()>)+0x34>
    1c20:	2a02      	cmp	r2, #2
    1c22:	d02c      	beq.n	1c7e <gpio_msp432::gpioAttachIrq(unsigned short, unsigned short, std::function<void ()>)+0x76>
    1c24:	2a03      	cmp	r2, #3
    1c26:	d03c      	beq.n	1ca2 <gpio_msp432::gpioAttachIrq(unsigned short, unsigned short, std::function<void ()>)+0x9a>
    1c28:	2a01      	cmp	r2, #1
    1c2a:	d00f      	beq.n	1c4c <gpio_msp432::gpioAttachIrq(unsigned short, unsigned short, std::function<void ()>)+0x44>
    1c2c:	4b30      	ldr	r3, [pc, #192]	; (1cf0 <gpio_msp432::gpioAttachIrq(unsigned short, unsigned short, std::function<void ()>)+0xe8>)
    1c2e:	4a31      	ldr	r2, [pc, #196]	; (1cf4 <gpio_msp432::gpioAttachIrq(unsigned short, unsigned short, std::function<void ()>)+0xec>)
    1c30:	601a      	str	r2, [r3, #0]
    1c32:	4b31      	ldr	r3, [pc, #196]	; (1cf8 <gpio_msp432::gpioAttachIrq(unsigned short, unsigned short, std::function<void ()>)+0xf0>)
    1c34:	2279      	movs	r2, #121	; 0x79
    1c36:	601a      	str	r2, [r3, #0]
    1c38:	f7ff fc38 	bl	14ac <yahal_assert_func()>
    1c3c:	4b2c      	ldr	r3, [pc, #176]	; (1cf0 <gpio_msp432::gpioAttachIrq(unsigned short, unsigned short, std::function<void ()>)+0xe8>)
    1c3e:	4a2d      	ldr	r2, [pc, #180]	; (1cf4 <gpio_msp432::gpioAttachIrq(unsigned short, unsigned short, std::function<void ()>)+0xec>)
    1c40:	601a      	str	r2, [r3, #0]
    1c42:	4b2d      	ldr	r3, [pc, #180]	; (1cf8 <gpio_msp432::gpioAttachIrq(unsigned short, unsigned short, std::function<void ()>)+0xf0>)
    1c44:	2267      	movs	r2, #103	; 0x67
    1c46:	601a      	str	r2, [r3, #0]
    1c48:	f7ff fc30 	bl	14ac <yahal_assert_func()>
    1c4c:	1e6b      	subs	r3, r5, #1
    1c4e:	4a2b      	ldr	r2, [pc, #172]	; (1cfc <gpio_msp432::gpioAttachIrq(unsigned short, unsigned short, std::function<void ()>)+0xf4>)
    1c50:	f852 c023 	ldr.w	ip, [r2, r3, lsl #2]
    1c54:	0082      	lsls	r2, r0, #2
    1c56:	f502 7240 	add.w	r2, r2, #768	; 0x300
    1c5a:	2400      	movs	r4, #0
    1c5c:	f80c 4002 	strb.w	r4, [ip, r2]
    1c60:	eb06 03c3 	add.w	r3, r6, r3, lsl #3
    1c64:	4403      	add	r3, r0
    1c66:	f883 43c4 	strb.w	r4, [r3, #964]	; 0x3c4
    1c6a:	3d01      	subs	r5, #1
    1c6c:	eb00 00c5 	add.w	r0, r0, r5, lsl #3
    1c70:	eb06 1000 	add.w	r0, r6, r0, lsl #4
    1c74:	3004      	adds	r0, #4
    1c76:	f7ff ffb7 	bl	1be8 <std::function<void ()>::operator=(std::function<void ()> const&)>
    1c7a:	2300      	movs	r3, #0
    1c7c:	e02f      	b.n	1cde <gpio_msp432::gpioAttachIrq(unsigned short, unsigned short, std::function<void ()>)+0xd6>
    1c7e:	1e6b      	subs	r3, r5, #1
    1c80:	4a1e      	ldr	r2, [pc, #120]	; (1cfc <gpio_msp432::gpioAttachIrq(unsigned short, unsigned short, std::function<void ()>)+0xf4>)
    1c82:	f852 4023 	ldr.w	r4, [r2, r3, lsl #2]
    1c86:	0082      	lsls	r2, r0, #2
    1c88:	f502 7240 	add.w	r2, r2, #768	; 0x300
    1c8c:	f04f 0c01 	mov.w	ip, #1
    1c90:	f804 c002 	strb.w	ip, [r4, r2]
    1c94:	eb06 03c3 	add.w	r3, r6, r3, lsl #3
    1c98:	4403      	add	r3, r0
    1c9a:	2200      	movs	r2, #0
    1c9c:	f883 23c4 	strb.w	r2, [r3, #964]	; 0x3c4
    1ca0:	e7e3      	b.n	1c6a <gpio_msp432::gpioAttachIrq(unsigned short, unsigned short, std::function<void ()>)+0x62>
    1ca2:	1e6b      	subs	r3, r5, #1
    1ca4:	4a15      	ldr	r2, [pc, #84]	; (1cfc <gpio_msp432::gpioAttachIrq(unsigned short, unsigned short, std::function<void ()>)+0xf4>)
    1ca6:	f852 c023 	ldr.w	ip, [r2, r3, lsl #2]
    1caa:	0082      	lsls	r2, r0, #2
    1cac:	f502 7240 	add.w	r2, r2, #768	; 0x300
    1cb0:	f81c 4020 	ldrb.w	r4, [ip, r0, lsl #2]
    1cb4:	b2e4      	uxtb	r4, r4
    1cb6:	f80c 4002 	strb.w	r4, [ip, r2]
    1cba:	eb06 03c3 	add.w	r3, r6, r3, lsl #3
    1cbe:	4403      	add	r3, r0
    1cc0:	2201      	movs	r2, #1
    1cc2:	f883 23c4 	strb.w	r2, [r3, #964]	; 0x3c4
    1cc6:	e7d0      	b.n	1c6a <gpio_msp432::gpioAttachIrq(unsigned short, unsigned short, std::function<void ()>)+0x62>
    1cc8:	4a0c      	ldr	r2, [pc, #48]	; (1cfc <gpio_msp432::gpioAttachIrq(unsigned short, unsigned short, std::function<void ()>)+0xf4>)
    1cca:	f852 4025 	ldr.w	r4, [r2, r5, lsl #2]
    1cce:	009a      	lsls	r2, r3, #2
    1cd0:	f502 7260 	add.w	r2, r2, #896	; 0x380
    1cd4:	f04f 0c00 	mov.w	ip, #0
    1cd8:	f804 c002 	strb.w	ip, [r4, r2]
    1cdc:	3301      	adds	r3, #1
    1cde:	2b07      	cmp	r3, #7
    1ce0:	d9f2      	bls.n	1cc8 <gpio_msp432::gpioAttachIrq(unsigned short, unsigned short, std::function<void ()>)+0xc0>
    1ce2:	6833      	ldr	r3, [r6, #0]
    1ce4:	699b      	ldr	r3, [r3, #24]
    1ce6:	4639      	mov	r1, r7
    1ce8:	4630      	mov	r0, r6
    1cea:	4798      	blx	r3
    1cec:	bdf8      	pop	{r3, r4, r5, r6, r7, pc}
    1cee:	bf00      	nop
    1cf0:	200000b8 	.word	0x200000b8
    1cf4:	0000ec34 	.word	0x0000ec34
    1cf8:	200000d4 	.word	0x200000d4
    1cfc:	2000000c 	.word	0x2000000c

00001d00 <_GLOBAL__sub_I_port_base>:
    1d00:	b508      	push	{r3, lr}
    1d02:	f64f 71ff 	movw	r1, #65535	; 0xffff
    1d06:	2001      	movs	r0, #1
    1d08:	f7ff fd68 	bl	17dc <__static_initialization_and_destruction_0(int, int)>
    1d0c:	bd08      	pop	{r3, pc}
	...

00001d10 <__NVIC_EnableIRQ>:
    1d10:	2800      	cmp	r0, #0
    1d12:	db07      	blt.n	1d24 <__NVIC_EnableIRQ+0x14>
    1d14:	f000 021f 	and.w	r2, r0, #31
    1d18:	0940      	lsrs	r0, r0, #5
    1d1a:	2301      	movs	r3, #1
    1d1c:	4093      	lsls	r3, r2
    1d1e:	4a02      	ldr	r2, [pc, #8]	; (1d28 <__NVIC_EnableIRQ+0x18>)
    1d20:	f842 3020 	str.w	r3, [r2, r0, lsl #2]
    1d24:	4770      	bx	lr
    1d26:	bf00      	nop
    1d28:	e000e100 	.word	0xe000e100

00001d2c <yahal_assert_func()>:
    1d2c:	e7fe      	b.n	1d2c <yahal_assert_func()>
	...

00001d30 <spi_msp432::~spi_msp432()>:
    1d30:	4b06      	ldr	r3, [pc, #24]	; (1d4c <spi_msp432::~spi_msp432()+0x1c>)
    1d32:	6003      	str	r3, [r0, #0]
    1d34:	6903      	ldr	r3, [r0, #16]
    1d36:	881b      	ldrh	r3, [r3, #0]
    1d38:	f013 0f01 	tst.w	r3, #1
    1d3c:	d1fa      	bne.n	1d34 <spi_msp432::~spi_msp432()+0x4>
    1d3e:	6883      	ldr	r3, [r0, #8]
    1d40:	2201      	movs	r2, #1
    1d42:	801a      	strh	r2, [r3, #0]
    1d44:	4b02      	ldr	r3, [pc, #8]	; (1d50 <spi_msp432::~spi_msp432()+0x20>)
    1d46:	6003      	str	r3, [r0, #0]
    1d48:	4770      	bx	lr
    1d4a:	bf00      	nop
    1d4c:	0000ed6c 	.word	0x0000ed6c
    1d50:	0000ed40 	.word	0x0000ed40

00001d54 <spi_msp432::~spi_msp432()>:
    1d54:	b510      	push	{r4, lr}
    1d56:	4604      	mov	r4, r0
    1d58:	f7ff ffea 	bl	1d30 <spi_msp432::~spi_msp432()>
    1d5c:	214c      	movs	r1, #76	; 0x4c
    1d5e:	4620      	mov	r0, r4
    1d60:	f002 ff0d 	bl	4b7e <operator delete(void*, unsigned int)>
    1d64:	4620      	mov	r0, r4
    1d66:	bd10      	pop	{r4, pc}

00001d68 <__static_initialization_and_destruction_0(int, int)>:
    1d68:	2801      	cmp	r0, #1
    1d6a:	d000      	beq.n	1d6e <__static_initialization_and_destruction_0(int, int)+0x6>
    1d6c:	4770      	bx	lr
    1d6e:	b508      	push	{r3, lr}
    1d70:	f64f 73ff 	movw	r3, #65535	; 0xffff
    1d74:	4299      	cmp	r1, r3
    1d76:	d000      	beq.n	1d7a <__static_initialization_and_destruction_0(int, int)+0x12>
    1d78:	bd08      	pop	{r3, pc}
    1d7a:	4b0b      	ldr	r3, [pc, #44]	; (1da8 <__static_initialization_and_destruction_0(int, int)+0x40>)
    1d7c:	681a      	ldr	r2, [r3, #0]
    1d7e:	4b0b      	ldr	r3, [pc, #44]	; (1dac <__static_initialization_and_destruction_0(int, int)+0x44>)
    1d80:	601a      	str	r2, [r3, #0]
    1d82:	2107      	movs	r1, #7
    1d84:	4b0a      	ldr	r3, [pc, #40]	; (1db0 <__static_initialization_and_destruction_0(int, int)+0x48>)
    1d86:	e006      	b.n	1d96 <__static_initialization_and_destruction_0(int, int)+0x2e>
    1d88:	2200      	movs	r2, #0
    1d8a:	601a      	str	r2, [r3, #0]
    1d8c:	605a      	str	r2, [r3, #4]
    1d8e:	609a      	str	r2, [r3, #8]
    1d90:	60da      	str	r2, [r3, #12]
    1d92:	3901      	subs	r1, #1
    1d94:	3310      	adds	r3, #16
    1d96:	2900      	cmp	r1, #0
    1d98:	daf6      	bge.n	1d88 <__static_initialization_and_destruction_0(int, int)+0x20>
    1d9a:	4a06      	ldr	r2, [pc, #24]	; (1db4 <__static_initialization_and_destruction_0(int, int)+0x4c>)
    1d9c:	4906      	ldr	r1, [pc, #24]	; (1db8 <__static_initialization_and_destruction_0(int, int)+0x50>)
    1d9e:	2000      	movs	r0, #0
    1da0:	f002 fee8 	bl	4b74 <__aeabi_atexit>
    1da4:	e7e8      	b.n	1d78 <__static_initialization_and_destruction_0(int, int)+0x10>
    1da6:	bf00      	nop
    1da8:	20000038 	.word	0x20000038
    1dac:	200000a8 	.word	0x200000a8
    1db0:	200000ec 	.word	0x200000ec
    1db4:	20000000 	.word	0x20000000
    1db8:	00001dbd 	.word	0x00001dbd

00001dbc <__tcf_0>:
    1dbc:	b510      	push	{r4, lr}
    1dbe:	4c05      	ldr	r4, [pc, #20]	; (1dd4 <__tcf_0+0x18>)
    1dc0:	e003      	b.n	1dca <__tcf_0+0xe>
    1dc2:	3c10      	subs	r4, #16
    1dc4:	4620      	mov	r0, r4
    1dc6:	f7ff fcb7 	bl	1738 <std::_Function_base::~_Function_base()>
    1dca:	4b03      	ldr	r3, [pc, #12]	; (1dd8 <__tcf_0+0x1c>)
    1dcc:	429c      	cmp	r4, r3
    1dce:	d1f8      	bne.n	1dc2 <__tcf_0+0x6>
    1dd0:	bd10      	pop	{r4, pc}
    1dd2:	bf00      	nop
    1dd4:	2000016c 	.word	0x2000016c
    1dd8:	200000ec 	.word	0x200000ec

00001ddc <spi_msp432::spi_msp432(EUSCI_B_SPI_Type*, gpio_pin&, bool, unsigned short)>:
    1ddc:	b510      	push	{r4, lr}
    1dde:	4c3b      	ldr	r4, [pc, #236]	; (1ecc <spi_msp432::spi_msp432(EUSCI_B_SPI_Type*, gpio_pin&, bool, unsigned short)+0xf0>)
    1de0:	6004      	str	r4, [r0, #0]
    1de2:	4c3b      	ldr	r4, [pc, #236]	; (1ed0 <spi_msp432::spi_msp432(EUSCI_B_SPI_Type*, gpio_pin&, bool, unsigned short)+0xf4>)
    1de4:	6004      	str	r4, [r0, #0]
    1de6:	f04f 0c00 	mov.w	ip, #0
    1dea:	f880 c004 	strb.w	ip, [r0, #4]
    1dee:	7143      	strb	r3, [r0, #5]
    1df0:	2301      	movs	r3, #1
    1df2:	7183      	strb	r3, [r0, #6]
    1df4:	6081      	str	r1, [r0, #8]
    1df6:	1d8b      	adds	r3, r1, #6
    1df8:	60c3      	str	r3, [r0, #12]
    1dfa:	f101 0308 	add.w	r3, r1, #8
    1dfe:	6103      	str	r3, [r0, #16]
    1e00:	f101 030c 	add.w	r3, r1, #12
    1e04:	6143      	str	r3, [r0, #20]
    1e06:	f101 030e 	add.w	r3, r1, #14
    1e0a:	6183      	str	r3, [r0, #24]
    1e0c:	f101 032a 	add.w	r3, r1, #42	; 0x2a
    1e10:	61c3      	str	r3, [r0, #28]
    1e12:	f101 032c 	add.w	r3, r1, #44	; 0x2c
    1e16:	6203      	str	r3, [r0, #32]
    1e18:	f101 032e 	add.w	r3, r1, #46	; 0x2e
    1e1c:	6243      	str	r3, [r0, #36]	; 0x24
    1e1e:	4b2d      	ldr	r3, [pc, #180]	; (1ed4 <spi_msp432::spi_msp432(EUSCI_B_SPI_Type*, gpio_pin&, bool, unsigned short)+0xf8>)
    1e20:	6283      	str	r3, [r0, #40]	; 0x28
    1e22:	f8a0 c02c 	strh.w	ip, [r0, #44]	; 0x2c
    1e26:	6303      	str	r3, [r0, #48]	; 0x30
    1e28:	f8a0 c034 	strh.w	ip, [r0, #52]	; 0x34
    1e2c:	6383      	str	r3, [r0, #56]	; 0x38
    1e2e:	f8a0 c03c 	strh.w	ip, [r0, #60]	; 0x3c
    1e32:	f8bd 3008 	ldrh.w	r3, [sp, #8]
    1e36:	f8a0 3040 	strh.w	r3, [r0, #64]	; 0x40
    1e3a:	6442      	str	r2, [r0, #68]	; 0x44
    1e3c:	4b26      	ldr	r3, [pc, #152]	; (1ed8 <spi_msp432::spi_msp432(EUSCI_B_SPI_Type*, gpio_pin&, bool, unsigned short)+0xfc>)
    1e3e:	4299      	cmp	r1, r3
    1e40:	d015      	beq.n	1e6e <spi_msp432::spi_msp432(EUSCI_B_SPI_Type*, gpio_pin&, bool, unsigned short)+0x92>
    1e42:	4b26      	ldr	r3, [pc, #152]	; (1edc <spi_msp432::spi_msp432(EUSCI_B_SPI_Type*, gpio_pin&, bool, unsigned short)+0x100>)
    1e44:	4299      	cmp	r1, r3
    1e46:	d01f      	beq.n	1e88 <spi_msp432::spi_msp432(EUSCI_B_SPI_Type*, gpio_pin&, bool, unsigned short)+0xac>
    1e48:	4b25      	ldr	r3, [pc, #148]	; (1ee0 <spi_msp432::spi_msp432(EUSCI_B_SPI_Type*, gpio_pin&, bool, unsigned short)+0x104>)
    1e4a:	4299      	cmp	r1, r3
    1e4c:	d029      	beq.n	1ea2 <spi_msp432::spi_msp432(EUSCI_B_SPI_Type*, gpio_pin&, bool, unsigned short)+0xc6>
    1e4e:	4b25      	ldr	r3, [pc, #148]	; (1ee4 <spi_msp432::spi_msp432(EUSCI_B_SPI_Type*, gpio_pin&, bool, unsigned short)+0x108>)
    1e50:	4299      	cmp	r1, r3
    1e52:	d133      	bne.n	1ebc <spi_msp432::spi_msp432(EUSCI_B_SPI_Type*, gpio_pin&, bool, unsigned short)+0xe0>
    1e54:	f640 2301 	movw	r3, #2561	; 0xa01
    1e58:	8583      	strh	r3, [r0, #44]	; 0x2c
    1e5a:	f640 2303 	movw	r3, #2563	; 0xa03
    1e5e:	8683      	strh	r3, [r0, #52]	; 0x34
    1e60:	f640 2302 	movw	r3, #2562	; 0xa02
    1e64:	8783      	strh	r3, [r0, #60]	; 0x3c
    1e66:	2317      	movs	r3, #23
    1e68:	f880 3048 	strb.w	r3, [r0, #72]	; 0x48
    1e6c:	bd10      	pop	{r4, pc}
    1e6e:	f240 1305 	movw	r3, #261	; 0x105
    1e72:	8583      	strh	r3, [r0, #44]	; 0x2c
    1e74:	f240 1307 	movw	r3, #263	; 0x107
    1e78:	8683      	strh	r3, [r0, #52]	; 0x34
    1e7a:	f44f 7383 	mov.w	r3, #262	; 0x106
    1e7e:	8783      	strh	r3, [r0, #60]	; 0x3c
    1e80:	2314      	movs	r3, #20
    1e82:	f880 3048 	strb.w	r3, [r0, #72]	; 0x48
    1e86:	e7f1      	b.n	1e6c <spi_msp432::spi_msp432(EUSCI_B_SPI_Type*, gpio_pin&, bool, unsigned short)+0x90>
    1e88:	f240 6303 	movw	r3, #1539	; 0x603
    1e8c:	8583      	strh	r3, [r0, #44]	; 0x2c
    1e8e:	f240 6305 	movw	r3, #1541	; 0x605
    1e92:	8683      	strh	r3, [r0, #52]	; 0x34
    1e94:	f240 6304 	movw	r3, #1540	; 0x604
    1e98:	8783      	strh	r3, [r0, #60]	; 0x3c
    1e9a:	2315      	movs	r3, #21
    1e9c:	f880 3048 	strb.w	r3, [r0, #72]	; 0x48
    1ea0:	e7e4      	b.n	1e6c <spi_msp432::spi_msp432(EUSCI_B_SPI_Type*, gpio_pin&, bool, unsigned short)+0x90>
    1ea2:	f240 3305 	movw	r3, #773	; 0x305
    1ea6:	8583      	strh	r3, [r0, #44]	; 0x2c
    1ea8:	f240 3307 	movw	r3, #775	; 0x307
    1eac:	8683      	strh	r3, [r0, #52]	; 0x34
    1eae:	f240 3306 	movw	r3, #774	; 0x306
    1eb2:	8783      	strh	r3, [r0, #60]	; 0x3c
    1eb4:	2316      	movs	r3, #22
    1eb6:	f880 3048 	strb.w	r3, [r0, #72]	; 0x48
    1eba:	e7d7      	b.n	1e6c <spi_msp432::spi_msp432(EUSCI_B_SPI_Type*, gpio_pin&, bool, unsigned short)+0x90>
    1ebc:	4b0a      	ldr	r3, [pc, #40]	; (1ee8 <spi_msp432::spi_msp432(EUSCI_B_SPI_Type*, gpio_pin&, bool, unsigned short)+0x10c>)
    1ebe:	4a0b      	ldr	r2, [pc, #44]	; (1eec <spi_msp432::spi_msp432(EUSCI_B_SPI_Type*, gpio_pin&, bool, unsigned short)+0x110>)
    1ec0:	601a      	str	r2, [r3, #0]
    1ec2:	4b0b      	ldr	r3, [pc, #44]	; (1ef0 <spi_msp432::spi_msp432(EUSCI_B_SPI_Type*, gpio_pin&, bool, unsigned short)+0x114>)
    1ec4:	2268      	movs	r2, #104	; 0x68
    1ec6:	601a      	str	r2, [r3, #0]
    1ec8:	f7ff ff30 	bl	1d2c <yahal_assert_func()>
    1ecc:	0000ed40 	.word	0x0000ed40
    1ed0:	0000ed6c 	.word	0x0000ed6c
    1ed4:	2000016c 	.word	0x2000016c
    1ed8:	40002000 	.word	0x40002000
    1edc:	40002400 	.word	0x40002400
    1ee0:	40002800 	.word	0x40002800
    1ee4:	40002c00 	.word	0x40002c00
    1ee8:	200000bc 	.word	0x200000bc
    1eec:	0000ece8 	.word	0x0000ece8
    1ef0:	200000d8 	.word	0x200000d8

00001ef4 <spi_msp432::initialize()>:
    1ef4:	b538      	push	{r3, r4, r5, lr}
    1ef6:	4604      	mov	r4, r0
    1ef8:	2201      	movs	r2, #1
    1efa:	8d81      	ldrh	r1, [r0, #44]	; 0x2c
    1efc:	482e      	ldr	r0, [pc, #184]	; (1fb8 <spi_msp432::initialize()+0xc4>)
    1efe:	f7ff fc85 	bl	180c <gpio_msp432::setSEL(unsigned short, unsigned char)>
    1f02:	7963      	ldrb	r3, [r4, #5]
    1f04:	2b00      	cmp	r3, #0
    1f06:	d04e      	beq.n	1fa6 <spi_msp432::initialize()+0xb2>
    1f08:	2202      	movs	r2, #2
    1f0a:	4d2b      	ldr	r5, [pc, #172]	; (1fb8 <spi_msp432::initialize()+0xc4>)
    1f0c:	8da1      	ldrh	r1, [r4, #44]	; 0x2c
    1f0e:	4628      	mov	r0, r5
    1f10:	f7ff fca8 	bl	1864 <gpio_msp432::setMode(unsigned short, unsigned short)>
    1f14:	2201      	movs	r2, #1
    1f16:	8ea1      	ldrh	r1, [r4, #52]	; 0x34
    1f18:	4628      	mov	r0, r5
    1f1a:	f7ff fc77 	bl	180c <gpio_msp432::setSEL(unsigned short, unsigned char)>
    1f1e:	7963      	ldrb	r3, [r4, #5]
    1f20:	2b00      	cmp	r3, #0
    1f22:	d042      	beq.n	1faa <spi_msp432::initialize()+0xb6>
    1f24:	2201      	movs	r2, #1
    1f26:	4d24      	ldr	r5, [pc, #144]	; (1fb8 <spi_msp432::initialize()+0xc4>)
    1f28:	8ea1      	ldrh	r1, [r4, #52]	; 0x34
    1f2a:	4628      	mov	r0, r5
    1f2c:	f7ff fc9a 	bl	1864 <gpio_msp432::setMode(unsigned short, unsigned short)>
    1f30:	2201      	movs	r2, #1
    1f32:	8fa1      	ldrh	r1, [r4, #60]	; 0x3c
    1f34:	4628      	mov	r0, r5
    1f36:	f7ff fc69 	bl	180c <gpio_msp432::setSEL(unsigned short, unsigned char)>
    1f3a:	7963      	ldrb	r3, [r4, #5]
    1f3c:	2b00      	cmp	r3, #0
    1f3e:	d036      	beq.n	1fae <spi_msp432::initialize()+0xba>
    1f40:	2202      	movs	r2, #2
    1f42:	8fa1      	ldrh	r1, [r4, #60]	; 0x3c
    1f44:	481c      	ldr	r0, [pc, #112]	; (1fb8 <spi_msp432::initialize()+0xc4>)
    1f46:	f7ff fc8d 	bl	1864 <gpio_msp432::setMode(unsigned short, unsigned short)>
    1f4a:	6c63      	ldr	r3, [r4, #68]	; 0x44
    1f4c:	7962      	ldrb	r2, [r4, #5]
    1f4e:	2a00      	cmp	r2, #0
    1f50:	d02f      	beq.n	1fb2 <spi_msp432::initialize()+0xbe>
    1f52:	f44f 7281 	mov.w	r2, #258	; 0x102
    1f56:	6818      	ldr	r0, [r3, #0]
    1f58:	6801      	ldr	r1, [r0, #0]
    1f5a:	680d      	ldr	r5, [r1, #0]
    1f5c:	8899      	ldrh	r1, [r3, #4]
    1f5e:	47a8      	blx	r5
    1f60:	68a3      	ldr	r3, [r4, #8]
    1f62:	2201      	movs	r2, #1
    1f64:	801a      	strh	r2, [r3, #0]
    1f66:	7963      	ldrb	r3, [r4, #5]
    1f68:	b12b      	cbz	r3, 1f76 <spi_msp432::initialize()+0x82>
    1f6a:	f8b4 3040 	ldrh.w	r3, [r4, #64]	; 0x40
    1f6e:	f443 6300 	orr.w	r3, r3, #2048	; 0x800
    1f72:	f8a4 3040 	strh.w	r3, [r4, #64]	; 0x40
    1f76:	f8b4 3040 	ldrh.w	r3, [r4, #64]	; 0x40
    1f7a:	f443 7381 	orr.w	r3, r3, #258	; 0x102
    1f7e:	f8a4 3040 	strh.w	r3, [r4, #64]	; 0x40
    1f82:	68a1      	ldr	r1, [r4, #8]
    1f84:	880a      	ldrh	r2, [r1, #0]
    1f86:	b292      	uxth	r2, r2
    1f88:	4313      	orrs	r3, r2
    1f8a:	800b      	strh	r3, [r1, #0]
    1f8c:	69e3      	ldr	r3, [r4, #28]
    1f8e:	2200      	movs	r2, #0
    1f90:	801a      	strh	r2, [r3, #0]
    1f92:	68a2      	ldr	r2, [r4, #8]
    1f94:	8813      	ldrh	r3, [r2, #0]
    1f96:	b29b      	uxth	r3, r3
    1f98:	f023 0301 	bic.w	r3, r3, #1
    1f9c:	b29b      	uxth	r3, r3
    1f9e:	8013      	strh	r3, [r2, #0]
    1fa0:	2301      	movs	r3, #1
    1fa2:	7123      	strb	r3, [r4, #4]
    1fa4:	bd38      	pop	{r3, r4, r5, pc}
    1fa6:	2201      	movs	r2, #1
    1fa8:	e7af      	b.n	1f0a <spi_msp432::initialize()+0x16>
    1faa:	2202      	movs	r2, #2
    1fac:	e7bb      	b.n	1f26 <spi_msp432::initialize()+0x32>
    1fae:	2201      	movs	r2, #1
    1fb0:	e7c7      	b.n	1f42 <spi_msp432::initialize()+0x4e>
    1fb2:	2201      	movs	r2, #1
    1fb4:	e7cf      	b.n	1f56 <spi_msp432::initialize()+0x62>
    1fb6:	bf00      	nop
    1fb8:	2000016c 	.word	0x2000016c

00001fbc <spi_msp432::spiTxRx(unsigned char const*, unsigned char*, unsigned short)>:
    1fbc:	e92d 41f0 	stmdb	sp!, {r4, r5, r6, r7, r8, lr}
    1fc0:	4604      	mov	r4, r0
    1fc2:	460f      	mov	r7, r1
    1fc4:	4616      	mov	r6, r2
    1fc6:	461d      	mov	r5, r3
    1fc8:	7903      	ldrb	r3, [r0, #4]
    1fca:	b163      	cbz	r3, 1fe6 <spi_msp432::spiTxRx(unsigned char const*, unsigned char*, unsigned short)+0x2a>
    1fcc:	7963      	ldrb	r3, [r4, #5]
    1fce:	b16b      	cbz	r3, 1fec <spi_msp432::spiTxRx(unsigned char const*, unsigned char*, unsigned short)+0x30>
    1fd0:	79a3      	ldrb	r3, [r4, #6]
    1fd2:	b19b      	cbz	r3, 1ffc <spi_msp432::spiTxRx(unsigned char const*, unsigned char*, unsigned short)+0x40>
    1fd4:	6c63      	ldr	r3, [r4, #68]	; 0x44
    1fd6:	6818      	ldr	r0, [r3, #0]
    1fd8:	6802      	ldr	r2, [r0, #0]
    1fda:	f8d2 8008 	ldr.w	r8, [r2, #8]
    1fde:	2200      	movs	r2, #0
    1fe0:	8899      	ldrh	r1, [r3, #4]
    1fe2:	47c0      	blx	r8
    1fe4:	e00a      	b.n	1ffc <spi_msp432::spiTxRx(unsigned char const*, unsigned char*, unsigned short)+0x40>
    1fe6:	f7ff ff85 	bl	1ef4 <spi_msp432::initialize()>
    1fea:	e7ef      	b.n	1fcc <spi_msp432::spiTxRx(unsigned char const*, unsigned char*, unsigned short)+0x10>
    1fec:	6c63      	ldr	r3, [r4, #68]	; 0x44
    1fee:	6818      	ldr	r0, [r3, #0]
    1ff0:	6802      	ldr	r2, [r0, #0]
    1ff2:	6852      	ldr	r2, [r2, #4]
    1ff4:	8899      	ldrh	r1, [r3, #4]
    1ff6:	4790      	blx	r2
    1ff8:	2800      	cmp	r0, #0
    1ffa:	d1f7      	bne.n	1fec <spi_msp432::spiTxRx(unsigned char const*, unsigned char*, unsigned short)+0x30>
    1ffc:	6a22      	ldr	r2, [r4, #32]
    1ffe:	2300      	movs	r3, #0
    2000:	8013      	strh	r3, [r2, #0]
    2002:	6922      	ldr	r2, [r4, #16]
    2004:	8013      	strh	r3, [r2, #0]
    2006:	6962      	ldr	r2, [r4, #20]
    2008:	8812      	ldrh	r2, [r2, #0]
    200a:	7032      	strb	r2, [r6, #0]
    200c:	e011      	b.n	2032 <spi_msp432::spiTxRx(unsigned char const*, unsigned char*, unsigned short)+0x76>
    200e:	461a      	mov	r2, r3
    2010:	5cf8      	ldrb	r0, [r7, r3]
    2012:	69a1      	ldr	r1, [r4, #24]
    2014:	8008      	strh	r0, [r1, #0]
    2016:	6a20      	ldr	r0, [r4, #32]
    2018:	8800      	ldrh	r0, [r0, #0]
    201a:	f010 0f01 	tst.w	r0, #1
    201e:	d0fa      	beq.n	2016 <spi_msp432::spiTxRx(unsigned char const*, unsigned char*, unsigned short)+0x5a>
    2020:	6961      	ldr	r1, [r4, #20]
    2022:	8809      	ldrh	r1, [r1, #0]
    2024:	54b1      	strb	r1, [r6, r2]
    2026:	6a20      	ldr	r0, [r4, #32]
    2028:	8800      	ldrh	r0, [r0, #0]
    202a:	f010 0f02 	tst.w	r0, #2
    202e:	d0fa      	beq.n	2026 <spi_msp432::spiTxRx(unsigned char const*, unsigned char*, unsigned short)+0x6a>
    2030:	3301      	adds	r3, #1
    2032:	429d      	cmp	r5, r3
    2034:	dceb      	bgt.n	200e <spi_msp432::spiTxRx(unsigned char const*, unsigned char*, unsigned short)+0x52>
    2036:	7963      	ldrb	r3, [r4, #5]
    2038:	b14b      	cbz	r3, 204e <spi_msp432::spiTxRx(unsigned char const*, unsigned char*, unsigned short)+0x92>
    203a:	79a3      	ldrb	r3, [r4, #6]
    203c:	b17b      	cbz	r3, 205e <spi_msp432::spiTxRx(unsigned char const*, unsigned char*, unsigned short)+0xa2>
    203e:	6c63      	ldr	r3, [r4, #68]	; 0x44
    2040:	6818      	ldr	r0, [r3, #0]
    2042:	6802      	ldr	r2, [r0, #0]
    2044:	6894      	ldr	r4, [r2, #8]
    2046:	2201      	movs	r2, #1
    2048:	8899      	ldrh	r1, [r3, #4]
    204a:	47a0      	blx	r4
    204c:	e007      	b.n	205e <spi_msp432::spiTxRx(unsigned char const*, unsigned char*, unsigned short)+0xa2>
    204e:	6c63      	ldr	r3, [r4, #68]	; 0x44
    2050:	6818      	ldr	r0, [r3, #0]
    2052:	6802      	ldr	r2, [r0, #0]
    2054:	6852      	ldr	r2, [r2, #4]
    2056:	8899      	ldrh	r1, [r3, #4]
    2058:	4790      	blx	r2
    205a:	2800      	cmp	r0, #0
    205c:	d0f7      	beq.n	204e <spi_msp432::spiTxRx(unsigned char const*, unsigned char*, unsigned short)+0x92>
    205e:	b228      	sxth	r0, r5
    2060:	e8bd 81f0 	ldmia.w	sp!, {r4, r5, r6, r7, r8, pc}

00002064 <spi_msp432::spiTx(unsigned char const*, unsigned short)>:
    2064:	b5f8      	push	{r3, r4, r5, r6, r7, lr}
    2066:	4604      	mov	r4, r0
    2068:	460e      	mov	r6, r1
    206a:	4615      	mov	r5, r2
    206c:	7903      	ldrb	r3, [r0, #4]
    206e:	b15b      	cbz	r3, 2088 <spi_msp432::spiTx(unsigned char const*, unsigned short)+0x24>
    2070:	7963      	ldrb	r3, [r4, #5]
    2072:	b163      	cbz	r3, 208e <spi_msp432::spiTx(unsigned char const*, unsigned short)+0x2a>
    2074:	79a3      	ldrb	r3, [r4, #6]
    2076:	b193      	cbz	r3, 209e <spi_msp432::spiTx(unsigned char const*, unsigned short)+0x3a>
    2078:	6c63      	ldr	r3, [r4, #68]	; 0x44
    207a:	6818      	ldr	r0, [r3, #0]
    207c:	6802      	ldr	r2, [r0, #0]
    207e:	6897      	ldr	r7, [r2, #8]
    2080:	2200      	movs	r2, #0
    2082:	8899      	ldrh	r1, [r3, #4]
    2084:	47b8      	blx	r7
    2086:	e00a      	b.n	209e <spi_msp432::spiTx(unsigned char const*, unsigned short)+0x3a>
    2088:	f7ff ff34 	bl	1ef4 <spi_msp432::initialize()>
    208c:	e7f0      	b.n	2070 <spi_msp432::spiTx(unsigned char const*, unsigned short)+0xc>
    208e:	6c63      	ldr	r3, [r4, #68]	; 0x44
    2090:	6818      	ldr	r0, [r3, #0]
    2092:	6802      	ldr	r2, [r0, #0]
    2094:	6852      	ldr	r2, [r2, #4]
    2096:	8899      	ldrh	r1, [r3, #4]
    2098:	4790      	blx	r2
    209a:	2800      	cmp	r0, #0
    209c:	d1f7      	bne.n	208e <spi_msp432::spiTx(unsigned char const*, unsigned short)+0x2a>
    209e:	6a23      	ldr	r3, [r4, #32]
    20a0:	2000      	movs	r0, #0
    20a2:	8018      	strh	r0, [r3, #0]
    20a4:	6923      	ldr	r3, [r4, #16]
    20a6:	8018      	strh	r0, [r3, #0]
    20a8:	e008      	b.n	20bc <spi_msp432::spiTx(unsigned char const*, unsigned short)+0x58>
    20aa:	5c32      	ldrb	r2, [r6, r0]
    20ac:	69a3      	ldr	r3, [r4, #24]
    20ae:	801a      	strh	r2, [r3, #0]
    20b0:	6a23      	ldr	r3, [r4, #32]
    20b2:	881b      	ldrh	r3, [r3, #0]
    20b4:	f013 0f02 	tst.w	r3, #2
    20b8:	d0fa      	beq.n	20b0 <spi_msp432::spiTx(unsigned char const*, unsigned short)+0x4c>
    20ba:	3001      	adds	r0, #1
    20bc:	4285      	cmp	r5, r0
    20be:	dcf4      	bgt.n	20aa <spi_msp432::spiTx(unsigned char const*, unsigned short)+0x46>
    20c0:	7963      	ldrb	r3, [r4, #5]
    20c2:	b14b      	cbz	r3, 20d8 <spi_msp432::spiTx(unsigned char const*, unsigned short)+0x74>
    20c4:	79a3      	ldrb	r3, [r4, #6]
    20c6:	b17b      	cbz	r3, 20e8 <spi_msp432::spiTx(unsigned char const*, unsigned short)+0x84>
    20c8:	6c63      	ldr	r3, [r4, #68]	; 0x44
    20ca:	6818      	ldr	r0, [r3, #0]
    20cc:	6802      	ldr	r2, [r0, #0]
    20ce:	6894      	ldr	r4, [r2, #8]
    20d0:	2201      	movs	r2, #1
    20d2:	8899      	ldrh	r1, [r3, #4]
    20d4:	47a0      	blx	r4
    20d6:	e007      	b.n	20e8 <spi_msp432::spiTx(unsigned char const*, unsigned short)+0x84>
    20d8:	6c63      	ldr	r3, [r4, #68]	; 0x44
    20da:	6818      	ldr	r0, [r3, #0]
    20dc:	6802      	ldr	r2, [r0, #0]
    20de:	6852      	ldr	r2, [r2, #4]
    20e0:	8899      	ldrh	r1, [r3, #4]
    20e2:	4790      	blx	r2
    20e4:	2800      	cmp	r0, #0
    20e6:	d0f7      	beq.n	20d8 <spi_msp432::spiTx(unsigned char const*, unsigned short)+0x74>
    20e8:	b228      	sxth	r0, r5
    20ea:	bdf8      	pop	{r3, r4, r5, r6, r7, pc}

000020ec <spi_msp432::spiRx(unsigned char, unsigned char*, unsigned short)>:
    20ec:	e92d 41f0 	stmdb	sp!, {r4, r5, r6, r7, r8, lr}
    20f0:	4604      	mov	r4, r0
    20f2:	460f      	mov	r7, r1
    20f4:	4616      	mov	r6, r2
    20f6:	461d      	mov	r5, r3
    20f8:	7903      	ldrb	r3, [r0, #4]
    20fa:	b163      	cbz	r3, 2116 <spi_msp432::spiRx(unsigned char, unsigned char*, unsigned short)+0x2a>
    20fc:	7963      	ldrb	r3, [r4, #5]
    20fe:	b16b      	cbz	r3, 211c <spi_msp432::spiRx(unsigned char, unsigned char*, unsigned short)+0x30>
    2100:	79a3      	ldrb	r3, [r4, #6]
    2102:	b19b      	cbz	r3, 212c <spi_msp432::spiRx(unsigned char, unsigned char*, unsigned short)+0x40>
    2104:	6c63      	ldr	r3, [r4, #68]	; 0x44
    2106:	6818      	ldr	r0, [r3, #0]
    2108:	6802      	ldr	r2, [r0, #0]
    210a:	f8d2 8008 	ldr.w	r8, [r2, #8]
    210e:	2200      	movs	r2, #0
    2110:	8899      	ldrh	r1, [r3, #4]
    2112:	47c0      	blx	r8
    2114:	e00a      	b.n	212c <spi_msp432::spiRx(unsigned char, unsigned char*, unsigned short)+0x40>
    2116:	f7ff feed 	bl	1ef4 <spi_msp432::initialize()>
    211a:	e7ef      	b.n	20fc <spi_msp432::spiRx(unsigned char, unsigned char*, unsigned short)+0x10>
    211c:	6c63      	ldr	r3, [r4, #68]	; 0x44
    211e:	6818      	ldr	r0, [r3, #0]
    2120:	6802      	ldr	r2, [r0, #0]
    2122:	6852      	ldr	r2, [r2, #4]
    2124:	8899      	ldrh	r1, [r3, #4]
    2126:	4790      	blx	r2
    2128:	2800      	cmp	r0, #0
    212a:	d1f7      	bne.n	211c <spi_msp432::spiRx(unsigned char, unsigned char*, unsigned short)+0x30>
    212c:	6a22      	ldr	r2, [r4, #32]
    212e:	2300      	movs	r3, #0
    2130:	8013      	strh	r3, [r2, #0]
    2132:	6922      	ldr	r2, [r4, #16]
    2134:	8013      	strh	r3, [r2, #0]
    2136:	6962      	ldr	r2, [r4, #20]
    2138:	8812      	ldrh	r2, [r2, #0]
    213a:	7032      	strb	r2, [r6, #0]
    213c:	e00f      	b.n	215e <spi_msp432::spiRx(unsigned char, unsigned char*, unsigned short)+0x72>
    213e:	69a2      	ldr	r2, [r4, #24]
    2140:	8017      	strh	r7, [r2, #0]
    2142:	6a20      	ldr	r0, [r4, #32]
    2144:	8800      	ldrh	r0, [r0, #0]
    2146:	f010 0f01 	tst.w	r0, #1
    214a:	d0fa      	beq.n	2142 <spi_msp432::spiRx(unsigned char, unsigned char*, unsigned short)+0x56>
    214c:	6962      	ldr	r2, [r4, #20]
    214e:	8812      	ldrh	r2, [r2, #0]
    2150:	54f2      	strb	r2, [r6, r3]
    2152:	6a20      	ldr	r0, [r4, #32]
    2154:	8800      	ldrh	r0, [r0, #0]
    2156:	f010 0f02 	tst.w	r0, #2
    215a:	d0fa      	beq.n	2152 <spi_msp432::spiRx(unsigned char, unsigned char*, unsigned short)+0x66>
    215c:	3301      	adds	r3, #1
    215e:	429d      	cmp	r5, r3
    2160:	dced      	bgt.n	213e <spi_msp432::spiRx(unsigned char, unsigned char*, unsigned short)+0x52>
    2162:	7963      	ldrb	r3, [r4, #5]
    2164:	b14b      	cbz	r3, 217a <spi_msp432::spiRx(unsigned char, unsigned char*, unsigned short)+0x8e>
    2166:	79a3      	ldrb	r3, [r4, #6]
    2168:	b17b      	cbz	r3, 218a <spi_msp432::spiRx(unsigned char, unsigned char*, unsigned short)+0x9e>
    216a:	6c63      	ldr	r3, [r4, #68]	; 0x44
    216c:	6818      	ldr	r0, [r3, #0]
    216e:	6802      	ldr	r2, [r0, #0]
    2170:	6894      	ldr	r4, [r2, #8]
    2172:	2201      	movs	r2, #1
    2174:	8899      	ldrh	r1, [r3, #4]
    2176:	47a0      	blx	r4
    2178:	e007      	b.n	218a <spi_msp432::spiRx(unsigned char, unsigned char*, unsigned short)+0x9e>
    217a:	6c63      	ldr	r3, [r4, #68]	; 0x44
    217c:	6818      	ldr	r0, [r3, #0]
    217e:	6802      	ldr	r2, [r0, #0]
    2180:	6852      	ldr	r2, [r2, #4]
    2182:	8899      	ldrh	r1, [r3, #4]
    2184:	4790      	blx	r2
    2186:	2800      	cmp	r0, #0
    2188:	d0f7      	beq.n	217a <spi_msp432::spiRx(unsigned char, unsigned char*, unsigned short)+0x8e>
    218a:	b228      	sxth	r0, r5
    218c:	e8bd 81f0 	ldmia.w	sp!, {r4, r5, r6, r7, r8, pc}

00002190 <spi_msp432::setSpeed(unsigned long)>:
    2190:	b538      	push	{r3, r4, r5, lr}
    2192:	4604      	mov	r4, r0
    2194:	460d      	mov	r5, r1
    2196:	7903      	ldrb	r3, [r0, #4]
    2198:	b13b      	cbz	r3, 21aa <spi_msp432::setSpeed(unsigned long)+0x1a>
    219a:	4b05      	ldr	r3, [pc, #20]	; (21b0 <spi_msp432::setSpeed(unsigned long)+0x20>)
    219c:	6819      	ldr	r1, [r3, #0]
    219e:	fbb1 f1f5 	udiv	r1, r1, r5
    21a2:	68e3      	ldr	r3, [r4, #12]
    21a4:	b289      	uxth	r1, r1
    21a6:	8019      	strh	r1, [r3, #0]
    21a8:	bd38      	pop	{r3, r4, r5, pc}
    21aa:	f7ff fea3 	bl	1ef4 <spi_msp432::initialize()>
    21ae:	e7f4      	b.n	219a <spi_msp432::setSpeed(unsigned long)+0xa>
    21b0:	20000034 	.word	0x20000034

000021b4 <spi_msp432::generateCS(bool)>:
    21b4:	b538      	push	{r3, r4, r5, lr}
    21b6:	4604      	mov	r4, r0
    21b8:	460d      	mov	r5, r1
    21ba:	7903      	ldrb	r3, [r0, #4]
    21bc:	b10b      	cbz	r3, 21c2 <spi_msp432::generateCS(bool)+0xe>
    21be:	71a5      	strb	r5, [r4, #6]
    21c0:	bd38      	pop	{r3, r4, r5, pc}
    21c2:	f7ff fe97 	bl	1ef4 <spi_msp432::initialize()>
    21c6:	e7fa      	b.n	21be <spi_msp432::generateCS(bool)+0xa>

000021c8 <spi_msp432::setCS(bool)>:
    21c8:	b538      	push	{r3, r4, r5, lr}
    21ca:	4604      	mov	r4, r0
    21cc:	460d      	mov	r5, r1
    21ce:	7903      	ldrb	r3, [r0, #4]
    21d0:	b13b      	cbz	r3, 21e2 <spi_msp432::setCS(bool)+0x1a>
    21d2:	6c63      	ldr	r3, [r4, #68]	; 0x44
    21d4:	6818      	ldr	r0, [r3, #0]
    21d6:	6802      	ldr	r2, [r0, #0]
    21d8:	6894      	ldr	r4, [r2, #8]
    21da:	462a      	mov	r2, r5
    21dc:	8899      	ldrh	r1, [r3, #4]
    21de:	47a0      	blx	r4
    21e0:	bd38      	pop	{r3, r4, r5, pc}
    21e2:	f7ff fe87 	bl	1ef4 <spi_msp432::initialize()>
    21e6:	e7f4      	b.n	21d2 <spi_msp432::setCS(bool)+0xa>

000021e8 <std::function<void (unsigned char)>::operator()(unsigned char) const>:
    21e8:	b500      	push	{lr}
    21ea:	b083      	sub	sp, #12
    21ec:	f88d 1007 	strb.w	r1, [sp, #7]
    21f0:	6883      	ldr	r3, [r0, #8]
    21f2:	b133      	cbz	r3, 2202 <std::function<void (unsigned char)>::operator()(unsigned char) const+0x1a>
    21f4:	68c3      	ldr	r3, [r0, #12]
    21f6:	f10d 0107 	add.w	r1, sp, #7
    21fa:	4798      	blx	r3
    21fc:	b003      	add	sp, #12
    21fe:	f85d fb04 	ldr.w	pc, [sp], #4
    2202:	f000 fe97 	bl	2f34 <__yahal_bad_function_call>
	...

00002208 <EUSCIA0_SPI_IRQHandler>:
    2208:	b508      	push	{r3, lr}
    220a:	4b03      	ldr	r3, [pc, #12]	; (2218 <EUSCIA0_SPI_IRQHandler+0x10>)
    220c:	8999      	ldrh	r1, [r3, #12]
    220e:	b2c9      	uxtb	r1, r1
    2210:	4802      	ldr	r0, [pc, #8]	; (221c <EUSCIA0_SPI_IRQHandler+0x14>)
    2212:	f7ff ffe9 	bl	21e8 <std::function<void (unsigned char)>::operator()(unsigned char) const>
    2216:	bd08      	pop	{r3, pc}
    2218:	40001000 	.word	0x40001000
    221c:	200000ec 	.word	0x200000ec

00002220 <EUSCIA1_SPI_IRQHandler>:
    2220:	b508      	push	{r3, lr}
    2222:	4b03      	ldr	r3, [pc, #12]	; (2230 <EUSCIA1_SPI_IRQHandler+0x10>)
    2224:	8999      	ldrh	r1, [r3, #12]
    2226:	b2c9      	uxtb	r1, r1
    2228:	4802      	ldr	r0, [pc, #8]	; (2234 <EUSCIA1_SPI_IRQHandler+0x14>)
    222a:	f7ff ffdd 	bl	21e8 <std::function<void (unsigned char)>::operator()(unsigned char) const>
    222e:	bd08      	pop	{r3, pc}
    2230:	40001400 	.word	0x40001400
    2234:	200000fc 	.word	0x200000fc

00002238 <EUSCIA2_SPI_IRQHandler>:
    2238:	b508      	push	{r3, lr}
    223a:	4b03      	ldr	r3, [pc, #12]	; (2248 <EUSCIA2_SPI_IRQHandler+0x10>)
    223c:	8999      	ldrh	r1, [r3, #12]
    223e:	b2c9      	uxtb	r1, r1
    2240:	4802      	ldr	r0, [pc, #8]	; (224c <EUSCIA2_SPI_IRQHandler+0x14>)
    2242:	f7ff ffd1 	bl	21e8 <std::function<void (unsigned char)>::operator()(unsigned char) const>
    2246:	bd08      	pop	{r3, pc}
    2248:	40001800 	.word	0x40001800
    224c:	2000010c 	.word	0x2000010c

00002250 <EUSCIA3_SPI_IRQHandler>:
    2250:	b508      	push	{r3, lr}
    2252:	4b03      	ldr	r3, [pc, #12]	; (2260 <EUSCIA3_SPI_IRQHandler+0x10>)
    2254:	8999      	ldrh	r1, [r3, #12]
    2256:	b2c9      	uxtb	r1, r1
    2258:	4802      	ldr	r0, [pc, #8]	; (2264 <EUSCIA3_SPI_IRQHandler+0x14>)
    225a:	f7ff ffc5 	bl	21e8 <std::function<void (unsigned char)>::operator()(unsigned char) const>
    225e:	bd08      	pop	{r3, pc}
    2260:	40001c00 	.word	0x40001c00
    2264:	2000011c 	.word	0x2000011c

00002268 <EUSCIB0_SPI_IRQHandler>:
    2268:	b508      	push	{r3, lr}
    226a:	4b03      	ldr	r3, [pc, #12]	; (2278 <EUSCIB0_SPI_IRQHandler+0x10>)
    226c:	8999      	ldrh	r1, [r3, #12]
    226e:	b2c9      	uxtb	r1, r1
    2270:	4802      	ldr	r0, [pc, #8]	; (227c <EUSCIB0_SPI_IRQHandler+0x14>)
    2272:	f7ff ffb9 	bl	21e8 <std::function<void (unsigned char)>::operator()(unsigned char) const>
    2276:	bd08      	pop	{r3, pc}
    2278:	40002000 	.word	0x40002000
    227c:	2000012c 	.word	0x2000012c

00002280 <EUSCIB1_SPI_IRQHandler>:
    2280:	b508      	push	{r3, lr}
    2282:	4b03      	ldr	r3, [pc, #12]	; (2290 <EUSCIB1_SPI_IRQHandler+0x10>)
    2284:	8999      	ldrh	r1, [r3, #12]
    2286:	b2c9      	uxtb	r1, r1
    2288:	4802      	ldr	r0, [pc, #8]	; (2294 <EUSCIB1_SPI_IRQHandler+0x14>)
    228a:	f7ff ffad 	bl	21e8 <std::function<void (unsigned char)>::operator()(unsigned char) const>
    228e:	bd08      	pop	{r3, pc}
    2290:	40002400 	.word	0x40002400
    2294:	2000013c 	.word	0x2000013c

00002298 <EUSCIB2_SPI_IRQHandler>:
    2298:	b508      	push	{r3, lr}
    229a:	4b03      	ldr	r3, [pc, #12]	; (22a8 <EUSCIB2_SPI_IRQHandler+0x10>)
    229c:	8999      	ldrh	r1, [r3, #12]
    229e:	b2c9      	uxtb	r1, r1
    22a0:	4802      	ldr	r0, [pc, #8]	; (22ac <EUSCIB2_SPI_IRQHandler+0x14>)
    22a2:	f7ff ffa1 	bl	21e8 <std::function<void (unsigned char)>::operator()(unsigned char) const>
    22a6:	bd08      	pop	{r3, pc}
    22a8:	40002800 	.word	0x40002800
    22ac:	2000014c 	.word	0x2000014c

000022b0 <EUSCIB3_SPI_IRQHandler>:
    22b0:	b508      	push	{r3, lr}
    22b2:	4b03      	ldr	r3, [pc, #12]	; (22c0 <EUSCIB3_SPI_IRQHandler+0x10>)
    22b4:	8999      	ldrh	r1, [r3, #12]
    22b6:	b2c9      	uxtb	r1, r1
    22b8:	4802      	ldr	r0, [pc, #8]	; (22c4 <EUSCIB3_SPI_IRQHandler+0x14>)
    22ba:	f7ff ff95 	bl	21e8 <std::function<void (unsigned char)>::operator()(unsigned char) const>
    22be:	bd08      	pop	{r3, pc}
    22c0:	40002c00 	.word	0x40002c00
    22c4:	2000015c 	.word	0x2000015c

000022c8 <std::function<void (unsigned char)>::function(std::function<void (unsigned char)> const&)>:
    22c8:	b538      	push	{r3, r4, r5, lr}
    22ca:	4604      	mov	r4, r0
    22cc:	2300      	movs	r3, #0
    22ce:	6003      	str	r3, [r0, #0]
    22d0:	6043      	str	r3, [r0, #4]
    22d2:	6083      	str	r3, [r0, #8]
    22d4:	60c3      	str	r3, [r0, #12]
    22d6:	688b      	ldr	r3, [r1, #8]
    22d8:	b133      	cbz	r3, 22e8 <std::function<void (unsigned char)>::function(std::function<void (unsigned char)> const&)+0x20>
    22da:	460d      	mov	r5, r1
    22dc:	2202      	movs	r2, #2
    22de:	4798      	blx	r3
    22e0:	68eb      	ldr	r3, [r5, #12]
    22e2:	60e3      	str	r3, [r4, #12]
    22e4:	68ab      	ldr	r3, [r5, #8]
    22e6:	60a3      	str	r3, [r4, #8]
    22e8:	4620      	mov	r0, r4
    22ea:	bd38      	pop	{r3, r4, r5, pc}

000022ec <std::function<void (unsigned char)>::swap(std::function<void (unsigned char)>&)>:
    22ec:	b538      	push	{r3, r4, r5, lr}
    22ee:	4605      	mov	r5, r0
    22f0:	460c      	mov	r4, r1
    22f2:	f7ff fc59 	bl	1ba8 <std::enable_if<std::__and_<std::__not_<std::__is_tuple_like<std::_Any_data> >, std::is_move_constructible<std::_Any_data>, std::is_move_assignable<std::_Any_data> >::value, void>::type std::swap<std::_Any_data>(std::_Any_data&, std::_Any_data&)>
    22f6:	68ab      	ldr	r3, [r5, #8]
    22f8:	68a2      	ldr	r2, [r4, #8]
    22fa:	60aa      	str	r2, [r5, #8]
    22fc:	60a3      	str	r3, [r4, #8]
    22fe:	68eb      	ldr	r3, [r5, #12]
    2300:	68e2      	ldr	r2, [r4, #12]
    2302:	60ea      	str	r2, [r5, #12]
    2304:	60e3      	str	r3, [r4, #12]
    2306:	bd38      	pop	{r3, r4, r5, pc}

00002308 <std::function<void (unsigned char)>::operator=(std::function<void (unsigned char)> const&)>:
    2308:	b510      	push	{r4, lr}
    230a:	b084      	sub	sp, #16
    230c:	4604      	mov	r4, r0
    230e:	4668      	mov	r0, sp
    2310:	f7ff ffda 	bl	22c8 <std::function<void (unsigned char)>::function(std::function<void (unsigned char)> const&)>
    2314:	4621      	mov	r1, r4
    2316:	4668      	mov	r0, sp
    2318:	f7ff ffe8 	bl	22ec <std::function<void (unsigned char)>::swap(std::function<void (unsigned char)>&)>
    231c:	4668      	mov	r0, sp
    231e:	f7ff fa0b 	bl	1738 <std::_Function_base::~_Function_base()>
    2322:	4620      	mov	r0, r4
    2324:	b004      	add	sp, #16
    2326:	bd10      	pop	{r4, pc}

00002328 <spi_msp432::spiAttachRxIrq(std::function<void (unsigned char)>)>:
    2328:	b510      	push	{r4, lr}
    232a:	4604      	mov	r4, r0
    232c:	f990 3048 	ldrsb.w	r3, [r0, #72]	; 0x48
    2330:	3b10      	subs	r3, #16
    2332:	4806      	ldr	r0, [pc, #24]	; (234c <spi_msp432::spiAttachRxIrq(std::function<void (unsigned char)>)+0x24>)
    2334:	eb00 1003 	add.w	r0, r0, r3, lsl #4
    2338:	f7ff ffe6 	bl	2308 <std::function<void (unsigned char)>::operator=(std::function<void (unsigned char)> const&)>
    233c:	69e3      	ldr	r3, [r4, #28]
    233e:	2201      	movs	r2, #1
    2340:	801a      	strh	r2, [r3, #0]
    2342:	f994 0048 	ldrsb.w	r0, [r4, #72]	; 0x48
    2346:	f7ff fce3 	bl	1d10 <__NVIC_EnableIRQ>
    234a:	bd10      	pop	{r4, pc}
    234c:	200000ec 	.word	0x200000ec

00002350 <_GLOBAL__sub_I_SPI_CLK>:
    2350:	b508      	push	{r3, lr}
    2352:	f64f 71ff 	movw	r1, #65535	; 0xffff
    2356:	2001      	movs	r0, #1
    2358:	f7ff fd06 	bl	1d68 <__static_initialization_and_destruction_0(int, int)>
    235c:	bd08      	pop	{r3, pc}

0000235e <AES256_IRQHandler>:
    235e:	e7fe      	b.n	235e <AES256_IRQHandler>

00002360 <Reset_Handler>:
    2360:	b508      	push	{r3, lr}
    2362:	f000 fbc1 	bl	2ae8 <SystemInit>
    2366:	4a12      	ldr	r2, [pc, #72]	; (23b0 <Reset_Handler+0x50>)
    2368:	e00a      	b.n	2380 <Reset_Handler+0x20>
    236a:	6810      	ldr	r0, [r2, #0]
    236c:	6851      	ldr	r1, [r2, #4]
    236e:	f850 0023 	ldr.w	r0, [r0, r3, lsl #2]
    2372:	f841 0023 	str.w	r0, [r1, r3, lsl #2]
    2376:	3301      	adds	r3, #1
    2378:	6891      	ldr	r1, [r2, #8]
    237a:	428b      	cmp	r3, r1
    237c:	d3f5      	bcc.n	236a <Reset_Handler+0xa>
    237e:	320c      	adds	r2, #12
    2380:	4b0c      	ldr	r3, [pc, #48]	; (23b4 <Reset_Handler+0x54>)
    2382:	429a      	cmp	r2, r3
    2384:	d201      	bcs.n	238a <Reset_Handler+0x2a>
    2386:	2300      	movs	r3, #0
    2388:	e7f6      	b.n	2378 <Reset_Handler+0x18>
    238a:	4a0b      	ldr	r2, [pc, #44]	; (23b8 <Reset_Handler+0x58>)
    238c:	e008      	b.n	23a0 <Reset_Handler+0x40>
    238e:	6811      	ldr	r1, [r2, #0]
    2390:	2000      	movs	r0, #0
    2392:	f841 0023 	str.w	r0, [r1, r3, lsl #2]
    2396:	3301      	adds	r3, #1
    2398:	6851      	ldr	r1, [r2, #4]
    239a:	428b      	cmp	r3, r1
    239c:	d3f7      	bcc.n	238e <Reset_Handler+0x2e>
    239e:	3208      	adds	r2, #8
    23a0:	4b06      	ldr	r3, [pc, #24]	; (23bc <Reset_Handler+0x5c>)
    23a2:	429a      	cmp	r2, r3
    23a4:	d201      	bcs.n	23aa <Reset_Handler+0x4a>
    23a6:	2300      	movs	r3, #0
    23a8:	e7f6      	b.n	2398 <Reset_Handler+0x38>
    23aa:	f004 fa8f 	bl	68cc <_mainCRTStartup>
    23ae:	bf00      	nop
    23b0:	0000f8b0 	.word	0x0000f8b0
    23b4:	0000f8bc 	.word	0x0000f8bc
    23b8:	0000f8c0 	.word	0x0000f8c0
    23bc:	0000f8c8 	.word	0x0000f8c8

000023c0 <__NVIC_EnableIRQ>:
    23c0:	2800      	cmp	r0, #0
    23c2:	db07      	blt.n	23d4 <__NVIC_EnableIRQ+0x14>
    23c4:	f000 021f 	and.w	r2, r0, #31
    23c8:	0940      	lsrs	r0, r0, #5
    23ca:	2301      	movs	r3, #1
    23cc:	4093      	lsls	r3, r2
    23ce:	4a02      	ldr	r2, [pc, #8]	; (23d8 <__NVIC_EnableIRQ+0x18>)
    23d0:	f842 3020 	str.w	r3, [r2, r0, lsl #2]
    23d4:	4770      	bx	lr
    23d6:	bf00      	nop
    23d8:	e000e100 	.word	0xe000e100

000023dc <__NVIC_DisableIRQ>:
    23dc:	2800      	cmp	r0, #0
    23de:	db0c      	blt.n	23fa <__NVIC_DisableIRQ+0x1e>
    23e0:	f000 021f 	and.w	r2, r0, #31
    23e4:	0940      	lsrs	r0, r0, #5
    23e6:	2301      	movs	r3, #1
    23e8:	4093      	lsls	r3, r2
    23ea:	3020      	adds	r0, #32
    23ec:	4a03      	ldr	r2, [pc, #12]	; (23fc <__NVIC_DisableIRQ+0x20>)
    23ee:	f842 3020 	str.w	r3, [r2, r0, lsl #2]
    23f2:	f3bf 8f4f 	dsb	sy
    23f6:	f3bf 8f6f 	isb	sy
    23fa:	4770      	bx	lr
    23fc:	e000e100 	.word	0xe000e100

00002400 <yahal_assert_func()>:
    2400:	e7fe      	b.n	2400 <yahal_assert_func()>

00002402 <uart_msp432::uartMode(unsigned short)>:
    2402:	8201      	strh	r1, [r0, #16]
    2404:	6882      	ldr	r2, [r0, #8]
    2406:	8813      	ldrh	r3, [r2, #0]
    2408:	b29b      	uxth	r3, r3
    240a:	f043 0301 	orr.w	r3, r3, #1
    240e:	8013      	strh	r3, [r2, #0]
    2410:	f011 0f01 	tst.w	r1, #1
    2414:	d005      	beq.n	2422 <uart_msp432::uartMode(unsigned short)+0x20>
    2416:	6882      	ldr	r2, [r0, #8]
    2418:	8813      	ldrh	r3, [r2, #0]
    241a:	b29b      	uxth	r3, r3
    241c:	f443 5380 	orr.w	r3, r3, #4096	; 0x1000
    2420:	8013      	strh	r3, [r2, #0]
    2422:	f011 0f02 	tst.w	r1, #2
    2426:	d006      	beq.n	2436 <uart_msp432::uartMode(unsigned short)+0x34>
    2428:	6882      	ldr	r2, [r0, #8]
    242a:	8813      	ldrh	r3, [r2, #0]
    242c:	b29b      	uxth	r3, r3
    242e:	f423 5380 	bic.w	r3, r3, #4096	; 0x1000
    2432:	b29b      	uxth	r3, r3
    2434:	8013      	strh	r3, [r2, #0]
    2436:	f011 0f04 	tst.w	r1, #4
    243a:	d004      	beq.n	2446 <uart_msp432::uartMode(unsigned short)+0x44>
    243c:	6882      	ldr	r2, [r0, #8]
    243e:	8813      	ldrh	r3, [r2, #0]
    2440:	f3c3 030e 	ubfx	r3, r3, #0, #15
    2444:	8013      	strh	r3, [r2, #0]
    2446:	f011 0f08 	tst.w	r1, #8
    244a:	d00d      	beq.n	2468 <uart_msp432::uartMode(unsigned short)+0x66>
    244c:	6882      	ldr	r2, [r0, #8]
    244e:	8813      	ldrh	r3, [r2, #0]
    2450:	ea6f 4343 	mvn.w	r3, r3, lsl #17
    2454:	ea6f 4353 	mvn.w	r3, r3, lsr #17
    2458:	b29b      	uxth	r3, r3
    245a:	8013      	strh	r3, [r2, #0]
    245c:	6882      	ldr	r2, [r0, #8]
    245e:	8813      	ldrh	r3, [r2, #0]
    2460:	b29b      	uxth	r3, r3
    2462:	f443 4380 	orr.w	r3, r3, #16384	; 0x4000
    2466:	8013      	strh	r3, [r2, #0]
    2468:	f011 0f10 	tst.w	r1, #16
    246c:	d00e      	beq.n	248c <uart_msp432::uartMode(unsigned short)+0x8a>
    246e:	6882      	ldr	r2, [r0, #8]
    2470:	8813      	ldrh	r3, [r2, #0]
    2472:	ea6f 4343 	mvn.w	r3, r3, lsl #17
    2476:	ea6f 4353 	mvn.w	r3, r3, lsr #17
    247a:	b29b      	uxth	r3, r3
    247c:	8013      	strh	r3, [r2, #0]
    247e:	6882      	ldr	r2, [r0, #8]
    2480:	8813      	ldrh	r3, [r2, #0]
    2482:	b29b      	uxth	r3, r3
    2484:	f423 4380 	bic.w	r3, r3, #16384	; 0x4000
    2488:	b29b      	uxth	r3, r3
    248a:	8013      	strh	r3, [r2, #0]
    248c:	f011 0f20 	tst.w	r1, #32
    2490:	d006      	beq.n	24a0 <uart_msp432::uartMode(unsigned short)+0x9e>
    2492:	6882      	ldr	r2, [r0, #8]
    2494:	8813      	ldrh	r3, [r2, #0]
    2496:	b29b      	uxth	r3, r3
    2498:	f423 6300 	bic.w	r3, r3, #2048	; 0x800
    249c:	b29b      	uxth	r3, r3
    249e:	8013      	strh	r3, [r2, #0]
    24a0:	f011 0f40 	tst.w	r1, #64	; 0x40
    24a4:	d005      	beq.n	24b2 <uart_msp432::uartMode(unsigned short)+0xb0>
    24a6:	6882      	ldr	r2, [r0, #8]
    24a8:	8813      	ldrh	r3, [r2, #0]
    24aa:	b29b      	uxth	r3, r3
    24ac:	f443 6300 	orr.w	r3, r3, #2048	; 0x800
    24b0:	8013      	strh	r3, [r2, #0]
    24b2:	6882      	ldr	r2, [r0, #8]
    24b4:	8813      	ldrh	r3, [r2, #0]
    24b6:	b29b      	uxth	r3, r3
    24b8:	f023 0301 	bic.w	r3, r3, #1
    24bc:	b29b      	uxth	r3, r3
    24be:	8013      	strh	r3, [r2, #0]
    24c0:	4770      	bx	lr
	...

000024c4 <uart_msp432::setBaudrate(unsigned long)>:
    24c4:	60c1      	str	r1, [r0, #12]
    24c6:	4b04      	ldr	r3, [pc, #16]	; (24d8 <uart_msp432::setBaudrate(unsigned long)+0x14>)
    24c8:	681b      	ldr	r3, [r3, #0]
    24ca:	fbb3 f1f1 	udiv	r1, r3, r1
    24ce:	6883      	ldr	r3, [r0, #8]
    24d0:	b289      	uxth	r1, r1
    24d2:	80d9      	strh	r1, [r3, #6]
    24d4:	4770      	bx	lr
    24d6:	bf00      	nop
    24d8:	20000034 	.word	0x20000034

000024dc <uart_msp432::uartEnableIrq()>:
    24dc:	6883      	ldr	r3, [r0, #8]
    24de:	2201      	movs	r2, #1
    24e0:	835a      	strh	r2, [r3, #26]
    24e2:	4770      	bx	lr

000024e4 <uart_msp432::uartDisableIrq()>:
    24e4:	6883      	ldr	r3, [r0, #8]
    24e6:	2200      	movs	r2, #0
    24e8:	835a      	strh	r2, [r3, #26]
    24ea:	4770      	bx	lr

000024ec <uart_msp432::~uart_msp432()>:
    24ec:	b538      	push	{r3, r4, r5, lr}
    24ee:	4604      	mov	r4, r0
    24f0:	4b11      	ldr	r3, [pc, #68]	; (2538 <uart_msp432::~uart_msp432()+0x4c>)
    24f2:	6003      	str	r3, [r0, #0]
    24f4:	7903      	ldrb	r3, [r0, #4]
    24f6:	b1db      	cbz	r3, 2530 <uart_msp432::~uart_msp432()+0x44>
    24f8:	68a3      	ldr	r3, [r4, #8]
    24fa:	895a      	ldrh	r2, [r3, #10]
    24fc:	f012 0f01 	tst.w	r2, #1
    2500:	d1fa      	bne.n	24f8 <uart_msp432::~uart_msp432()+0xc>
    2502:	2201      	movs	r2, #1
    2504:	801a      	strh	r2, [r3, #0]
    2506:	7ca1      	ldrb	r1, [r4, #18]
    2508:	7ce3      	ldrb	r3, [r4, #19]
    250a:	4d0c      	ldr	r5, [pc, #48]	; (253c <uart_msp432::~uart_msp432()+0x50>)
    250c:	2200      	movs	r2, #0
    250e:	ea43 2101 	orr.w	r1, r3, r1, lsl #8
    2512:	4628      	mov	r0, r5
    2514:	f7ff f97a 	bl	180c <gpio_msp432::setSEL(unsigned short, unsigned char)>
    2518:	7ca1      	ldrb	r1, [r4, #18]
    251a:	7d23      	ldrb	r3, [r4, #20]
    251c:	2200      	movs	r2, #0
    251e:	ea43 2101 	orr.w	r1, r3, r1, lsl #8
    2522:	4628      	mov	r0, r5
    2524:	f7ff f972 	bl	180c <gpio_msp432::setSEL(unsigned short, unsigned char)>
    2528:	4b05      	ldr	r3, [pc, #20]	; (2540 <uart_msp432::~uart_msp432()+0x54>)
    252a:	6023      	str	r3, [r4, #0]
    252c:	4620      	mov	r0, r4
    252e:	bd38      	pop	{r3, r4, r5, pc}
    2530:	4b03      	ldr	r3, [pc, #12]	; (2540 <uart_msp432::~uart_msp432()+0x54>)
    2532:	6003      	str	r3, [r0, #0]
    2534:	e7fa      	b.n	252c <uart_msp432::~uart_msp432()+0x40>
    2536:	bf00      	nop
    2538:	0000ee20 	.word	0x0000ee20
    253c:	2000016c 	.word	0x2000016c
    2540:	0000edec 	.word	0x0000edec

00002544 <uart_msp432::~uart_msp432()>:
    2544:	b510      	push	{r4, lr}
    2546:	4604      	mov	r4, r0
    2548:	f7ff ffd0 	bl	24ec <uart_msp432::~uart_msp432()>
    254c:	2118      	movs	r1, #24
    254e:	4620      	mov	r0, r4
    2550:	f002 fb15 	bl	4b7e <operator delete(void*, unsigned int)>
    2554:	4620      	mov	r0, r4
    2556:	bd10      	pop	{r4, pc}

00002558 <__static_initialization_and_destruction_0(int, int)>:
    2558:	2801      	cmp	r0, #1
    255a:	d000      	beq.n	255e <__static_initialization_and_destruction_0(int, int)+0x6>
    255c:	4770      	bx	lr
    255e:	b508      	push	{r3, lr}
    2560:	f64f 73ff 	movw	r3, #65535	; 0xffff
    2564:	4299      	cmp	r1, r3
    2566:	d000      	beq.n	256a <__static_initialization_and_destruction_0(int, int)+0x12>
    2568:	bd08      	pop	{r3, pc}
    256a:	4b0d      	ldr	r3, [pc, #52]	; (25a0 <__static_initialization_and_destruction_0(int, int)+0x48>)
    256c:	681a      	ldr	r2, [r3, #0]
    256e:	4b0d      	ldr	r3, [pc, #52]	; (25a4 <__static_initialization_and_destruction_0(int, int)+0x4c>)
    2570:	601a      	str	r2, [r3, #0]
    2572:	4b0d      	ldr	r3, [pc, #52]	; (25a8 <__static_initialization_and_destruction_0(int, int)+0x50>)
    2574:	2000      	movs	r0, #0
    2576:	6018      	str	r0, [r3, #0]
    2578:	6058      	str	r0, [r3, #4]
    257a:	6098      	str	r0, [r3, #8]
    257c:	60d8      	str	r0, [r3, #12]
    257e:	6118      	str	r0, [r3, #16]
    2580:	6158      	str	r0, [r3, #20]
    2582:	6198      	str	r0, [r3, #24]
    2584:	61d8      	str	r0, [r3, #28]
    2586:	6218      	str	r0, [r3, #32]
    2588:	6258      	str	r0, [r3, #36]	; 0x24
    258a:	6298      	str	r0, [r3, #40]	; 0x28
    258c:	62d8      	str	r0, [r3, #44]	; 0x2c
    258e:	6318      	str	r0, [r3, #48]	; 0x30
    2590:	6358      	str	r0, [r3, #52]	; 0x34
    2592:	6398      	str	r0, [r3, #56]	; 0x38
    2594:	63d8      	str	r0, [r3, #60]	; 0x3c
    2596:	4a05      	ldr	r2, [pc, #20]	; (25ac <__static_initialization_and_destruction_0(int, int)+0x54>)
    2598:	4905      	ldr	r1, [pc, #20]	; (25b0 <__static_initialization_and_destruction_0(int, int)+0x58>)
    259a:	f002 faeb 	bl	4b74 <__aeabi_atexit>
    259e:	e7e3      	b.n	2568 <__static_initialization_and_destruction_0(int, int)+0x10>
    25a0:	20000038 	.word	0x20000038
    25a4:	200000ac 	.word	0x200000ac
    25a8:	20000594 	.word	0x20000594
    25ac:	20000000 	.word	0x20000000
    25b0:	000025b5 	.word	0x000025b5

000025b4 <__tcf_0>:
    25b4:	b510      	push	{r4, lr}
    25b6:	4c05      	ldr	r4, [pc, #20]	; (25cc <__tcf_0+0x18>)
    25b8:	e003      	b.n	25c2 <__tcf_0+0xe>
    25ba:	3c10      	subs	r4, #16
    25bc:	4620      	mov	r0, r4
    25be:	f7ff f8bb 	bl	1738 <std::_Function_base::~_Function_base()>
    25c2:	4b03      	ldr	r3, [pc, #12]	; (25d0 <__tcf_0+0x1c>)
    25c4:	429c      	cmp	r4, r3
    25c6:	d1f8      	bne.n	25ba <__tcf_0+0x6>
    25c8:	bd10      	pop	{r4, pc}
    25ca:	bf00      	nop
    25cc:	200005d4 	.word	0x200005d4
    25d0:	20000594 	.word	0x20000594

000025d4 <uart_msp432::uart_msp432(EUSCI_A_Type*, unsigned long, unsigned short)>:
    25d4:	b510      	push	{r4, lr}
    25d6:	4604      	mov	r4, r0
    25d8:	4807      	ldr	r0, [pc, #28]	; (25f8 <uart_msp432::uart_msp432(EUSCI_A_Type*, unsigned long, unsigned short)+0x24>)
    25da:	6020      	str	r0, [r4, #0]
    25dc:	4807      	ldr	r0, [pc, #28]	; (25fc <uart_msp432::uart_msp432(EUSCI_A_Type*, unsigned long, unsigned short)+0x28>)
    25de:	6020      	str	r0, [r4, #0]
    25e0:	2000      	movs	r0, #0
    25e2:	7120      	strb	r0, [r4, #4]
    25e4:	60a1      	str	r1, [r4, #8]
    25e6:	60e2      	str	r2, [r4, #12]
    25e8:	8223      	strh	r3, [r4, #16]
    25ea:	74a0      	strb	r0, [r4, #18]
    25ec:	74e0      	strb	r0, [r4, #19]
    25ee:	7520      	strb	r0, [r4, #20]
    25f0:	f000 fdf9 	bl	31e6 <irq_dispatcher::link_in()>
    25f4:	4620      	mov	r0, r4
    25f6:	bd10      	pop	{r4, pc}
    25f8:	0000edec 	.word	0x0000edec
    25fc:	0000ee20 	.word	0x0000ee20

00002600 <uart_msp432::init()>:
    2600:	b538      	push	{r3, r4, r5, lr}
    2602:	4604      	mov	r4, r0
    2604:	6883      	ldr	r3, [r0, #8]
    2606:	4a2f      	ldr	r2, [pc, #188]	; (26c4 <uart_msp432::init()+0xc4>)
    2608:	4293      	cmp	r3, r2
    260a:	d040      	beq.n	268e <uart_msp432::init()+0x8e>
    260c:	4a2e      	ldr	r2, [pc, #184]	; (26c8 <uart_msp432::init()+0xc8>)
    260e:	4293      	cmp	r3, r2
    2610:	d044      	beq.n	269c <uart_msp432::init()+0x9c>
    2612:	4a2e      	ldr	r2, [pc, #184]	; (26cc <uart_msp432::init()+0xcc>)
    2614:	4293      	cmp	r3, r2
    2616:	d047      	beq.n	26a8 <uart_msp432::init()+0xa8>
    2618:	4a2d      	ldr	r2, [pc, #180]	; (26d0 <uart_msp432::init()+0xd0>)
    261a:	4293      	cmp	r3, r2
    261c:	d14a      	bne.n	26b4 <uart_msp432::init()+0xb4>
    261e:	2309      	movs	r3, #9
    2620:	7483      	strb	r3, [r0, #18]
    2622:	2306      	movs	r3, #6
    2624:	74c3      	strb	r3, [r0, #19]
    2626:	2307      	movs	r3, #7
    2628:	7503      	strb	r3, [r0, #20]
    262a:	7ca1      	ldrb	r1, [r4, #18]
    262c:	7ce3      	ldrb	r3, [r4, #19]
    262e:	4d29      	ldr	r5, [pc, #164]	; (26d4 <uart_msp432::init()+0xd4>)
    2630:	2201      	movs	r2, #1
    2632:	ea43 2101 	orr.w	r1, r3, r1, lsl #8
    2636:	4628      	mov	r0, r5
    2638:	f7ff f8e8 	bl	180c <gpio_msp432::setSEL(unsigned short, unsigned char)>
    263c:	7ca1      	ldrb	r1, [r4, #18]
    263e:	7d23      	ldrb	r3, [r4, #20]
    2640:	2201      	movs	r2, #1
    2642:	ea43 2101 	orr.w	r1, r3, r1, lsl #8
    2646:	4628      	mov	r0, r5
    2648:	f7ff f8e0 	bl	180c <gpio_msp432::setSEL(unsigned short, unsigned char)>
    264c:	68a3      	ldr	r3, [r4, #8]
    264e:	2501      	movs	r5, #1
    2650:	801d      	strh	r5, [r3, #0]
    2652:	68a2      	ldr	r2, [r4, #8]
    2654:	8813      	ldrh	r3, [r2, #0]
    2656:	b29b      	uxth	r3, r3
    2658:	f043 0380 	orr.w	r3, r3, #128	; 0x80
    265c:	8013      	strh	r3, [r2, #0]
    265e:	68a2      	ldr	r2, [r4, #8]
    2660:	8913      	ldrh	r3, [r2, #8]
    2662:	f003 030e 	and.w	r3, r3, #14
    2666:	8113      	strh	r3, [r2, #8]
    2668:	68a2      	ldr	r2, [r4, #8]
    266a:	8b53      	ldrh	r3, [r2, #26]
    266c:	b29b      	uxth	r3, r3
    266e:	f023 030f 	bic.w	r3, r3, #15
    2672:	b29b      	uxth	r3, r3
    2674:	8353      	strh	r3, [r2, #26]
    2676:	6823      	ldr	r3, [r4, #0]
    2678:	68db      	ldr	r3, [r3, #12]
    267a:	8a21      	ldrh	r1, [r4, #16]
    267c:	4620      	mov	r0, r4
    267e:	4798      	blx	r3
    2680:	6823      	ldr	r3, [r4, #0]
    2682:	691b      	ldr	r3, [r3, #16]
    2684:	68e1      	ldr	r1, [r4, #12]
    2686:	4620      	mov	r0, r4
    2688:	4798      	blx	r3
    268a:	7125      	strb	r5, [r4, #4]
    268c:	bd38      	pop	{r3, r4, r5, pc}
    268e:	2301      	movs	r3, #1
    2690:	7483      	strb	r3, [r0, #18]
    2692:	2302      	movs	r3, #2
    2694:	74c3      	strb	r3, [r0, #19]
    2696:	2303      	movs	r3, #3
    2698:	7503      	strb	r3, [r0, #20]
    269a:	e7c6      	b.n	262a <uart_msp432::init()+0x2a>
    269c:	2302      	movs	r3, #2
    269e:	7483      	strb	r3, [r0, #18]
    26a0:	74c3      	strb	r3, [r0, #19]
    26a2:	2303      	movs	r3, #3
    26a4:	7503      	strb	r3, [r0, #20]
    26a6:	e7c0      	b.n	262a <uart_msp432::init()+0x2a>
    26a8:	2303      	movs	r3, #3
    26aa:	7483      	strb	r3, [r0, #18]
    26ac:	2202      	movs	r2, #2
    26ae:	74c2      	strb	r2, [r0, #19]
    26b0:	7503      	strb	r3, [r0, #20]
    26b2:	e7ba      	b.n	262a <uart_msp432::init()+0x2a>
    26b4:	4b08      	ldr	r3, [pc, #32]	; (26d8 <uart_msp432::init()+0xd8>)
    26b6:	4a09      	ldr	r2, [pc, #36]	; (26dc <uart_msp432::init()+0xdc>)
    26b8:	601a      	str	r2, [r3, #0]
    26ba:	4b09      	ldr	r3, [pc, #36]	; (26e0 <uart_msp432::init()+0xe0>)
    26bc:	2220      	movs	r2, #32
    26be:	601a      	str	r2, [r3, #0]
    26c0:	f7ff fe9e 	bl	2400 <yahal_assert_func()>
    26c4:	40001000 	.word	0x40001000
    26c8:	40001400 	.word	0x40001400
    26cc:	40001800 	.word	0x40001800
    26d0:	40001c00 	.word	0x40001c00
    26d4:	2000016c 	.word	0x2000016c
    26d8:	200000c0 	.word	0x200000c0
    26dc:	0000ed90 	.word	0x0000ed90
    26e0:	200000dc 	.word	0x200000dc

000026e4 <uart_msp432::available()>:
    26e4:	b510      	push	{r4, lr}
    26e6:	4604      	mov	r4, r0
    26e8:	7903      	ldrb	r3, [r0, #4]
    26ea:	b123      	cbz	r3, 26f6 <uart_msp432::available()+0x12>
    26ec:	68a3      	ldr	r3, [r4, #8]
    26ee:	8b98      	ldrh	r0, [r3, #28]
    26f0:	f000 0001 	and.w	r0, r0, #1
    26f4:	bd10      	pop	{r4, pc}
    26f6:	f7ff ff83 	bl	2600 <uart_msp432::init()>
    26fa:	e7f7      	b.n	26ec <uart_msp432::available()+0x8>

000026fc <uart_msp432::getc()>:
    26fc:	b510      	push	{r4, lr}
    26fe:	4604      	mov	r4, r0
    2700:	7903      	ldrb	r3, [r0, #4]
    2702:	b13b      	cbz	r3, 2714 <uart_msp432::getc()+0x18>
    2704:	68a3      	ldr	r3, [r4, #8]
    2706:	8b9a      	ldrh	r2, [r3, #28]
    2708:	f012 0f01 	tst.w	r2, #1
    270c:	d0fa      	beq.n	2704 <uart_msp432::getc()+0x8>
    270e:	8998      	ldrh	r0, [r3, #12]
    2710:	b2c0      	uxtb	r0, r0
    2712:	bd10      	pop	{r4, pc}
    2714:	f7ff ff74 	bl	2600 <uart_msp432::init()>
    2718:	e7f4      	b.n	2704 <uart_msp432::getc()+0x8>

0000271a <uart_msp432::putc(char)>:
    271a:	b538      	push	{r3, r4, r5, lr}
    271c:	4604      	mov	r4, r0
    271e:	460d      	mov	r5, r1
    2720:	7903      	ldrb	r3, [r0, #4]
    2722:	b133      	cbz	r3, 2732 <uart_msp432::putc(char)+0x18>
    2724:	68a3      	ldr	r3, [r4, #8]
    2726:	8b9a      	ldrh	r2, [r3, #28]
    2728:	f012 0f02 	tst.w	r2, #2
    272c:	d0fa      	beq.n	2724 <uart_msp432::putc(char)+0xa>
    272e:	81dd      	strh	r5, [r3, #14]
    2730:	bd38      	pop	{r3, r4, r5, pc}
    2732:	f7ff ff65 	bl	2600 <uart_msp432::init()>
    2736:	e7f5      	b.n	2724 <uart_msp432::putc(char)+0xa>

00002738 <std::function<void (char)>::operator=(decltype(nullptr))>:
    2738:	b510      	push	{r4, lr}
    273a:	4604      	mov	r4, r0
    273c:	6883      	ldr	r3, [r0, #8]
    273e:	b12b      	cbz	r3, 274c <std::function<void (char)>::operator=(decltype(nullptr))+0x14>
    2740:	2203      	movs	r2, #3
    2742:	4601      	mov	r1, r0
    2744:	4798      	blx	r3
    2746:	2300      	movs	r3, #0
    2748:	60a3      	str	r3, [r4, #8]
    274a:	60e3      	str	r3, [r4, #12]
    274c:	4620      	mov	r0, r4
    274e:	bd10      	pop	{r4, pc}

00002750 <uart_msp432::uartDetachIrq()>:
    2750:	b538      	push	{r3, r4, r5, lr}
    2752:	4604      	mov	r4, r0
    2754:	7903      	ldrb	r3, [r0, #4]
    2756:	b17b      	cbz	r3, 2778 <uart_msp432::uartDetachIrq()+0x28>
    2758:	68a3      	ldr	r3, [r4, #8]
    275a:	f3c3 2481 	ubfx	r4, r3, #10, #2
    275e:	2500      	movs	r5, #0
    2760:	835d      	strh	r5, [r3, #26]
    2762:	f104 0010 	add.w	r0, r4, #16
    2766:	f7ff fe39 	bl	23dc <__NVIC_DisableIRQ>
    276a:	4629      	mov	r1, r5
    276c:	4804      	ldr	r0, [pc, #16]	; (2780 <uart_msp432::uartDetachIrq()+0x30>)
    276e:	eb00 1004 	add.w	r0, r0, r4, lsl #4
    2772:	f7ff ffe1 	bl	2738 <std::function<void (char)>::operator=(decltype(nullptr))>
    2776:	bd38      	pop	{r3, r4, r5, pc}
    2778:	f7ff ff42 	bl	2600 <uart_msp432::init()>
    277c:	e7ec      	b.n	2758 <uart_msp432::uartDetachIrq()+0x8>
    277e:	bf00      	nop
    2780:	20000594 	.word	0x20000594

00002784 <std::function<void (char)>::operator()(char) const>:
    2784:	b500      	push	{lr}
    2786:	b083      	sub	sp, #12
    2788:	f88d 1007 	strb.w	r1, [sp, #7]
    278c:	6883      	ldr	r3, [r0, #8]
    278e:	b133      	cbz	r3, 279e <std::function<void (char)>::operator()(char) const+0x1a>
    2790:	68c3      	ldr	r3, [r0, #12]
    2792:	f10d 0107 	add.w	r1, sp, #7
    2796:	4798      	blx	r3
    2798:	b003      	add	sp, #12
    279a:	f85d fb04 	ldr.w	pc, [sp], #4
    279e:	f000 fbc9 	bl	2f34 <__yahal_bad_function_call>
	...

000027a4 <uart_msp432::handleIrq(EUSCI_A_Type*)>:
    27a4:	b508      	push	{r3, lr}
    27a6:	8981      	ldrh	r1, [r0, #12]
    27a8:	f3c0 2081 	ubfx	r0, r0, #10, #2
    27ac:	4b04      	ldr	r3, [pc, #16]	; (27c0 <uart_msp432::handleIrq(EUSCI_A_Type*)+0x1c>)
    27ae:	eb03 1000 	add.w	r0, r3, r0, lsl #4
    27b2:	6883      	ldr	r3, [r0, #8]
    27b4:	b113      	cbz	r3, 27bc <uart_msp432::handleIrq(EUSCI_A_Type*)+0x18>
    27b6:	b2c9      	uxtb	r1, r1
    27b8:	f7ff ffe4 	bl	2784 <std::function<void (char)>::operator()(char) const>
    27bc:	bd08      	pop	{r3, pc}
    27be:	bf00      	nop
    27c0:	20000594 	.word	0x20000594

000027c4 <EUSCIA0_UART_IRQHandler>:
    27c4:	b508      	push	{r3, lr}
    27c6:	4802      	ldr	r0, [pc, #8]	; (27d0 <EUSCIA0_UART_IRQHandler+0xc>)
    27c8:	f7ff ffec 	bl	27a4 <uart_msp432::handleIrq(EUSCI_A_Type*)>
    27cc:	bd08      	pop	{r3, pc}
    27ce:	bf00      	nop
    27d0:	40001000 	.word	0x40001000

000027d4 <EUSCIA1_UART_IRQHandler>:
    27d4:	b508      	push	{r3, lr}
    27d6:	4802      	ldr	r0, [pc, #8]	; (27e0 <EUSCIA1_UART_IRQHandler+0xc>)
    27d8:	f7ff ffe4 	bl	27a4 <uart_msp432::handleIrq(EUSCI_A_Type*)>
    27dc:	bd08      	pop	{r3, pc}
    27de:	bf00      	nop
    27e0:	40001400 	.word	0x40001400

000027e4 <EUSCIA2_UART_IRQHandler>:
    27e4:	b508      	push	{r3, lr}
    27e6:	4802      	ldr	r0, [pc, #8]	; (27f0 <EUSCIA2_UART_IRQHandler+0xc>)
    27e8:	f7ff ffdc 	bl	27a4 <uart_msp432::handleIrq(EUSCI_A_Type*)>
    27ec:	bd08      	pop	{r3, pc}
    27ee:	bf00      	nop
    27f0:	40001800 	.word	0x40001800

000027f4 <EUSCIA3_UART_IRQHandler>:
    27f4:	b508      	push	{r3, lr}
    27f6:	4802      	ldr	r0, [pc, #8]	; (2800 <EUSCIA3_UART_IRQHandler+0xc>)
    27f8:	f7ff ffd4 	bl	27a4 <uart_msp432::handleIrq(EUSCI_A_Type*)>
    27fc:	bd08      	pop	{r3, pc}
    27fe:	bf00      	nop
    2800:	40001c00 	.word	0x40001c00

00002804 <std::function<void (char)>::function(std::function<void (char)> const&)>:
    2804:	b538      	push	{r3, r4, r5, lr}
    2806:	4604      	mov	r4, r0
    2808:	2300      	movs	r3, #0
    280a:	6003      	str	r3, [r0, #0]
    280c:	6043      	str	r3, [r0, #4]
    280e:	6083      	str	r3, [r0, #8]
    2810:	60c3      	str	r3, [r0, #12]
    2812:	688b      	ldr	r3, [r1, #8]
    2814:	b133      	cbz	r3, 2824 <std::function<void (char)>::function(std::function<void (char)> const&)+0x20>
    2816:	460d      	mov	r5, r1
    2818:	2202      	movs	r2, #2
    281a:	4798      	blx	r3
    281c:	68eb      	ldr	r3, [r5, #12]
    281e:	60e3      	str	r3, [r4, #12]
    2820:	68ab      	ldr	r3, [r5, #8]
    2822:	60a3      	str	r3, [r4, #8]
    2824:	4620      	mov	r0, r4
    2826:	bd38      	pop	{r3, r4, r5, pc}

00002828 <std::function<void (char)>::swap(std::function<void (char)>&)>:
    2828:	b538      	push	{r3, r4, r5, lr}
    282a:	4605      	mov	r5, r0
    282c:	460c      	mov	r4, r1
    282e:	f7ff f9bb 	bl	1ba8 <std::enable_if<std::__and_<std::__not_<std::__is_tuple_like<std::_Any_data> >, std::is_move_constructible<std::_Any_data>, std::is_move_assignable<std::_Any_data> >::value, void>::type std::swap<std::_Any_data>(std::_Any_data&, std::_Any_data&)>
    2832:	68ab      	ldr	r3, [r5, #8]
    2834:	68a2      	ldr	r2, [r4, #8]
    2836:	60aa      	str	r2, [r5, #8]
    2838:	60a3      	str	r3, [r4, #8]
    283a:	68eb      	ldr	r3, [r5, #12]
    283c:	68e2      	ldr	r2, [r4, #12]
    283e:	60ea      	str	r2, [r5, #12]
    2840:	60e3      	str	r3, [r4, #12]
    2842:	bd38      	pop	{r3, r4, r5, pc}

00002844 <std::function<void (char)>::operator=(std::function<void (char)> const&)>:
    2844:	b510      	push	{r4, lr}
    2846:	b084      	sub	sp, #16
    2848:	4604      	mov	r4, r0
    284a:	4668      	mov	r0, sp
    284c:	f7ff ffda 	bl	2804 <std::function<void (char)>::function(std::function<void (char)> const&)>
    2850:	4621      	mov	r1, r4
    2852:	4668      	mov	r0, sp
    2854:	f7ff ffe8 	bl	2828 <std::function<void (char)>::swap(std::function<void (char)>&)>
    2858:	4668      	mov	r0, sp
    285a:	f7fe ff6d 	bl	1738 <std::_Function_base::~_Function_base()>
    285e:	4620      	mov	r0, r4
    2860:	b004      	add	sp, #16
    2862:	bd10      	pop	{r4, pc}

00002864 <uart_msp432::uartAttachIrq(std::function<void (char)>)>:
    2864:	b570      	push	{r4, r5, r6, lr}
    2866:	4604      	mov	r4, r0
    2868:	460e      	mov	r6, r1
    286a:	7903      	ldrb	r3, [r0, #4]
    286c:	b183      	cbz	r3, 2890 <uart_msp432::uartAttachIrq(std::function<void (char)>)+0x2c>
    286e:	68a5      	ldr	r5, [r4, #8]
    2870:	f3c5 2581 	ubfx	r5, r5, #10, #2
    2874:	4631      	mov	r1, r6
    2876:	4808      	ldr	r0, [pc, #32]	; (2898 <uart_msp432::uartAttachIrq(std::function<void (char)>)+0x34>)
    2878:	eb00 1005 	add.w	r0, r0, r5, lsl #4
    287c:	f7ff ffe2 	bl	2844 <std::function<void (char)>::operator=(std::function<void (char)> const&)>
    2880:	68a3      	ldr	r3, [r4, #8]
    2882:	2201      	movs	r2, #1
    2884:	835a      	strh	r2, [r3, #26]
    2886:	f105 0010 	add.w	r0, r5, #16
    288a:	f7ff fd99 	bl	23c0 <__NVIC_EnableIRQ>
    288e:	bd70      	pop	{r4, r5, r6, pc}
    2890:	f7ff feb6 	bl	2600 <uart_msp432::init()>
    2894:	e7eb      	b.n	286e <uart_msp432::uartAttachIrq(std::function<void (char)>)+0xa>
    2896:	bf00      	nop
    2898:	20000594 	.word	0x20000594

0000289c <_GLOBAL__sub_I_UART_CLK>:
    289c:	b508      	push	{r3, lr}
    289e:	f64f 71ff 	movw	r1, #65535	; 0xffff
    28a2:	2001      	movs	r0, #1
    28a4:	f7ff fe58 	bl	2558 <__static_initialization_and_destruction_0(int, int)>
    28a8:	bd08      	pop	{r3, pc}
	...

000028ac <calculate_DCO_clock>:
    28ac:	b082      	sub	sp, #8
    28ae:	9001      	str	r0, [sp, #4]
    28b0:	4b30      	ldr	r3, [pc, #192]	; (2974 <calculate_DCO_clock+0xc8>)
    28b2:	685b      	ldr	r3, [r3, #4]
    28b4:	b21a      	sxth	r2, r3
    28b6:	f3c3 0309 	ubfx	r3, r3, #0, #10
    28ba:	2b00      	cmp	r3, #0
    28bc:	d058      	beq.n	2970 <calculate_DCO_clock+0xc4>
    28be:	f412 7f00 	tst.w	r2, #512	; 0x200
    28c2:	d003      	beq.n	28cc <calculate_DCO_clock+0x20>
    28c4:	ea6f 5383 	mvn.w	r3, r3, lsl #22
    28c8:	ea6f 5393 	mvn.w	r3, r3, lsr #22
    28cc:	4a29      	ldr	r2, [pc, #164]	; (2974 <calculate_DCO_clock+0xc8>)
    28ce:	6852      	ldr	r2, [r2, #4]
    28d0:	f412 0f80 	tst.w	r2, #4194304	; 0x400000
    28d4:	d035      	beq.n	2942 <calculate_DCO_clock+0x96>
    28d6:	4a27      	ldr	r2, [pc, #156]	; (2974 <calculate_DCO_clock+0xc8>)
    28d8:	6852      	ldr	r2, [r2, #4]
    28da:	f402 22e0 	and.w	r2, r2, #458752	; 0x70000
    28de:	f5b2 2fa0 	cmp.w	r2, #327680	; 0x50000
    28e2:	d026      	beq.n	2932 <calculate_DCO_clock+0x86>
    28e4:	4a24      	ldr	r2, [pc, #144]	; (2978 <calculate_DCO_clock+0xcc>)
    28e6:	ed92 6a21 	vldr	s12, [r2, #132]	; 0x84
    28ea:	eeb8 6a46 	vcvt.f32.u32	s12, s12
    28ee:	edd2 7a1b 	vldr	s15, [r2, #108]	; 0x6c
    28f2:	eef7 6a00 	vmov.f32	s13, #112	; 0x3f800000  1.0
    28f6:	ee86 7a86 	vdiv.f32	s14, s13, s12
    28fa:	ed9f 6a20 	vldr	s12, [pc, #128]	; 297c <calculate_DCO_clock+0xd0>
    28fe:	ee37 7a06 	vadd.f32	s14, s14, s12
    2902:	eef8 7a67 	vcvt.f32.u32	s15, s15
    2906:	ee37 7a67 	vsub.f32	s14, s14, s15
    290a:	eddd 7a01 	vldr	s15, [sp, #4]
    290e:	eeb8 6a67 	vcvt.f32.u32	s12, s15
    2912:	ee07 3a90 	vmov	s15, r3
    2916:	eef8 7ae7 	vcvt.f32.s32	s15, s15
    291a:	eec7 5a87 	vdiv.f32	s11, s15, s14
    291e:	ee76 6ae5 	vsub.f32	s13, s13, s11
    2922:	eec6 7a26 	vdiv.f32	s15, s12, s13
    2926:	eefc 7ae7 	vcvt.u32.f32	s15, s15
    292a:	ee17 0a90 	vmov	r0, s15
    292e:	b002      	add	sp, #8
    2930:	4770      	bx	lr
    2932:	4a11      	ldr	r2, [pc, #68]	; (2978 <calculate_DCO_clock+0xcc>)
    2934:	ed92 6a22 	vldr	s12, [r2, #136]	; 0x88
    2938:	eeb8 6a46 	vcvt.f32.u32	s12, s12
    293c:	edd2 7a1c 	vldr	s15, [r2, #112]	; 0x70
    2940:	e7d7      	b.n	28f2 <calculate_DCO_clock+0x46>
    2942:	4a0c      	ldr	r2, [pc, #48]	; (2974 <calculate_DCO_clock+0xc8>)
    2944:	6852      	ldr	r2, [r2, #4]
    2946:	f402 22e0 	and.w	r2, r2, #458752	; 0x70000
    294a:	f5b2 2fa0 	cmp.w	r2, #327680	; 0x50000
    294e:	d007      	beq.n	2960 <calculate_DCO_clock+0xb4>
    2950:	4a09      	ldr	r2, [pc, #36]	; (2978 <calculate_DCO_clock+0xcc>)
    2952:	ed92 6a19 	vldr	s12, [r2, #100]	; 0x64
    2956:	eeb8 6a46 	vcvt.f32.u32	s12, s12
    295a:	edd2 7a13 	vldr	s15, [r2, #76]	; 0x4c
    295e:	e7c8      	b.n	28f2 <calculate_DCO_clock+0x46>
    2960:	4a05      	ldr	r2, [pc, #20]	; (2978 <calculate_DCO_clock+0xcc>)
    2962:	ed92 6a1a 	vldr	s12, [r2, #104]	; 0x68
    2966:	eeb8 6a46 	vcvt.f32.u32	s12, s12
    296a:	edd2 7a14 	vldr	s15, [r2, #80]	; 0x50
    296e:	e7c0      	b.n	28f2 <calculate_DCO_clock+0x46>
    2970:	9801      	ldr	r0, [sp, #4]
    2972:	e7dc      	b.n	292e <calculate_DCO_clock+0x82>
    2974:	40010400 	.word	0x40010400
    2978:	00201000 	.word	0x00201000
    297c:	44400000 	.word	0x44400000

00002980 <SystemCoreClockUpdate>:
    2980:	b510      	push	{r4, lr}
    2982:	4b51      	ldr	r3, [pc, #324]	; (2ac8 <SystemCoreClockUpdate+0x148>)
    2984:	689b      	ldr	r3, [r3, #8]
    2986:	f003 0307 	and.w	r3, r3, #7
    298a:	2b05      	cmp	r3, #5
    298c:	d817      	bhi.n	29be <SystemCoreClockUpdate+0x3e>
    298e:	e8df f003 	tbb	[pc, r3]
    2992:	1203      	.short	0x1203
    2994:	4a463a2b 	.word	0x4a463a2b
    2998:	4b4b      	ldr	r3, [pc, #300]	; (2ac8 <SystemCoreClockUpdate+0x148>)
    299a:	6c9b      	ldr	r3, [r3, #72]	; 0x48
    299c:	f013 0f01 	tst.w	r3, #1
    29a0:	d004      	beq.n	29ac <SystemCoreClockUpdate+0x2c>
    29a2:	4b4a      	ldr	r3, [pc, #296]	; (2acc <SystemCoreClockUpdate+0x14c>)
    29a4:	f44f 4200 	mov.w	r2, #32768	; 0x8000
    29a8:	601a      	str	r2, [r3, #0]
    29aa:	e008      	b.n	29be <SystemCoreClockUpdate+0x3e>
    29ac:	4b48      	ldr	r3, [pc, #288]	; (2ad0 <SystemCoreClockUpdate+0x150>)
    29ae:	681a      	ldr	r2, [r3, #0]
    29b0:	4b46      	ldr	r3, [pc, #280]	; (2acc <SystemCoreClockUpdate+0x14c>)
    29b2:	601a      	str	r2, [r3, #0]
    29b4:	e003      	b.n	29be <SystemCoreClockUpdate+0x3e>
    29b6:	4b45      	ldr	r3, [pc, #276]	; (2acc <SystemCoreClockUpdate+0x14c>)
    29b8:	f242 42b8 	movw	r2, #9400	; 0x24b8
    29bc:	601a      	str	r2, [r3, #0]
    29be:	4b42      	ldr	r3, [pc, #264]	; (2ac8 <SystemCoreClockUpdate+0x148>)
    29c0:	689b      	ldr	r3, [r3, #8]
    29c2:	f003 0370 	and.w	r3, r3, #112	; 0x70
    29c6:	2b30      	cmp	r3, #48	; 0x30
    29c8:	d069      	beq.n	2a9e <SystemCoreClockUpdate+0x11e>
    29ca:	d851      	bhi.n	2a70 <SystemCoreClockUpdate+0xf0>
    29cc:	2b10      	cmp	r3, #16
    29ce:	d05c      	beq.n	2a8a <SystemCoreClockUpdate+0x10a>
    29d0:	2b20      	cmp	r3, #32
    29d2:	d136      	bne.n	2a42 <SystemCoreClockUpdate+0xc2>
    29d4:	4b3c      	ldr	r3, [pc, #240]	; (2ac8 <SystemCoreClockUpdate+0x148>)
    29d6:	6b1b      	ldr	r3, [r3, #48]	; 0x30
    29d8:	f413 4f00 	tst.w	r3, #32768	; 0x8000
    29dc:	d05a      	beq.n	2a94 <SystemCoreClockUpdate+0x114>
    29de:	4b3d      	ldr	r3, [pc, #244]	; (2ad4 <SystemCoreClockUpdate+0x154>)
    29e0:	f44f 32fa 	mov.w	r2, #128000	; 0x1f400
    29e4:	601a      	str	r2, [r3, #0]
    29e6:	e033      	b.n	2a50 <SystemCoreClockUpdate+0xd0>
    29e8:	4b37      	ldr	r3, [pc, #220]	; (2ac8 <SystemCoreClockUpdate+0x148>)
    29ea:	6b1b      	ldr	r3, [r3, #48]	; 0x30
    29ec:	f413 4f00 	tst.w	r3, #32768	; 0x8000
    29f0:	d004      	beq.n	29fc <SystemCoreClockUpdate+0x7c>
    29f2:	4b36      	ldr	r3, [pc, #216]	; (2acc <SystemCoreClockUpdate+0x14c>)
    29f4:	f44f 32fa 	mov.w	r2, #128000	; 0x1f400
    29f8:	601a      	str	r2, [r3, #0]
    29fa:	e7e0      	b.n	29be <SystemCoreClockUpdate+0x3e>
    29fc:	4b33      	ldr	r3, [pc, #204]	; (2acc <SystemCoreClockUpdate+0x14c>)
    29fe:	f44f 4200 	mov.w	r2, #32768	; 0x8000
    2a02:	601a      	str	r2, [r3, #0]
    2a04:	e7db      	b.n	29be <SystemCoreClockUpdate+0x3e>
    2a06:	4b30      	ldr	r3, [pc, #192]	; (2ac8 <SystemCoreClockUpdate+0x148>)
    2a08:	685b      	ldr	r3, [r3, #4]
    2a0a:	f3c3 4302 	ubfx	r3, r3, #16, #3
    2a0e:	4832      	ldr	r0, [pc, #200]	; (2ad8 <SystemCoreClockUpdate+0x158>)
    2a10:	4098      	lsls	r0, r3
    2a12:	4c2e      	ldr	r4, [pc, #184]	; (2acc <SystemCoreClockUpdate+0x14c>)
    2a14:	6020      	str	r0, [r4, #0]
    2a16:	f7ff ff49 	bl	28ac <calculate_DCO_clock>
    2a1a:	6020      	str	r0, [r4, #0]
    2a1c:	e7cf      	b.n	29be <SystemCoreClockUpdate+0x3e>
    2a1e:	4b2b      	ldr	r3, [pc, #172]	; (2acc <SystemCoreClockUpdate+0x14c>)
    2a20:	4a2e      	ldr	r2, [pc, #184]	; (2adc <SystemCoreClockUpdate+0x15c>)
    2a22:	601a      	str	r2, [r3, #0]
    2a24:	e7cb      	b.n	29be <SystemCoreClockUpdate+0x3e>
    2a26:	4b28      	ldr	r3, [pc, #160]	; (2ac8 <SystemCoreClockUpdate+0x148>)
    2a28:	6c9b      	ldr	r3, [r3, #72]	; 0x48
    2a2a:	f013 0f02 	tst.w	r3, #2
    2a2e:	d003      	beq.n	2a38 <SystemCoreClockUpdate+0xb8>
    2a30:	4b26      	ldr	r3, [pc, #152]	; (2acc <SystemCoreClockUpdate+0x14c>)
    2a32:	4a2b      	ldr	r2, [pc, #172]	; (2ae0 <SystemCoreClockUpdate+0x160>)
    2a34:	601a      	str	r2, [r3, #0]
    2a36:	e7c2      	b.n	29be <SystemCoreClockUpdate+0x3e>
    2a38:	4b2a      	ldr	r3, [pc, #168]	; (2ae4 <SystemCoreClockUpdate+0x164>)
    2a3a:	681a      	ldr	r2, [r3, #0]
    2a3c:	4b23      	ldr	r3, [pc, #140]	; (2acc <SystemCoreClockUpdate+0x14c>)
    2a3e:	601a      	str	r2, [r3, #0]
    2a40:	e7bd      	b.n	29be <SystemCoreClockUpdate+0x3e>
    2a42:	b92b      	cbnz	r3, 2a50 <SystemCoreClockUpdate+0xd0>
    2a44:	4b20      	ldr	r3, [pc, #128]	; (2ac8 <SystemCoreClockUpdate+0x148>)
    2a46:	6c9b      	ldr	r3, [r3, #72]	; 0x48
    2a48:	4b21      	ldr	r3, [pc, #132]	; (2ad0 <SystemCoreClockUpdate+0x150>)
    2a4a:	681a      	ldr	r2, [r3, #0]
    2a4c:	4b21      	ldr	r3, [pc, #132]	; (2ad4 <SystemCoreClockUpdate+0x154>)
    2a4e:	601a      	str	r2, [r3, #0]
    2a50:	4b1d      	ldr	r3, [pc, #116]	; (2ac8 <SystemCoreClockUpdate+0x148>)
    2a52:	6899      	ldr	r1, [r3, #8]
    2a54:	f3c1 4102 	ubfx	r1, r1, #16, #3
    2a58:	689a      	ldr	r2, [r3, #8]
    2a5a:	f3c2 7202 	ubfx	r2, r2, #28, #3
    2a5e:	481b      	ldr	r0, [pc, #108]	; (2acc <SystemCoreClockUpdate+0x14c>)
    2a60:	6803      	ldr	r3, [r0, #0]
    2a62:	40cb      	lsrs	r3, r1
    2a64:	6003      	str	r3, [r0, #0]
    2a66:	491b      	ldr	r1, [pc, #108]	; (2ad4 <SystemCoreClockUpdate+0x154>)
    2a68:	680b      	ldr	r3, [r1, #0]
    2a6a:	40d3      	lsrs	r3, r2
    2a6c:	600b      	str	r3, [r1, #0]
    2a6e:	bd10      	pop	{r4, pc}
    2a70:	2b40      	cmp	r3, #64	; 0x40
    2a72:	d020      	beq.n	2ab6 <SystemCoreClockUpdate+0x136>
    2a74:	2b50      	cmp	r3, #80	; 0x50
    2a76:	d1eb      	bne.n	2a50 <SystemCoreClockUpdate+0xd0>
    2a78:	4b13      	ldr	r3, [pc, #76]	; (2ac8 <SystemCoreClockUpdate+0x148>)
    2a7a:	6c9b      	ldr	r3, [r3, #72]	; 0x48
    2a7c:	f013 0f02 	tst.w	r3, #2
    2a80:	d01d      	beq.n	2abe <SystemCoreClockUpdate+0x13e>
    2a82:	4b14      	ldr	r3, [pc, #80]	; (2ad4 <SystemCoreClockUpdate+0x154>)
    2a84:	4a16      	ldr	r2, [pc, #88]	; (2ae0 <SystemCoreClockUpdate+0x160>)
    2a86:	601a      	str	r2, [r3, #0]
    2a88:	e7e2      	b.n	2a50 <SystemCoreClockUpdate+0xd0>
    2a8a:	4b12      	ldr	r3, [pc, #72]	; (2ad4 <SystemCoreClockUpdate+0x154>)
    2a8c:	f242 42b8 	movw	r2, #9400	; 0x24b8
    2a90:	601a      	str	r2, [r3, #0]
    2a92:	e7dd      	b.n	2a50 <SystemCoreClockUpdate+0xd0>
    2a94:	4b0f      	ldr	r3, [pc, #60]	; (2ad4 <SystemCoreClockUpdate+0x154>)
    2a96:	f44f 4200 	mov.w	r2, #32768	; 0x8000
    2a9a:	601a      	str	r2, [r3, #0]
    2a9c:	e7d8      	b.n	2a50 <SystemCoreClockUpdate+0xd0>
    2a9e:	4b0a      	ldr	r3, [pc, #40]	; (2ac8 <SystemCoreClockUpdate+0x148>)
    2aa0:	685b      	ldr	r3, [r3, #4]
    2aa2:	f3c3 4302 	ubfx	r3, r3, #16, #3
    2aa6:	480c      	ldr	r0, [pc, #48]	; (2ad8 <SystemCoreClockUpdate+0x158>)
    2aa8:	4098      	lsls	r0, r3
    2aaa:	4c0a      	ldr	r4, [pc, #40]	; (2ad4 <SystemCoreClockUpdate+0x154>)
    2aac:	6020      	str	r0, [r4, #0]
    2aae:	f7ff fefd 	bl	28ac <calculate_DCO_clock>
    2ab2:	6020      	str	r0, [r4, #0]
    2ab4:	e7cc      	b.n	2a50 <SystemCoreClockUpdate+0xd0>
    2ab6:	4b07      	ldr	r3, [pc, #28]	; (2ad4 <SystemCoreClockUpdate+0x154>)
    2ab8:	4a08      	ldr	r2, [pc, #32]	; (2adc <SystemCoreClockUpdate+0x15c>)
    2aba:	601a      	str	r2, [r3, #0]
    2abc:	e7c8      	b.n	2a50 <SystemCoreClockUpdate+0xd0>
    2abe:	4b09      	ldr	r3, [pc, #36]	; (2ae4 <SystemCoreClockUpdate+0x164>)
    2ac0:	681a      	ldr	r2, [r3, #0]
    2ac2:	4b04      	ldr	r3, [pc, #16]	; (2ad4 <SystemCoreClockUpdate+0x154>)
    2ac4:	601a      	str	r2, [r3, #0]
    2ac6:	e7c3      	b.n	2a50 <SystemCoreClockUpdate+0xd0>
    2ac8:	40010400 	.word	0x40010400
    2acc:	20000038 	.word	0x20000038
    2ad0:	200000a4 	.word	0x200000a4
    2ad4:	20000034 	.word	0x20000034
    2ad8:	0016e360 	.word	0x0016e360
    2adc:	017d7840 	.word	0x017d7840
    2ae0:	004c4b40 	.word	0x004c4b40
    2ae4:	200000a0 	.word	0x200000a0

00002ae8 <SystemInit>:
    2ae8:	b508      	push	{r3, lr}
    2aea:	4b3d      	ldr	r3, [pc, #244]	; (2be0 <SystemInit+0xf8>)
    2aec:	f44f 42b5 	mov.w	r2, #23168	; 0x5a80
    2af0:	819a      	strh	r2, [r3, #12]
    2af2:	4a3c      	ldr	r2, [pc, #240]	; (2be4 <SystemInit+0xfc>)
    2af4:	f8d2 3088 	ldr.w	r3, [r2, #136]	; 0x88
    2af8:	f443 0370 	orr.w	r3, r3, #15728640	; 0xf00000
    2afc:	f8c2 3088 	str.w	r3, [r2, #136]	; 0x88
    2b00:	4b39      	ldr	r3, [pc, #228]	; (2be8 <SystemInit+0x100>)
    2b02:	2280      	movs	r2, #128	; 0x80
    2b04:	615a      	str	r2, [r3, #20]
    2b06:	4b39      	ldr	r3, [pc, #228]	; (2bec <SystemInit+0x104>)
    2b08:	685b      	ldr	r3, [r3, #4]
    2b0a:	f413 7f80 	tst.w	r3, #256	; 0x100
    2b0e:	d1fa      	bne.n	2b06 <SystemInit+0x1e>
    2b10:	4b36      	ldr	r3, [pc, #216]	; (2bec <SystemInit+0x104>)
    2b12:	4a37      	ldr	r2, [pc, #220]	; (2bf0 <SystemInit+0x108>)
    2b14:	601a      	str	r2, [r3, #0]
    2b16:	4b35      	ldr	r3, [pc, #212]	; (2bec <SystemInit+0x104>)
    2b18:	685b      	ldr	r3, [r3, #4]
    2b1a:	f413 7f80 	tst.w	r3, #256	; 0x100
    2b1e:	d1fa      	bne.n	2b16 <SystemInit+0x2e>
    2b20:	4b34      	ldr	r3, [pc, #208]	; (2bf4 <SystemInit+0x10c>)
    2b22:	f241 0230 	movw	r2, #4144	; 0x1030
    2b26:	611a      	str	r2, [r3, #16]
    2b28:	615a      	str	r2, [r3, #20]
    2b2a:	4933      	ldr	r1, [pc, #204]	; (2bf8 <SystemInit+0x110>)
    2b2c:	f646 135a 	movw	r3, #26970	; 0x695a
    2b30:	600b      	str	r3, [r1, #0]
    2b32:	4b32      	ldr	r3, [pc, #200]	; (2bfc <SystemInit+0x114>)
    2b34:	4a32      	ldr	r2, [pc, #200]	; (2c00 <SystemInit+0x118>)
    2b36:	601a      	str	r2, [r3, #0]
    2b38:	4a32      	ldr	r2, [pc, #200]	; (2c04 <SystemInit+0x11c>)
    2b3a:	8d53      	ldrh	r3, [r2, #42]	; 0x2a
    2b3c:	b29b      	uxth	r3, r3
    2b3e:	f043 0308 	orr.w	r3, r3, #8
    2b42:	8553      	strh	r3, [r2, #42]	; 0x2a
    2b44:	8d93      	ldrh	r3, [r2, #44]	; 0x2c
    2b46:	b29b      	uxth	r3, r3
    2b48:	f023 0308 	bic.w	r3, r3, #8
    2b4c:	b29b      	uxth	r3, r3
    2b4e:	8593      	strh	r3, [r2, #44]	; 0x2c
    2b50:	68cb      	ldr	r3, [r1, #12]
    2b52:	f043 73b0 	orr.w	r3, r3, #23068672	; 0x1600000
    2b56:	f443 3380 	orr.w	r3, r3, #65536	; 0x10000
    2b5a:	60cb      	str	r3, [r1, #12]
    2b5c:	2300      	movs	r3, #0
    2b5e:	e000      	b.n	2b62 <SystemInit+0x7a>
    2b60:	3301      	adds	r3, #1
    2b62:	2bc7      	cmp	r3, #199	; 0xc7
    2b64:	dc0a      	bgt.n	2b7c <SystemInit+0x94>
    2b66:	4a24      	ldr	r2, [pc, #144]	; (2bf8 <SystemInit+0x110>)
    2b68:	6c92      	ldr	r2, [r2, #72]	; 0x48
    2b6a:	f012 0f02 	tst.w	r2, #2
    2b6e:	d0f7      	beq.n	2b60 <SystemInit+0x78>
    2b70:	4921      	ldr	r1, [pc, #132]	; (2bf8 <SystemInit+0x110>)
    2b72:	6d0a      	ldr	r2, [r1, #80]	; 0x50
    2b74:	f042 0202 	orr.w	r2, r2, #2
    2b78:	650a      	str	r2, [r1, #80]	; 0x50
    2b7a:	e7f1      	b.n	2b60 <SystemInit+0x78>
    2b7c:	4b22      	ldr	r3, [pc, #136]	; (2c08 <SystemInit+0x120>)
    2b7e:	f44f 4200 	mov.w	r2, #32768	; 0x8000
    2b82:	601a      	str	r2, [r3, #0]
    2b84:	4a1f      	ldr	r2, [pc, #124]	; (2c04 <SystemInit+0x11c>)
    2b86:	8d53      	ldrh	r3, [r2, #42]	; 0x2a
    2b88:	b29b      	uxth	r3, r3
    2b8a:	f043 0301 	orr.w	r3, r3, #1
    2b8e:	8553      	strh	r3, [r2, #42]	; 0x2a
    2b90:	8d93      	ldrh	r3, [r2, #44]	; 0x2c
    2b92:	b29b      	uxth	r3, r3
    2b94:	f023 0301 	bic.w	r3, r3, #1
    2b98:	b29b      	uxth	r3, r3
    2b9a:	8593      	strh	r3, [r2, #44]	; 0x2c
    2b9c:	f502 4237 	add.w	r2, r2, #46848	; 0xb700
    2ba0:	68d3      	ldr	r3, [r2, #12]
    2ba2:	f443 7380 	orr.w	r3, r3, #256	; 0x100
    2ba6:	60d3      	str	r3, [r2, #12]
    2ba8:	2300      	movs	r3, #0
    2baa:	e000      	b.n	2bae <SystemInit+0xc6>
    2bac:	3301      	adds	r3, #1
    2bae:	2bc7      	cmp	r3, #199	; 0xc7
    2bb0:	dc0a      	bgt.n	2bc8 <SystemInit+0xe0>
    2bb2:	4a11      	ldr	r2, [pc, #68]	; (2bf8 <SystemInit+0x110>)
    2bb4:	6c92      	ldr	r2, [r2, #72]	; 0x48
    2bb6:	f012 0f01 	tst.w	r2, #1
    2bba:	d0f7      	beq.n	2bac <SystemInit+0xc4>
    2bbc:	490e      	ldr	r1, [pc, #56]	; (2bf8 <SystemInit+0x110>)
    2bbe:	6d0a      	ldr	r2, [r1, #80]	; 0x50
    2bc0:	f042 0201 	orr.w	r2, r2, #1
    2bc4:	650a      	str	r2, [r1, #80]	; 0x50
    2bc6:	e7f1      	b.n	2bac <SystemInit+0xc4>
    2bc8:	4b0b      	ldr	r3, [pc, #44]	; (2bf8 <SystemInit+0x110>)
    2bca:	f44f 3280 	mov.w	r2, #65536	; 0x10000
    2bce:	605a      	str	r2, [r3, #4]
    2bd0:	4a0e      	ldr	r2, [pc, #56]	; (2c0c <SystemInit+0x124>)
    2bd2:	609a      	str	r2, [r3, #8]
    2bd4:	2200      	movs	r2, #0
    2bd6:	601a      	str	r2, [r3, #0]
    2bd8:	f7ff fed2 	bl	2980 <SystemCoreClockUpdate>
    2bdc:	bd08      	pop	{r3, pc}
    2bde:	bf00      	nop
    2be0:	40004800 	.word	0x40004800
    2be4:	e000ed00 	.word	0xe000ed00
    2be8:	e0043000 	.word	0xe0043000
    2bec:	40010000 	.word	0x40010000
    2bf0:	695a0005 	.word	0x695a0005
    2bf4:	40011000 	.word	0x40011000
    2bf8:	40010400 	.word	0x40010400
    2bfc:	200000a0 	.word	0x200000a0
    2c00:	02dc6c00 	.word	0x02dc6c00
    2c04:	40004d00 	.word	0x40004d00
    2c08:	200000a4 	.word	0x200000a4
    2c0c:	10000055 	.word	0x10000055

00002c10 <yahal_assert_func()>:
    2c10:	e7fe      	b.n	2c10 <yahal_assert_func()>
	...

00002c14 <__static_initialization_and_destruction_0(int, int)>:
    2c14:	2801      	cmp	r0, #1
    2c16:	d000      	beq.n	2c1a <__static_initialization_and_destruction_0(int, int)+0x6>
    2c18:	4770      	bx	lr
    2c1a:	f64f 73ff 	movw	r3, #65535	; 0xffff
    2c1e:	4299      	cmp	r1, r3
    2c20:	d1fa      	bne.n	2c18 <__static_initialization_and_destruction_0(int, int)+0x4>
    2c22:	4b03      	ldr	r3, [pc, #12]	; (2c30 <__static_initialization_and_destruction_0(int, int)+0x1c>)
    2c24:	2200      	movs	r2, #0
    2c26:	601a      	str	r2, [r3, #0]
    2c28:	605a      	str	r2, [r3, #4]
    2c2a:	609a      	str	r2, [r3, #8]
    2c2c:	e7f4      	b.n	2c18 <__static_initialization_and_destruction_0(int, int)+0x4>
    2c2e:	bf00      	nop
    2c30:	20000678 	.word	0x20000678

00002c34 <task::task(char const*, unsigned short)>:
    2c34:	b570      	push	{r4, r5, r6, lr}
    2c36:	4604      	mov	r4, r0
    2c38:	4616      	mov	r6, r2
    2c3a:	4603      	mov	r3, r0
    2c3c:	4a16      	ldr	r2, [pc, #88]	; (2c98 <task::task(char const*, unsigned short)+0x64>)
    2c3e:	f843 2b44 	str.w	r2, [r3], #68
    2c42:	2500      	movs	r5, #0
    2c44:	6445      	str	r5, [r0, #68]	; 0x44
    2c46:	605d      	str	r5, [r3, #4]
    2c48:	609d      	str	r5, [r3, #8]
    2c4a:	6505      	str	r5, [r0, #80]	; 0x50
    2c4c:	220f      	movs	r2, #15
    2c4e:	3004      	adds	r0, #4
    2c50:	f002 fb39 	bl	52c6 <strncpy>
    2c54:	74e5      	strb	r5, [r4, #19]
    2c56:	7525      	strb	r5, [r4, #20]
    2c58:	2302      	movs	r3, #2
    2c5a:	7563      	strb	r3, [r4, #21]
    2c5c:	61a5      	str	r5, [r4, #24]
    2c5e:	61e5      	str	r5, [r4, #28]
    2c60:	2200      	movs	r2, #0
    2c62:	2300      	movs	r3, #0
    2c64:	e9c4 2308 	strd	r2, r3, [r4, #32]
    2c68:	62a5      	str	r5, [r4, #40]	; 0x28
    2c6a:	8626      	strh	r6, [r4, #48]	; 0x30
    2c6c:	4630      	mov	r0, r6
    2c6e:	f001 ff9b 	bl	4ba8 <operator new[](unsigned int)>
    2c72:	62e0      	str	r0, [r4, #44]	; 0x2c
    2c74:	b138      	cbz	r0, 2c86 <task::task(char const*, unsigned short)+0x52>
    2c76:	2300      	movs	r3, #0
    2c78:	6363      	str	r3, [r4, #52]	; 0x34
    2c7a:	f884 3038 	strb.w	r3, [r4, #56]	; 0x38
    2c7e:	63e3      	str	r3, [r4, #60]	; 0x3c
    2c80:	6423      	str	r3, [r4, #64]	; 0x40
    2c82:	4620      	mov	r0, r4
    2c84:	bd70      	pop	{r4, r5, r6, pc}
    2c86:	4b05      	ldr	r3, [pc, #20]	; (2c9c <task::task(char const*, unsigned short)+0x68>)
    2c88:	4a05      	ldr	r2, [pc, #20]	; (2ca0 <task::task(char const*, unsigned short)+0x6c>)
    2c8a:	601a      	str	r2, [r3, #0]
    2c8c:	4b05      	ldr	r3, [pc, #20]	; (2ca4 <task::task(char const*, unsigned short)+0x70>)
    2c8e:	2236      	movs	r2, #54	; 0x36
    2c90:	601a      	str	r2, [r3, #0]
    2c92:	f7ff ffbd 	bl	2c10 <yahal_assert_func()>
    2c96:	bf00      	nop
    2c98:	0000ee94 	.word	0x0000ee94
    2c9c:	200000c4 	.word	0x200000c4
    2ca0:	0000ee4c 	.word	0x0000ee4c
    2ca4:	200000e0 	.word	0x200000e0

00002ca8 <task::sleep(unsigned long)>:
    2ca8:	b510      	push	{r4, lr}
    2caa:	4b0e      	ldr	r3, [pc, #56]	; (2ce4 <task::sleep(unsigned long)+0x3c>)
    2cac:	681b      	ldr	r3, [r3, #0]
    2cae:	b1b3      	cbz	r3, 2cde <task::sleep(unsigned long)+0x36>
    2cb0:	490d      	ldr	r1, [pc, #52]	; (2ce8 <task::sleep(unsigned long)+0x40>)
    2cb2:	680a      	ldr	r2, [r1, #0]
    2cb4:	6849      	ldr	r1, [r1, #4]
    2cb6:	621a      	str	r2, [r3, #32]
    2cb8:	6259      	str	r1, [r3, #36]	; 0x24
    2cba:	f44f 747a 	mov.w	r4, #1000	; 0x3e8
    2cbe:	fb04 f000 	mul.w	r0, r4, r0
    2cc2:	4c0a      	ldr	r4, [pc, #40]	; (2cec <task::sleep(unsigned long)+0x44>)
    2cc4:	fba4 4000 	umull	r4, r0, r4, r0
    2cc8:	0980      	lsrs	r0, r0, #6
    2cca:	1812      	adds	r2, r2, r0
    2ccc:	f141 0100 	adc.w	r1, r1, #0
    2cd0:	621a      	str	r2, [r3, #32]
    2cd2:	6259      	str	r1, [r3, #36]	; 0x24
    2cd4:	2201      	movs	r2, #1
    2cd6:	755a      	strb	r2, [r3, #21]
    2cd8:	f000 fb84 	bl	33e4 <task::yield()>
    2cdc:	bd10      	pop	{r4, pc}
    2cde:	f000 fb5f 	bl	33a0 <task::_nonOS_sleep(unsigned long)>
    2ce2:	e7fb      	b.n	2cdc <task::sleep(unsigned long)+0x34>
    2ce4:	20000684 	.word	0x20000684
    2ce8:	20000098 	.word	0x20000098
    2cec:	10624dd3 	.word	0x10624dd3

00002cf0 <task::_scheduler()>:
    2cf0:	e92d 41f0 	stmdb	sp!, {r4, r5, r6, r7, r8, lr}
    2cf4:	4b21      	ldr	r3, [pc, #132]	; (2d7c <task::_scheduler()+0x8c>)
    2cf6:	681b      	ldr	r3, [r3, #0]
    2cf8:	6bdc      	ldr	r4, [r3, #60]	; 0x3c
    2cfa:	2500      	movs	r5, #0
    2cfc:	462e      	mov	r6, r5
    2cfe:	462f      	mov	r7, r5
    2d00:	e015      	b.n	2d2e <task::_scheduler()+0x3e>
    2d02:	6a21      	ldr	r1, [r4, #32]
    2d04:	6a62      	ldr	r2, [r4, #36]	; 0x24
    2d06:	4b1e      	ldr	r3, [pc, #120]	; (2d80 <task::_scheduler()+0x90>)
    2d08:	6818      	ldr	r0, [r3, #0]
    2d0a:	685b      	ldr	r3, [r3, #4]
    2d0c:	4288      	cmp	r0, r1
    2d0e:	4193      	sbcs	r3, r2
    2d10:	d316      	bcc.n	2d40 <task::_scheduler()+0x50>
    2d12:	2300      	movs	r3, #0
    2d14:	7563      	strb	r3, [r4, #21]
    2d16:	e013      	b.n	2d40 <task::_scheduler()+0x50>
    2d18:	6aa0      	ldr	r0, [r4, #40]	; 0x28
    2d1a:	6803      	ldr	r3, [r0, #0]
    2d1c:	689b      	ldr	r3, [r3, #8]
    2d1e:	4798      	blx	r3
    2d20:	b988      	cbnz	r0, 2d46 <task::_scheduler()+0x56>
    2d22:	2300      	movs	r3, #0
    2d24:	7563      	strb	r3, [r4, #21]
    2d26:	e00e      	b.n	2d46 <task::_scheduler()+0x56>
    2d28:	6be4      	ldr	r4, [r4, #60]	; 0x3c
    2d2a:	3501      	adds	r5, #1
    2d2c:	b2ad      	uxth	r5, r5
    2d2e:	4b15      	ldr	r3, [pc, #84]	; (2d84 <task::_scheduler()+0x94>)
    2d30:	689b      	ldr	r3, [r3, #8]
    2d32:	429d      	cmp	r5, r3
    2d34:	da0f      	bge.n	2d56 <task::_scheduler()+0x66>
    2d36:	f894 8014 	ldrb.w	r8, [r4, #20]
    2d3a:	7d63      	ldrb	r3, [r4, #21]
    2d3c:	2b01      	cmp	r3, #1
    2d3e:	d0e0      	beq.n	2d02 <task::_scheduler()+0x12>
    2d40:	7d63      	ldrb	r3, [r4, #21]
    2d42:	2b03      	cmp	r3, #3
    2d44:	d0e8      	beq.n	2d18 <task::_scheduler()+0x28>
    2d46:	7d63      	ldrb	r3, [r4, #21]
    2d48:	2b00      	cmp	r3, #0
    2d4a:	d1ed      	bne.n	2d28 <task::_scheduler()+0x38>
    2d4c:	4546      	cmp	r6, r8
    2d4e:	d2eb      	bcs.n	2d28 <task::_scheduler()+0x38>
    2d50:	4646      	mov	r6, r8
    2d52:	4627      	mov	r7, r4
    2d54:	e7e8      	b.n	2d28 <task::_scheduler()+0x38>
    2d56:	b14f      	cbz	r7, 2d6c <task::_scheduler()+0x7c>
    2d58:	4b08      	ldr	r3, [pc, #32]	; (2d7c <task::_scheduler()+0x8c>)
    2d5a:	681b      	ldr	r3, [r3, #0]
    2d5c:	42bb      	cmp	r3, r7
    2d5e:	d003      	beq.n	2d68 <task::_scheduler()+0x78>
    2d60:	4b09      	ldr	r3, [pc, #36]	; (2d88 <task::_scheduler()+0x98>)
    2d62:	601f      	str	r7, [r3, #0]
    2d64:	f000 fb14 	bl	3390 <task::_context_switch()>
    2d68:	e8bd 81f0 	ldmia.w	sp!, {r4, r5, r6, r7, r8, pc}
    2d6c:	4b07      	ldr	r3, [pc, #28]	; (2d8c <task::_scheduler()+0x9c>)
    2d6e:	4a08      	ldr	r2, [pc, #32]	; (2d90 <task::_scheduler()+0xa0>)
    2d70:	601a      	str	r2, [r3, #0]
    2d72:	4b08      	ldr	r3, [pc, #32]	; (2d94 <task::_scheduler()+0xa4>)
    2d74:	22bf      	movs	r2, #191	; 0xbf
    2d76:	601a      	str	r2, [r3, #0]
    2d78:	f7ff ff4a 	bl	2c10 <yahal_assert_func()>
    2d7c:	20000684 	.word	0x20000684
    2d80:	20000098 	.word	0x20000098
    2d84:	20000678 	.word	0x20000678
    2d88:	20000688 	.word	0x20000688
    2d8c:	200000c4 	.word	0x200000c4
    2d90:	0000ee4c 	.word	0x0000ee4c
    2d94:	200000e0 	.word	0x200000e0

00002d98 <task::_tick_handler()>:
    2d98:	b508      	push	{r3, lr}
    2d9a:	4a08      	ldr	r2, [pc, #32]	; (2dbc <task::_tick_handler()+0x24>)
    2d9c:	6813      	ldr	r3, [r2, #0]
    2d9e:	6851      	ldr	r1, [r2, #4]
    2da0:	3301      	adds	r3, #1
    2da2:	f141 0100 	adc.w	r1, r1, #0
    2da6:	6013      	str	r3, [r2, #0]
    2da8:	6051      	str	r1, [r2, #4]
    2daa:	4b05      	ldr	r3, [pc, #20]	; (2dc0 <task::_tick_handler()+0x28>)
    2dac:	681a      	ldr	r2, [r3, #0]
    2dae:	6993      	ldr	r3, [r2, #24]
    2db0:	3301      	adds	r3, #1
    2db2:	6193      	str	r3, [r2, #24]
    2db4:	f7ff ff9c 	bl	2cf0 <task::_scheduler()>
    2db8:	bd08      	pop	{r3, pc}
    2dba:	bf00      	nop
    2dbc:	20000098 	.word	0x20000098
    2dc0:	20000684 	.word	0x20000684

00002dc4 <task::run()>:
    2dc4:	b508      	push	{r3, lr}
    2dc6:	3044      	adds	r0, #68	; 0x44
    2dc8:	f7fe fe52 	bl	1a70 <std::function<void ()>::operator()() const>
    2dcc:	bd08      	pop	{r3, pc}

00002dce <circular_list<task>::push_back(task*)>:
    2dce:	6843      	ldr	r3, [r0, #4]
    2dd0:	b17b      	cbz	r3, 2df2 <circular_list<task>::push_back(task*)+0x24>
    2dd2:	6803      	ldr	r3, [r0, #0]
    2dd4:	63cb      	str	r3, [r1, #60]	; 0x3c
    2dd6:	6843      	ldr	r3, [r0, #4]
    2dd8:	640b      	str	r3, [r1, #64]	; 0x40
    2dda:	6803      	ldr	r3, [r0, #0]
    2ddc:	6419      	str	r1, [r3, #64]	; 0x40
    2dde:	6843      	ldr	r3, [r0, #4]
    2de0:	63d9      	str	r1, [r3, #60]	; 0x3c
    2de2:	6041      	str	r1, [r0, #4]
    2de4:	2301      	movs	r3, #1
    2de6:	f881 3038 	strb.w	r3, [r1, #56]	; 0x38
    2dea:	6883      	ldr	r3, [r0, #8]
    2dec:	3301      	adds	r3, #1
    2dee:	6083      	str	r3, [r0, #8]
    2df0:	4770      	bx	lr
    2df2:	63c9      	str	r1, [r1, #60]	; 0x3c
    2df4:	6409      	str	r1, [r1, #64]	; 0x40
    2df6:	6041      	str	r1, [r0, #4]
    2df8:	6001      	str	r1, [r0, #0]
    2dfa:	e7f3      	b.n	2de4 <circular_list<task>::push_back(task*)+0x16>

00002dfc <task::start(unsigned short, bool)>:
    2dfc:	b538      	push	{r3, r4, r5, lr}
    2dfe:	b131      	cbz	r1, 2e0e <task::start(unsigned short, bool)+0x12>
    2e00:	4604      	mov	r4, r0
    2e02:	460d      	mov	r5, r1
    2e04:	f890 3038 	ldrb.w	r3, [r0, #56]	; 0x38
    2e08:	b90b      	cbnz	r3, 2e0e <task::start(unsigned short, bool)+0x12>
    2e0a:	2300      	movs	r3, #0
    2e0c:	e00e      	b.n	2e2c <task::start(unsigned short, bool)+0x30>
    2e0e:	4b14      	ldr	r3, [pc, #80]	; (2e60 <task::start(unsigned short, bool)+0x64>)
    2e10:	4a14      	ldr	r2, [pc, #80]	; (2e64 <task::start(unsigned short, bool)+0x68>)
    2e12:	601a      	str	r2, [r3, #0]
    2e14:	4b14      	ldr	r3, [pc, #80]	; (2e68 <task::start(unsigned short, bool)+0x6c>)
    2e16:	2242      	movs	r2, #66	; 0x42
    2e18:	601a      	str	r2, [r3, #0]
    2e1a:	f7ff fef9 	bl	2c10 <yahal_assert_func()>
    2e1e:	6ae0      	ldr	r0, [r4, #44]	; 0x2c
    2e20:	f04f 0ca5 	mov.w	ip, #165	; 0xa5
    2e24:	f800 c003 	strb.w	ip, [r0, r3]
    2e28:	3301      	adds	r3, #1
    2e2a:	b29b      	uxth	r3, r3
    2e2c:	8e20      	ldrh	r0, [r4, #48]	; 0x30
    2e2e:	4298      	cmp	r0, r3
    2e30:	d8f5      	bhi.n	2e1e <task::start(unsigned short, bool)+0x22>
    2e32:	4611      	mov	r1, r2
    2e34:	4620      	mov	r0, r4
    2e36:	f000 fa87 	bl	3348 <task::_setup_stack(bool)>
    2e3a:	7525      	strb	r5, [r4, #20]
    2e3c:	2300      	movs	r3, #0
    2e3e:	7563      	strb	r3, [r4, #21]
    2e40:	61a3      	str	r3, [r4, #24]
    2e42:	61e3      	str	r3, [r4, #28]
    2e44:	2000      	movs	r0, #0
    2e46:	2100      	movs	r1, #0
    2e48:	e9c4 0108 	strd	r0, r1, [r4, #32]
    2e4c:	62a3      	str	r3, [r4, #40]	; 0x28
    2e4e:	f000 fad1 	bl	33f4 <task::enterCritical()>
    2e52:	4621      	mov	r1, r4
    2e54:	4805      	ldr	r0, [pc, #20]	; (2e6c <task::start(unsigned short, bool)+0x70>)
    2e56:	f7ff ffba 	bl	2dce <circular_list<task>::push_back(task*)>
    2e5a:	f000 fad0 	bl	33fe <task::leaveCritical()>
    2e5e:	bd38      	pop	{r3, r4, r5, pc}
    2e60:	200000c4 	.word	0x200000c4
    2e64:	0000ee4c 	.word	0x0000ee4c
    2e68:	200000e0 	.word	0x200000e0
    2e6c:	20000678 	.word	0x20000678

00002e70 <circular_list<task>::remove(task*)>:
    2e70:	6883      	ldr	r3, [r0, #8]
    2e72:	2b01      	cmp	r3, #1
    2e74:	d011      	beq.n	2e9a <circular_list<task>::remove(task*)+0x2a>
    2e76:	6c0a      	ldr	r2, [r1, #64]	; 0x40
    2e78:	6bcb      	ldr	r3, [r1, #60]	; 0x3c
    2e7a:	63d3      	str	r3, [r2, #60]	; 0x3c
    2e7c:	6c0a      	ldr	r2, [r1, #64]	; 0x40
    2e7e:	641a      	str	r2, [r3, #64]	; 0x40
    2e80:	6803      	ldr	r3, [r0, #0]
    2e82:	428b      	cmp	r3, r1
    2e84:	d00d      	beq.n	2ea2 <circular_list<task>::remove(task*)+0x32>
    2e86:	6843      	ldr	r3, [r0, #4]
    2e88:	428b      	cmp	r3, r1
    2e8a:	d00d      	beq.n	2ea8 <circular_list<task>::remove(task*)+0x38>
    2e8c:	2300      	movs	r3, #0
    2e8e:	f881 3038 	strb.w	r3, [r1, #56]	; 0x38
    2e92:	6883      	ldr	r3, [r0, #8]
    2e94:	3b01      	subs	r3, #1
    2e96:	6083      	str	r3, [r0, #8]
    2e98:	4770      	bx	lr
    2e9a:	2300      	movs	r3, #0
    2e9c:	6003      	str	r3, [r0, #0]
    2e9e:	6043      	str	r3, [r0, #4]
    2ea0:	e7f4      	b.n	2e8c <circular_list<task>::remove(task*)+0x1c>
    2ea2:	6bcb      	ldr	r3, [r1, #60]	; 0x3c
    2ea4:	6003      	str	r3, [r0, #0]
    2ea6:	e7ee      	b.n	2e86 <circular_list<task>::remove(task*)+0x16>
    2ea8:	6c0b      	ldr	r3, [r1, #64]	; 0x40
    2eaa:	6043      	str	r3, [r0, #4]
    2eac:	e7ee      	b.n	2e8c <circular_list<task>::remove(task*)+0x1c>
	...

00002eb0 <task::stop()>:
    2eb0:	f890 3038 	ldrb.w	r3, [r0, #56]	; 0x38
    2eb4:	b903      	cbnz	r3, 2eb8 <task::stop()+0x8>
    2eb6:	4770      	bx	lr
    2eb8:	b510      	push	{r4, lr}
    2eba:	4604      	mov	r4, r0
    2ebc:	f000 fa9a 	bl	33f4 <task::enterCritical()>
    2ec0:	4621      	mov	r1, r4
    2ec2:	4804      	ldr	r0, [pc, #16]	; (2ed4 <task::stop()+0x24>)
    2ec4:	f7ff ffd4 	bl	2e70 <circular_list<task>::remove(task*)>
    2ec8:	f000 fa99 	bl	33fe <task::leaveCritical()>
    2ecc:	f000 fa8a 	bl	33e4 <task::yield()>
    2ed0:	bd10      	pop	{r4, pc}
    2ed2:	bf00      	nop
    2ed4:	20000678 	.word	0x20000678

00002ed8 <task::~task()>:
    2ed8:	b510      	push	{r4, lr}
    2eda:	4604      	mov	r4, r0
    2edc:	4b07      	ldr	r3, [pc, #28]	; (2efc <task::~task()+0x24>)
    2ede:	6003      	str	r3, [r0, #0]
    2ee0:	f7ff ffe6 	bl	2eb0 <task::stop()>
    2ee4:	6ae0      	ldr	r0, [r4, #44]	; 0x2c
    2ee6:	b108      	cbz	r0, 2eec <task::~task()+0x14>
    2ee8:	f001 fe4b 	bl	4b82 <operator delete[](void*)>
    2eec:	2300      	movs	r3, #0
    2eee:	62e3      	str	r3, [r4, #44]	; 0x2c
    2ef0:	f104 0044 	add.w	r0, r4, #68	; 0x44
    2ef4:	f7fe fc20 	bl	1738 <std::_Function_base::~_Function_base()>
    2ef8:	4620      	mov	r0, r4
    2efa:	bd10      	pop	{r4, pc}
    2efc:	0000ee94 	.word	0x0000ee94

00002f00 <task::~task()>:
    2f00:	b510      	push	{r4, lr}
    2f02:	4604      	mov	r4, r0
    2f04:	f7ff ffe8 	bl	2ed8 <task::~task()>
    2f08:	2158      	movs	r1, #88	; 0x58
    2f0a:	4620      	mov	r0, r4
    2f0c:	f001 fe37 	bl	4b7e <operator delete(void*, unsigned int)>
    2f10:	4620      	mov	r0, r4
    2f12:	bd10      	pop	{r4, pc}

00002f14 <task::_run()>:
    2f14:	b510      	push	{r4, lr}
    2f16:	4604      	mov	r4, r0
    2f18:	6803      	ldr	r3, [r0, #0]
    2f1a:	689b      	ldr	r3, [r3, #8]
    2f1c:	4798      	blx	r3
    2f1e:	4620      	mov	r0, r4
    2f20:	f7ff ffc6 	bl	2eb0 <task::stop()>
    2f24:	bd10      	pop	{r4, pc}

00002f26 <_GLOBAL__sub_I__ZN4task9_up_ticksE>:
    2f26:	b508      	push	{r3, lr}
    2f28:	f64f 71ff 	movw	r1, #65535	; 0xffff
    2f2c:	2001      	movs	r0, #1
    2f2e:	f7ff fe71 	bl	2c14 <__static_initialization_and_destruction_0(int, int)>
    2f32:	bd08      	pop	{r3, pc}

00002f34 <__yahal_bad_function_call>:
    2f34:	e7fe      	b.n	2f34 <__yahal_bad_function_call>
	...

00002f38 <__static_initialization_and_destruction_0(int, int)>:
    2f38:	2801      	cmp	r0, #1
    2f3a:	d000      	beq.n	2f3e <__static_initialization_and_destruction_0(int, int)+0x6>
    2f3c:	4770      	bx	lr
    2f3e:	f64f 73ff 	movw	r3, #65535	; 0xffff
    2f42:	4299      	cmp	r1, r3
    2f44:	d1fa      	bne.n	2f3c <__static_initialization_and_destruction_0(int, int)+0x4>
    2f46:	4b05      	ldr	r3, [pc, #20]	; (2f5c <__static_initialization_and_destruction_0(int, int)+0x24>)
    2f48:	2200      	movs	r2, #0
    2f4a:	601a      	str	r2, [r3, #0]
    2f4c:	605a      	str	r2, [r3, #4]
    2f4e:	609a      	str	r2, [r3, #8]
    2f50:	60da      	str	r2, [r3, #12]
    2f52:	741a      	strb	r2, [r3, #16]
    2f54:	745a      	strb	r2, [r3, #17]
    2f56:	749a      	strb	r2, [r3, #18]
    2f58:	e7f0      	b.n	2f3c <__static_initialization_and_destruction_0(int, int)+0x4>
    2f5a:	bf00      	nop
    2f5c:	2000068c 	.word	0x2000068c

00002f60 <_read>:
    2f60:	b5f8      	push	{r3, r4, r5, r6, r7, lr}
    2f62:	460f      	mov	r7, r1
    2f64:	4616      	mov	r6, r2
    2f66:	4604      	mov	r4, r0
    2f68:	b178      	cbz	r0, 2f8a <_read+0x2a>
    2f6a:	4b19      	ldr	r3, [pc, #100]	; (2fd0 <_read+0x70>)
    2f6c:	68d8      	ldr	r0, [r3, #12]
    2f6e:	2800      	cmp	r0, #0
    2f70:	d02b      	beq.n	2fca <_read+0x6a>
    2f72:	6803      	ldr	r3, [r0, #0]
    2f74:	681d      	ldr	r5, [r3, #0]
    2f76:	4613      	mov	r3, r2
    2f78:	460a      	mov	r2, r1
    2f7a:	4621      	mov	r1, r4
    2f7c:	47a8      	blx	r5
    2f7e:	bdf8      	pop	{r3, r4, r5, r6, r7, pc}
    2f80:	2500      	movs	r5, #0
    2f82:	553d      	strb	r5, [r7, r4]
    2f84:	2d0d      	cmp	r5, #13
    2f86:	d01c      	beq.n	2fc2 <_read+0x62>
    2f88:	3401      	adds	r4, #1
    2f8a:	42b4      	cmp	r4, r6
    2f8c:	da1b      	bge.n	2fc6 <_read+0x66>
    2f8e:	4810      	ldr	r0, [pc, #64]	; (2fd0 <_read+0x70>)
    2f90:	6800      	ldr	r0, [r0, #0]
    2f92:	2800      	cmp	r0, #0
    2f94:	d0f4      	beq.n	2f80 <_read+0x20>
    2f96:	6803      	ldr	r3, [r0, #0]
    2f98:	685b      	ldr	r3, [r3, #4]
    2f9a:	4798      	blx	r3
    2f9c:	4605      	mov	r5, r0
    2f9e:	4b0c      	ldr	r3, [pc, #48]	; (2fd0 <_read+0x70>)
    2fa0:	7c1b      	ldrb	r3, [r3, #16]
    2fa2:	2b00      	cmp	r3, #0
    2fa4:	d0ed      	beq.n	2f82 <_read+0x22>
    2fa6:	4b0a      	ldr	r3, [pc, #40]	; (2fd0 <_read+0x70>)
    2fa8:	6858      	ldr	r0, [r3, #4]
    2faa:	2800      	cmp	r0, #0
    2fac:	d0e9      	beq.n	2f82 <_read+0x22>
    2fae:	6803      	ldr	r3, [r0, #0]
    2fb0:	689b      	ldr	r3, [r3, #8]
    2fb2:	4629      	mov	r1, r5
    2fb4:	4798      	blx	r3
    2fb6:	4b07      	ldr	r3, [pc, #28]	; (2fd4 <_read+0x74>)
    2fb8:	681b      	ldr	r3, [r3, #0]
    2fba:	6898      	ldr	r0, [r3, #8]
    2fbc:	f001 ff8a 	bl	4ed4 <fflush>
    2fc0:	e7df      	b.n	2f82 <_read+0x22>
    2fc2:	1c60      	adds	r0, r4, #1
    2fc4:	e7db      	b.n	2f7e <_read+0x1e>
    2fc6:	4620      	mov	r0, r4
    2fc8:	e7d9      	b.n	2f7e <_read+0x1e>
    2fca:	2000      	movs	r0, #0
    2fcc:	e7d7      	b.n	2f7e <_read+0x1e>
    2fce:	bf00      	nop
    2fd0:	2000068c 	.word	0x2000068c
    2fd4:	20000048 	.word	0x20000048

00002fd8 <_write>:
    2fd8:	b5f0      	push	{r4, r5, r6, r7, lr}
    2fda:	b085      	sub	sp, #20
    2fdc:	460e      	mov	r6, r1
    2fde:	4615      	mov	r5, r2
    2fe0:	2801      	cmp	r0, #1
    2fe2:	d026      	beq.n	3032 <_write+0x5a>
    2fe4:	4604      	mov	r4, r0
    2fe6:	2802      	cmp	r0, #2
    2fe8:	d028      	beq.n	303c <_write+0x64>
    2fea:	4b38      	ldr	r3, [pc, #224]	; (30cc <_write+0xf4>)
    2fec:	68d8      	ldr	r0, [r3, #12]
    2fee:	2800      	cmp	r0, #0
    2ff0:	d069      	beq.n	30c6 <_write+0xee>
    2ff2:	6803      	ldr	r3, [r0, #0]
    2ff4:	685f      	ldr	r7, [r3, #4]
    2ff6:	4613      	mov	r3, r2
    2ff8:	460a      	mov	r2, r1
    2ffa:	4621      	mov	r1, r4
    2ffc:	47b8      	blx	r7
    2ffe:	e01b      	b.n	3038 <_write+0x60>
    3000:	3401      	adds	r4, #1
    3002:	42ac      	cmp	r4, r5
    3004:	da17      	bge.n	3036 <_write+0x5e>
    3006:	4b31      	ldr	r3, [pc, #196]	; (30cc <_write+0xf4>)
    3008:	6858      	ldr	r0, [r3, #4]
    300a:	2800      	cmp	r0, #0
    300c:	d0f8      	beq.n	3000 <_write+0x28>
    300e:	6803      	ldr	r3, [r0, #0]
    3010:	689b      	ldr	r3, [r3, #8]
    3012:	5d31      	ldrb	r1, [r6, r4]
    3014:	4798      	blx	r3
    3016:	4b2d      	ldr	r3, [pc, #180]	; (30cc <_write+0xf4>)
    3018:	7c5b      	ldrb	r3, [r3, #17]
    301a:	2b00      	cmp	r3, #0
    301c:	d0f0      	beq.n	3000 <_write+0x28>
    301e:	5d33      	ldrb	r3, [r6, r4]
    3020:	2b0a      	cmp	r3, #10
    3022:	d1ed      	bne.n	3000 <_write+0x28>
    3024:	4b29      	ldr	r3, [pc, #164]	; (30cc <_write+0xf4>)
    3026:	6858      	ldr	r0, [r3, #4]
    3028:	6803      	ldr	r3, [r0, #0]
    302a:	689b      	ldr	r3, [r3, #8]
    302c:	210d      	movs	r1, #13
    302e:	4798      	blx	r3
    3030:	e7e6      	b.n	3000 <_write+0x28>
    3032:	2400      	movs	r4, #0
    3034:	e7e5      	b.n	3002 <_write+0x2a>
    3036:	4628      	mov	r0, r5
    3038:	b005      	add	sp, #20
    303a:	bdf0      	pop	{r4, r5, r6, r7, pc}
    303c:	4b23      	ldr	r3, [pc, #140]	; (30cc <_write+0xf4>)
    303e:	689b      	ldr	r3, [r3, #8]
    3040:	2b00      	cmp	r3, #0
    3042:	d03e      	beq.n	30c2 <_write+0xea>
    3044:	4b22      	ldr	r3, [pc, #136]	; (30d0 <_write+0xf8>)
    3046:	e893 0003 	ldmia.w	r3, {r0, r1}
    304a:	9002      	str	r0, [sp, #8]
    304c:	f8ad 100c 	strh.w	r1, [sp, #12]
    3050:	4b20      	ldr	r3, [pc, #128]	; (30d4 <_write+0xfc>)
    3052:	e893 0003 	ldmia.w	r3, {r0, r1}
    3056:	9000      	str	r0, [sp, #0]
    3058:	f88d 1004 	strb.w	r1, [sp, #4]
    305c:	ac02      	add	r4, sp, #8
    305e:	e005      	b.n	306c <_write+0x94>
    3060:	4b1a      	ldr	r3, [pc, #104]	; (30cc <_write+0xf4>)
    3062:	6898      	ldr	r0, [r3, #8]
    3064:	3401      	adds	r4, #1
    3066:	6803      	ldr	r3, [r0, #0]
    3068:	689b      	ldr	r3, [r3, #8]
    306a:	4798      	blx	r3
    306c:	7821      	ldrb	r1, [r4, #0]
    306e:	2900      	cmp	r1, #0
    3070:	d1f6      	bne.n	3060 <_write+0x88>
    3072:	2400      	movs	r4, #0
    3074:	e000      	b.n	3078 <_write+0xa0>
    3076:	3401      	adds	r4, #1
    3078:	42ac      	cmp	r4, r5
    307a:	da15      	bge.n	30a8 <_write+0xd0>
    307c:	4b13      	ldr	r3, [pc, #76]	; (30cc <_write+0xf4>)
    307e:	6898      	ldr	r0, [r3, #8]
    3080:	2800      	cmp	r0, #0
    3082:	d0f8      	beq.n	3076 <_write+0x9e>
    3084:	6803      	ldr	r3, [r0, #0]
    3086:	689b      	ldr	r3, [r3, #8]
    3088:	5d31      	ldrb	r1, [r6, r4]
    308a:	4798      	blx	r3
    308c:	4b0f      	ldr	r3, [pc, #60]	; (30cc <_write+0xf4>)
    308e:	7c9b      	ldrb	r3, [r3, #18]
    3090:	2b00      	cmp	r3, #0
    3092:	d0f0      	beq.n	3076 <_write+0x9e>
    3094:	5d33      	ldrb	r3, [r6, r4]
    3096:	2b0a      	cmp	r3, #10
    3098:	d1ed      	bne.n	3076 <_write+0x9e>
    309a:	4b0c      	ldr	r3, [pc, #48]	; (30cc <_write+0xf4>)
    309c:	6898      	ldr	r0, [r3, #8]
    309e:	6803      	ldr	r3, [r0, #0]
    30a0:	689b      	ldr	r3, [r3, #8]
    30a2:	210d      	movs	r1, #13
    30a4:	4798      	blx	r3
    30a6:	e7e6      	b.n	3076 <_write+0x9e>
    30a8:	466c      	mov	r4, sp
    30aa:	e005      	b.n	30b8 <_write+0xe0>
    30ac:	4b07      	ldr	r3, [pc, #28]	; (30cc <_write+0xf4>)
    30ae:	6898      	ldr	r0, [r3, #8]
    30b0:	3401      	adds	r4, #1
    30b2:	6803      	ldr	r3, [r0, #0]
    30b4:	689b      	ldr	r3, [r3, #8]
    30b6:	4798      	blx	r3
    30b8:	7821      	ldrb	r1, [r4, #0]
    30ba:	2900      	cmp	r1, #0
    30bc:	d1f6      	bne.n	30ac <_write+0xd4>
    30be:	4628      	mov	r0, r5
    30c0:	e7ba      	b.n	3038 <_write+0x60>
    30c2:	4610      	mov	r0, r2
    30c4:	e7b8      	b.n	3038 <_write+0x60>
    30c6:	2000      	movs	r0, #0
    30c8:	e7b6      	b.n	3038 <_write+0x60>
    30ca:	bf00      	nop
    30cc:	2000068c 	.word	0x2000068c
    30d0:	0000eea0 	.word	0x0000eea0
    30d4:	0000eea8 	.word	0x0000eea8

000030d8 <_close>:
    30d8:	b508      	push	{r3, lr}
    30da:	4601      	mov	r1, r0
    30dc:	4b06      	ldr	r3, [pc, #24]	; (30f8 <_close+0x20>)
    30de:	68d8      	ldr	r0, [r3, #12]
    30e0:	b118      	cbz	r0, 30ea <_close+0x12>
    30e2:	6803      	ldr	r3, [r0, #0]
    30e4:	68db      	ldr	r3, [r3, #12]
    30e6:	4798      	blx	r3
    30e8:	bd08      	pop	{r3, pc}
    30ea:	f002 f999 	bl	5420 <__errno>
    30ee:	2309      	movs	r3, #9
    30f0:	6003      	str	r3, [r0, #0]
    30f2:	f04f 30ff 	mov.w	r0, #4294967295
    30f6:	e7f7      	b.n	30e8 <_close+0x10>
    30f8:	2000068c 	.word	0x2000068c

000030fc <_fstat>:
    30fc:	4603      	mov	r3, r0
    30fe:	460a      	mov	r2, r1
    3100:	4906      	ldr	r1, [pc, #24]	; (311c <_fstat+0x20>)
    3102:	68c8      	ldr	r0, [r1, #12]
    3104:	b128      	cbz	r0, 3112 <_fstat+0x16>
    3106:	b510      	push	{r4, lr}
    3108:	6801      	ldr	r1, [r0, #0]
    310a:	69cc      	ldr	r4, [r1, #28]
    310c:	4619      	mov	r1, r3
    310e:	47a0      	blx	r4
    3110:	bd10      	pop	{r4, pc}
    3112:	f44f 5300 	mov.w	r3, #8192	; 0x2000
    3116:	6053      	str	r3, [r2, #4]
    3118:	2000      	movs	r0, #0
    311a:	4770      	bx	lr
    311c:	2000068c 	.word	0x2000068c

00003120 <_lseek>:
    3120:	4684      	mov	ip, r0
    3122:	4613      	mov	r3, r2
    3124:	4a05      	ldr	r2, [pc, #20]	; (313c <_lseek+0x1c>)
    3126:	68d0      	ldr	r0, [r2, #12]
    3128:	b130      	cbz	r0, 3138 <_lseek+0x18>
    312a:	b510      	push	{r4, lr}
    312c:	6802      	ldr	r2, [r0, #0]
    312e:	6a14      	ldr	r4, [r2, #32]
    3130:	460a      	mov	r2, r1
    3132:	4661      	mov	r1, ip
    3134:	47a0      	blx	r4
    3136:	bd10      	pop	{r4, pc}
    3138:	2000      	movs	r0, #0
    313a:	4770      	bx	lr
    313c:	2000068c 	.word	0x2000068c

00003140 <_isatty>:
    3140:	2802      	cmp	r0, #2
    3142:	d90f      	bls.n	3164 <_isatty+0x24>
    3144:	b508      	push	{r3, lr}
    3146:	4601      	mov	r1, r0
    3148:	4b07      	ldr	r3, [pc, #28]	; (3168 <_isatty+0x28>)
    314a:	68d8      	ldr	r0, [r3, #12]
    314c:	b118      	cbz	r0, 3156 <_isatty+0x16>
    314e:	6803      	ldr	r3, [r0, #0]
    3150:	6a5b      	ldr	r3, [r3, #36]	; 0x24
    3152:	4798      	blx	r3
    3154:	bd08      	pop	{r3, pc}
    3156:	f002 f963 	bl	5420 <__errno>
    315a:	2309      	movs	r3, #9
    315c:	6003      	str	r3, [r0, #0]
    315e:	f04f 30ff 	mov.w	r0, #4294967295
    3162:	e7f7      	b.n	3154 <_isatty+0x14>
    3164:	2001      	movs	r0, #1
    3166:	4770      	bx	lr
    3168:	2000068c 	.word	0x2000068c

0000316c <_kill>:
    316c:	b508      	push	{r3, lr}
    316e:	f002 f957 	bl	5420 <__errno>
    3172:	2316      	movs	r3, #22
    3174:	6003      	str	r3, [r0, #0]
    3176:	f04f 30ff 	mov.w	r0, #4294967295
    317a:	bd08      	pop	{r3, pc}

0000317c <_getpid>:
    317c:	f04f 30ff 	mov.w	r0, #4294967295
    3180:	4770      	bx	lr
	...

00003184 <posix_io::register_stdin(uart_interface&, bool)>:
    3184:	b508      	push	{r3, lr}
    3186:	6001      	str	r1, [r0, #0]
    3188:	7402      	strb	r2, [r0, #16]
    318a:	4b04      	ldr	r3, [pc, #16]	; (319c <posix_io::register_stdin(uart_interface&, bool)+0x18>)
    318c:	6818      	ldr	r0, [r3, #0]
    318e:	2364      	movs	r3, #100	; 0x64
    3190:	2201      	movs	r2, #1
    3192:	2100      	movs	r1, #0
    3194:	6840      	ldr	r0, [r0, #4]
    3196:	f001 ff97 	bl	50c8 <setvbuf>
    319a:	bd08      	pop	{r3, pc}
    319c:	20000048 	.word	0x20000048

000031a0 <posix_io::register_stdout(uart_interface&, bool)>:
    31a0:	b508      	push	{r3, lr}
    31a2:	6041      	str	r1, [r0, #4]
    31a4:	7442      	strb	r2, [r0, #17]
    31a6:	4b04      	ldr	r3, [pc, #16]	; (31b8 <posix_io::register_stdout(uart_interface&, bool)+0x18>)
    31a8:	6818      	ldr	r0, [r3, #0]
    31aa:	2364      	movs	r3, #100	; 0x64
    31ac:	2201      	movs	r2, #1
    31ae:	2100      	movs	r1, #0
    31b0:	6880      	ldr	r0, [r0, #8]
    31b2:	f001 ff89 	bl	50c8 <setvbuf>
    31b6:	bd08      	pop	{r3, pc}
    31b8:	20000048 	.word	0x20000048

000031bc <posix_io::register_stderr(uart_interface&, bool)>:
    31bc:	b508      	push	{r3, lr}
    31be:	6081      	str	r1, [r0, #8]
    31c0:	7482      	strb	r2, [r0, #18]
    31c2:	4b04      	ldr	r3, [pc, #16]	; (31d4 <posix_io::register_stderr(uart_interface&, bool)+0x18>)
    31c4:	6818      	ldr	r0, [r3, #0]
    31c6:	2364      	movs	r3, #100	; 0x64
    31c8:	2201      	movs	r2, #1
    31ca:	2100      	movs	r1, #0
    31cc:	68c0      	ldr	r0, [r0, #12]
    31ce:	f001 ff7b 	bl	50c8 <setvbuf>
    31d2:	bd08      	pop	{r3, pc}
    31d4:	20000048 	.word	0x20000048

000031d8 <_GLOBAL__sub_I__ZN8posix_io4instE>:
    31d8:	b508      	push	{r3, lr}
    31da:	f64f 71ff 	movw	r1, #65535	; 0xffff
    31de:	2001      	movs	r0, #1
    31e0:	f7ff feaa 	bl	2f38 <__static_initialization_and_destruction_0(int, int)>
    31e4:	bd08      	pop	{r3, pc}

000031e6 <irq_dispatcher::link_in()>:
    31e6:	4770      	bx	lr

000031e8 <Default_EUSCI_Handler>:
    31e8:	e7fe      	b.n	31e8 <Default_EUSCI_Handler>
	...

000031ec <EUSCIA0_IRQHandler>:
    31ec:	b508      	push	{r3, lr}
    31ee:	4b05      	ldr	r3, [pc, #20]	; (3204 <EUSCIA0_IRQHandler+0x18>)
    31f0:	881b      	ldrh	r3, [r3, #0]
    31f2:	f413 7f80 	tst.w	r3, #256	; 0x100
    31f6:	d002      	beq.n	31fe <EUSCIA0_IRQHandler+0x12>
    31f8:	f7ff f806 	bl	2208 <EUSCIA0_SPI_IRQHandler>
    31fc:	bd08      	pop	{r3, pc}
    31fe:	f7ff fae1 	bl	27c4 <EUSCIA0_UART_IRQHandler>
    3202:	e7fb      	b.n	31fc <EUSCIA0_IRQHandler+0x10>
    3204:	40001000 	.word	0x40001000

00003208 <EUSCIA1_IRQHandler>:
    3208:	b508      	push	{r3, lr}
    320a:	4b05      	ldr	r3, [pc, #20]	; (3220 <EUSCIA1_IRQHandler+0x18>)
    320c:	881b      	ldrh	r3, [r3, #0]
    320e:	f413 7f80 	tst.w	r3, #256	; 0x100
    3212:	d002      	beq.n	321a <EUSCIA1_IRQHandler+0x12>
    3214:	f7ff f804 	bl	2220 <EUSCIA1_SPI_IRQHandler>
    3218:	bd08      	pop	{r3, pc}
    321a:	f7ff fadb 	bl	27d4 <EUSCIA1_UART_IRQHandler>
    321e:	e7fb      	b.n	3218 <EUSCIA1_IRQHandler+0x10>
    3220:	40001400 	.word	0x40001400

00003224 <EUSCIA2_IRQHandler>:
    3224:	b508      	push	{r3, lr}
    3226:	4b05      	ldr	r3, [pc, #20]	; (323c <EUSCIA2_IRQHandler+0x18>)
    3228:	881b      	ldrh	r3, [r3, #0]
    322a:	f413 7f80 	tst.w	r3, #256	; 0x100
    322e:	d002      	beq.n	3236 <EUSCIA2_IRQHandler+0x12>
    3230:	f7ff f802 	bl	2238 <EUSCIA2_SPI_IRQHandler>
    3234:	bd08      	pop	{r3, pc}
    3236:	f7ff fad5 	bl	27e4 <EUSCIA2_UART_IRQHandler>
    323a:	e7fb      	b.n	3234 <EUSCIA2_IRQHandler+0x10>
    323c:	40001800 	.word	0x40001800

00003240 <EUSCIA3_IRQHandler>:
    3240:	b508      	push	{r3, lr}
    3242:	4b05      	ldr	r3, [pc, #20]	; (3258 <EUSCIA3_IRQHandler+0x18>)
    3244:	881b      	ldrh	r3, [r3, #0]
    3246:	f413 7f80 	tst.w	r3, #256	; 0x100
    324a:	d002      	beq.n	3252 <EUSCIA3_IRQHandler+0x12>
    324c:	f7ff f800 	bl	2250 <EUSCIA3_SPI_IRQHandler>
    3250:	bd08      	pop	{r3, pc}
    3252:	f7ff facf 	bl	27f4 <EUSCIA3_UART_IRQHandler>
    3256:	e7fb      	b.n	3250 <EUSCIA3_IRQHandler+0x10>
    3258:	40001c00 	.word	0x40001c00

0000325c <EUSCIB0_IRQHandler>:
    325c:	b508      	push	{r3, lr}
    325e:	4b06      	ldr	r3, [pc, #24]	; (3278 <EUSCIB0_IRQHandler+0x1c>)
    3260:	881b      	ldrh	r3, [r3, #0]
    3262:	f403 63c0 	and.w	r3, r3, #1536	; 0x600
    3266:	f5b3 6fc0 	cmp.w	r3, #1536	; 0x600
    326a:	d002      	beq.n	3272 <EUSCIB0_IRQHandler+0x16>
    326c:	f7fe fffc 	bl	2268 <EUSCIB0_SPI_IRQHandler>
    3270:	bd08      	pop	{r3, pc}
    3272:	f7ff ffb9 	bl	31e8 <Default_EUSCI_Handler>
    3276:	e7fb      	b.n	3270 <EUSCIB0_IRQHandler+0x14>
    3278:	40002000 	.word	0x40002000

0000327c <EUSCIB1_IRQHandler>:
    327c:	b508      	push	{r3, lr}
    327e:	4b06      	ldr	r3, [pc, #24]	; (3298 <EUSCIB1_IRQHandler+0x1c>)
    3280:	881b      	ldrh	r3, [r3, #0]
    3282:	f403 63c0 	and.w	r3, r3, #1536	; 0x600
    3286:	f5b3 6fc0 	cmp.w	r3, #1536	; 0x600
    328a:	d002      	beq.n	3292 <EUSCIB1_IRQHandler+0x16>
    328c:	f7fe fff8 	bl	2280 <EUSCIB1_SPI_IRQHandler>
    3290:	bd08      	pop	{r3, pc}
    3292:	f7ff ffa9 	bl	31e8 <Default_EUSCI_Handler>
    3296:	e7fb      	b.n	3290 <EUSCIB1_IRQHandler+0x14>
    3298:	40002400 	.word	0x40002400

0000329c <EUSCIB2_IRQHandler>:
    329c:	b508      	push	{r3, lr}
    329e:	4b06      	ldr	r3, [pc, #24]	; (32b8 <EUSCIB2_IRQHandler+0x1c>)
    32a0:	881b      	ldrh	r3, [r3, #0]
    32a2:	f403 63c0 	and.w	r3, r3, #1536	; 0x600
    32a6:	f5b3 6fc0 	cmp.w	r3, #1536	; 0x600
    32aa:	d002      	beq.n	32b2 <EUSCIB2_IRQHandler+0x16>
    32ac:	f7fe fff4 	bl	2298 <EUSCIB2_SPI_IRQHandler>
    32b0:	bd08      	pop	{r3, pc}
    32b2:	f7ff ff99 	bl	31e8 <Default_EUSCI_Handler>
    32b6:	e7fb      	b.n	32b0 <EUSCIB2_IRQHandler+0x14>
    32b8:	40002800 	.word	0x40002800

000032bc <EUSCIB3_IRQHandler>:
    32bc:	b508      	push	{r3, lr}
    32be:	4b06      	ldr	r3, [pc, #24]	; (32d8 <EUSCIB3_IRQHandler+0x1c>)
    32c0:	881b      	ldrh	r3, [r3, #0]
    32c2:	f403 63c0 	and.w	r3, r3, #1536	; 0x600
    32c6:	f5b3 6fc0 	cmp.w	r3, #1536	; 0x600
    32ca:	d002      	beq.n	32d2 <EUSCIB3_IRQHandler+0x16>
    32cc:	f7fe fff0 	bl	22b0 <EUSCIB3_SPI_IRQHandler>
    32d0:	bd08      	pop	{r3, pc}
    32d2:	f7ff ff89 	bl	31e8 <Default_EUSCI_Handler>
    32d6:	e7fb      	b.n	32d0 <EUSCIB3_IRQHandler+0x14>
    32d8:	40002c00 	.word	0x40002c00

000032dc <yahal_assert_func()>:
    32dc:	e7fe      	b.n	32dc <yahal_assert_func()>
	...

000032e0 <task_idle::~task_idle()>:
    32e0:	b510      	push	{r4, lr}
    32e2:	4604      	mov	r4, r0
    32e4:	4b02      	ldr	r3, [pc, #8]	; (32f0 <task_idle::~task_idle()+0x10>)
    32e6:	6003      	str	r3, [r0, #0]
    32e8:	f7ff fdf6 	bl	2ed8 <task::~task()>
    32ec:	4620      	mov	r0, r4
    32ee:	bd10      	pop	{r4, pc}
    32f0:	0000eeb8 	.word	0x0000eeb8

000032f4 <task_idle::~task_idle()>:
    32f4:	b510      	push	{r4, lr}
    32f6:	4604      	mov	r4, r0
    32f8:	4b04      	ldr	r3, [pc, #16]	; (330c <task_idle::~task_idle()+0x18>)
    32fa:	6003      	str	r3, [r0, #0]
    32fc:	f7ff fdec 	bl	2ed8 <task::~task()>
    3300:	2158      	movs	r1, #88	; 0x58
    3302:	4620      	mov	r0, r4
    3304:	f001 fc3b 	bl	4b7e <operator delete(void*, unsigned int)>
    3308:	4620      	mov	r0, r4
    330a:	bd10      	pop	{r4, pc}
    330c:	0000eeb8 	.word	0x0000eeb8

00003310 <task::_switchToNext()>:
    3310:	4b02      	ldr	r3, [pc, #8]	; (331c <task::_switchToNext()+0xc>)
    3312:	681a      	ldr	r2, [r3, #0]
    3314:	4b02      	ldr	r3, [pc, #8]	; (3320 <task::_switchToNext()+0x10>)
    3316:	601a      	str	r2, [r3, #0]
    3318:	4770      	bx	lr
    331a:	bf00      	nop
    331c:	20000688 	.word	0x20000688
    3320:	20000684 	.word	0x20000684

00003324 <task::_getStackBase()>:
    3324:	4b01      	ldr	r3, [pc, #4]	; (332c <task::_getStackBase()+0x8>)
    3326:	681b      	ldr	r3, [r3, #0]
    3328:	6ad8      	ldr	r0, [r3, #44]	; 0x2c
    332a:	4770      	bx	lr
    332c:	20000684 	.word	0x20000684

00003330 <task::_getStackPtr()>:
    3330:	4b01      	ldr	r3, [pc, #4]	; (3338 <task::_getStackPtr()+0x8>)
    3332:	681b      	ldr	r3, [r3, #0]
    3334:	6b58      	ldr	r0, [r3, #52]	; 0x34
    3336:	4770      	bx	lr
    3338:	20000684 	.word	0x20000684

0000333c <task::_setStackPtr(unsigned char*)>:
    333c:	4b01      	ldr	r3, [pc, #4]	; (3344 <task::_setStackPtr(unsigned char*)+0x8>)
    333e:	681b      	ldr	r3, [r3, #0]
    3340:	6358      	str	r0, [r3, #52]	; 0x34
    3342:	4770      	bx	lr
    3344:	20000684 	.word	0x20000684

00003348 <task::_setup_stack(bool)>:
    3348:	b538      	push	{r3, r4, r5, lr}
    334a:	8e03      	ldrh	r3, [r0, #48]	; 0x30
    334c:	2b44      	cmp	r3, #68	; 0x44
    334e:	d90d      	bls.n	336c <task::_setup_stack(bool)+0x24>
    3350:	6ac4      	ldr	r4, [r0, #44]	; 0x2c
    3352:	3b44      	subs	r3, #68	; 0x44
    3354:	18e2      	adds	r2, r4, r3
    3356:	6342      	str	r2, [r0, #52]	; 0x34
    3358:	f04f 7580 	mov.w	r5, #16777216	; 0x1000000
    335c:	6415      	str	r5, [r2, #64]	; 0x40
    335e:	4d08      	ldr	r5, [pc, #32]	; (3380 <task::_setup_stack(bool)+0x38>)
    3360:	63d5      	str	r5, [r2, #60]	; 0x3c
    3362:	6250      	str	r0, [r2, #36]	; 0x24
    3364:	b151      	cbz	r1, 337c <task::_setup_stack(bool)+0x34>
    3366:	2202      	movs	r2, #2
    3368:	50e2      	str	r2, [r4, r3]
    336a:	bd38      	pop	{r3, r4, r5, pc}
    336c:	4b05      	ldr	r3, [pc, #20]	; (3384 <task::_setup_stack(bool)+0x3c>)
    336e:	4a06      	ldr	r2, [pc, #24]	; (3388 <task::_setup_stack(bool)+0x40>)
    3370:	601a      	str	r2, [r3, #0]
    3372:	4b06      	ldr	r3, [pc, #24]	; (338c <task::_setup_stack(bool)+0x44>)
    3374:	2249      	movs	r2, #73	; 0x49
    3376:	601a      	str	r2, [r3, #0]
    3378:	f7ff ffb0 	bl	32dc <yahal_assert_func()>
    337c:	2203      	movs	r2, #3
    337e:	e7f3      	b.n	3368 <task::_setup_stack(bool)+0x20>
    3380:	00002f15 	.word	0x00002f15
    3384:	200000c8 	.word	0x200000c8
    3388:	000069e8 	.word	0x000069e8
    338c:	200000e4 	.word	0x200000e4

00003390 <task::_context_switch()>:
    3390:	4a02      	ldr	r2, [pc, #8]	; (339c <task::_context_switch()+0xc>)
    3392:	6853      	ldr	r3, [r2, #4]
    3394:	f043 5380 	orr.w	r3, r3, #268435456	; 0x10000000
    3398:	6053      	str	r3, [r2, #4]
    339a:	4770      	bx	lr
    339c:	e000ed00 	.word	0xe000ed00

000033a0 <task::_nonOS_sleep(unsigned long)>:
    33a0:	4b0e      	ldr	r3, [pc, #56]	; (33dc <task::_nonOS_sleep(unsigned long)+0x3c>)
    33a2:	681b      	ldr	r3, [r3, #0]
    33a4:	4a0e      	ldr	r2, [pc, #56]	; (33e0 <task::_nonOS_sleep(unsigned long)+0x40>)
    33a6:	fba2 2303 	umull	r2, r3, r2, r3
    33aa:	099b      	lsrs	r3, r3, #6
    33ac:	3b01      	subs	r3, #1
    33ae:	f04f 21e0 	mov.w	r1, #3758153728	; 0xe000e000
    33b2:	614b      	str	r3, [r1, #20]
    33b4:	2200      	movs	r2, #0
    33b6:	618a      	str	r2, [r1, #24]
    33b8:	2305      	movs	r3, #5
    33ba:	610b      	str	r3, [r1, #16]
    33bc:	e006      	b.n	33cc <task::_nonOS_sleep(unsigned long)+0x2c>
    33be:	f04f 23e0 	mov.w	r3, #3758153728	; 0xe000e000
    33c2:	691b      	ldr	r3, [r3, #16]
    33c4:	f413 3f80 	tst.w	r3, #65536	; 0x10000
    33c8:	d0f9      	beq.n	33be <task::_nonOS_sleep(unsigned long)+0x1e>
    33ca:	3201      	adds	r2, #1
    33cc:	4282      	cmp	r2, r0
    33ce:	d3f6      	bcc.n	33be <task::_nonOS_sleep(unsigned long)+0x1e>
    33d0:	f04f 23e0 	mov.w	r3, #3758153728	; 0xe000e000
    33d4:	2200      	movs	r2, #0
    33d6:	611a      	str	r2, [r3, #16]
    33d8:	4770      	bx	lr
    33da:	bf00      	nop
    33dc:	20000038 	.word	0x20000038
    33e0:	10624dd3 	.word	0x10624dd3

000033e4 <task::yield()>:
    33e4:	df01      	svc	1
    33e6:	4770      	bx	lr

000033e8 <task::cpu_sleep()>:
    33e8:	bf20      	wfe
    33ea:	4770      	bx	lr

000033ec <task_idle::run()>:
    33ec:	b508      	push	{r3, lr}
    33ee:	f7ff fffb 	bl	33e8 <task::cpu_sleep()>
    33f2:	e7fc      	b.n	33ee <task_idle::run()+0x2>

000033f4 <task::enterCritical()>:
    33f4:	f3bf 8f4f 	dsb	sy
    33f8:	f3bf 8f6f 	isb	sy
    33fc:	4770      	bx	lr

000033fe <task::leaveCritical()>:
    33fe:	f3bf 8f6f 	isb	sy
    3402:	4770      	bx	lr

00003404 <SysTick_Handler>:
    3404:	b508      	push	{r3, lr}
    3406:	f7ff fcc7 	bl	2d98 <task::_tick_handler()>
    340a:	bd08      	pop	{r3, pc}

0000340c <PendSV_Handler>:
    340c:	f3ef 8009 	mrs	r0, PSP
    3410:	f3ef 8314 	mrs	r3, CONTROL
    3414:	f01e 0f10 	tst.w	lr, #16
    3418:	bf04      	itt	eq
    341a:	f043 0310 	orreq.w	r3, r3, #16
    341e:	ed20 8a10 	vstmdbeq	r0!, {s16-s31}
    3422:	e920 0ff8 	stmdb	r0!, {r3, r4, r5, r6, r7, r8, r9, sl, fp}
    3426:	4603      	mov	r3, r0
    3428:	4618      	mov	r0, r3
    342a:	f7ff ff87 	bl	333c <task::_setStackPtr(unsigned char*)>
    342e:	4604      	mov	r4, r0
    3430:	f7ff ff78 	bl	3324 <task::_getStackBase()>
    3434:	4603      	mov	r3, r0
    3436:	1ae3      	subs	r3, r4, r3
    3438:	2b0a      	cmp	r3, #10
    343a:	bfd4      	ite	le
    343c:	2301      	movle	r3, #1
    343e:	2300      	movgt	r3, #0
    3440:	b2db      	uxtb	r3, r3
    3442:	2b00      	cmp	r3, #0
    3444:	d001      	beq.n	344a <PendSV_Handler+0x3e>
    3446:	f7ff ff49 	bl	32dc <yahal_assert_func()>
    344a:	f7ff ff61 	bl	3310 <task::_switchToNext()>
    344e:	f7ff ff6f 	bl	3330 <task::_getStackPtr()>
    3452:	4603      	mov	r3, r0
    3454:	4618      	mov	r0, r3
    3456:	e8b0 0ff8 	ldmia.w	r0!, {r3, r4, r5, r6, r7, r8, r9, sl, fp}
    345a:	f06f 0e02 	mvn.w	lr, #2
    345e:	f013 0f10 	tst.w	r3, #16
    3462:	bf1c      	itt	ne
    3464:	f02e 0e10 	bicne.w	lr, lr, #16
    3468:	ecb0 8a10 	vldmiane	r0!, {s16-s31}
    346c:	f383 8814 	msr	CONTROL, r3
    3470:	f380 8809 	msr	PSP, r0
    3474:	4770      	bx	lr
    3476:	bf00      	nop

00003478 <SVC_Handler>:
    3478:	f01e 0f04 	tst.w	lr, #4
    347c:	bf0c      	ite	eq
    347e:	f3ef 8008 	mrseq	r0, MSP
    3482:	f3ef 8009 	mrsne	r0, PSP
    3486:	4904      	ldr	r1, [pc, #16]	; (3498 <SVC_Handler+0x20>)
    3488:	f8c1 e000 	str.w	lr, [r1]
    348c:	f000 f806 	bl	349c <SVC_Handler_C>
    3490:	4901      	ldr	r1, [pc, #4]	; (3498 <SVC_Handler+0x20>)
    3492:	f8d1 e000 	ldr.w	lr, [r1]
    3496:	4770      	bx	lr
    3498:	200000e8 	.word	0x200000e8

0000349c <SVC_Handler_C>:
    349c:	b510      	push	{r4, lr}
    349e:	6983      	ldr	r3, [r0, #24]
    34a0:	f813 3c02 	ldrb.w	r3, [r3, #-2]
    34a4:	b123      	cbz	r3, 34b0 <SVC_Handler_C+0x14>
    34a6:	2b01      	cmp	r3, #1
    34a8:	d141      	bne.n	352e <SVC_Handler_C+0x92>
    34aa:	f7ff fc21 	bl	2cf0 <task::_scheduler()>
    34ae:	e03d      	b.n	352c <SVC_Handler_C+0x90>
    34b0:	2058      	movs	r0, #88	; 0x58
    34b2:	f001 fb68 	bl	4b86 <operator new(unsigned int)>
    34b6:	4604      	mov	r4, r0
    34b8:	22c8      	movs	r2, #200	; 0xc8
    34ba:	4921      	ldr	r1, [pc, #132]	; (3540 <SVC_Handler_C+0xa4>)
    34bc:	f7ff fbba 	bl	2c34 <task::task(char const*, unsigned short)>
    34c0:	4b20      	ldr	r3, [pc, #128]	; (3544 <SVC_Handler_C+0xa8>)
    34c2:	6023      	str	r3, [r4, #0]
    34c4:	2200      	movs	r2, #0
    34c6:	2101      	movs	r1, #1
    34c8:	4620      	mov	r0, r4
    34ca:	f7ff fc97 	bl	2dfc <task::start(unsigned short, bool)>
    34ce:	4b1e      	ldr	r3, [pc, #120]	; (3548 <SVC_Handler_C+0xac>)
    34d0:	681a      	ldr	r2, [r3, #0]
    34d2:	4b1e      	ldr	r3, [pc, #120]	; (354c <SVC_Handler_C+0xb0>)
    34d4:	601a      	str	r2, [r3, #0]
    34d6:	4b1e      	ldr	r3, [pc, #120]	; (3550 <SVC_Handler_C+0xb4>)
    34d8:	22e0      	movs	r2, #224	; 0xe0
    34da:	f883 2022 	strb.w	r2, [r3, #34]	; 0x22
    34de:	4b1d      	ldr	r3, [pc, #116]	; (3554 <SVC_Handler_C+0xb8>)
    34e0:	681b      	ldr	r3, [r3, #0]
    34e2:	4a1d      	ldr	r2, [pc, #116]	; (3558 <SVC_Handler_C+0xbc>)
    34e4:	fba2 2303 	umull	r2, r3, r2, r3
    34e8:	099b      	lsrs	r3, r3, #6
    34ea:	3b01      	subs	r3, #1
    34ec:	f1b3 7f80 	cmp.w	r3, #16777216	; 0x1000000
    34f0:	d20a      	bcs.n	3508 <SVC_Handler_C+0x6c>
    34f2:	f04f 22e0 	mov.w	r2, #3758153728	; 0xe000e000
    34f6:	6153      	str	r3, [r2, #20]
    34f8:	4b15      	ldr	r3, [pc, #84]	; (3550 <SVC_Handler_C+0xb4>)
    34fa:	21e0      	movs	r1, #224	; 0xe0
    34fc:	f883 1023 	strb.w	r1, [r3, #35]	; 0x23
    3500:	2300      	movs	r3, #0
    3502:	6193      	str	r3, [r2, #24]
    3504:	2307      	movs	r3, #7
    3506:	6113      	str	r3, [r2, #16]
    3508:	4b14      	ldr	r3, [pc, #80]	; (355c <SVC_Handler_C+0xc0>)
    350a:	f06f 0202 	mvn.w	r2, #2
    350e:	601a      	str	r2, [r3, #0]
    3510:	4b0e      	ldr	r3, [pc, #56]	; (354c <SVC_Handler_C+0xb0>)
    3512:	681b      	ldr	r3, [r3, #0]
    3514:	6b5b      	ldr	r3, [r3, #52]	; 0x34
    3516:	f103 0224 	add.w	r2, r3, #36	; 0x24
    351a:	f382 8809 	msr	PSP, r2
    351e:	781b      	ldrb	r3, [r3, #0]
    3520:	f383 8814 	msr	CONTROL, r3
    3524:	f3bf 8f6f 	isb	sy
    3528:	f3bf 8f6f 	isb	sy
    352c:	bd10      	pop	{r4, pc}
    352e:	4b0c      	ldr	r3, [pc, #48]	; (3560 <SVC_Handler_C+0xc4>)
    3530:	4a0c      	ldr	r2, [pc, #48]	; (3564 <SVC_Handler_C+0xc8>)
    3532:	601a      	str	r2, [r3, #0]
    3534:	4b0c      	ldr	r3, [pc, #48]	; (3568 <SVC_Handler_C+0xcc>)
    3536:	22fe      	movs	r2, #254	; 0xfe
    3538:	601a      	str	r2, [r3, #0]
    353a:	f7ff fecf 	bl	32dc <yahal_assert_func()>
    353e:	bf00      	nop
    3540:	00006a3c 	.word	0x00006a3c
    3544:	0000eeb8 	.word	0x0000eeb8
    3548:	20000678 	.word	0x20000678
    354c:	20000684 	.word	0x20000684
    3550:	e000ed00 	.word	0xe000ed00
    3554:	20000038 	.word	0x20000038
    3558:	10624dd3 	.word	0x10624dd3
    355c:	200000e8 	.word	0x200000e8
    3560:	200000c8 	.word	0x200000c8
    3564:	000069e8 	.word	0x000069e8
    3568:	200000e4 	.word	0x200000e4

0000356c <uGUI::DrawCircle(short, short, short, unsigned long) [clone .part.0]>:
    356c:	e92d 4ff0 	stmdb	sp!, {r4, r5, r6, r7, r8, r9, sl, fp, lr}
    3570:	b087      	sub	sp, #28
    3572:	4605      	mov	r5, r0
    3574:	9305      	str	r3, [sp, #20]
    3576:	4618      	mov	r0, r3
    3578:	005b      	lsls	r3, r3, #1
    357a:	f1c3 0301 	rsb	r3, r3, #1
    357e:	b21b      	sxth	r3, r3
    3580:	2800      	cmp	r0, #0
    3582:	9e10      	ldr	r6, [sp, #64]	; 0x40
    3584:	9304      	str	r3, [sp, #16]
    3586:	f2c0 8093 	blt.w	36b0 <uGUI::DrawCircle(short, short, short, unsigned long) [clone .part.0]+0x144>
    358a:	b289      	uxth	r1, r1
    358c:	b292      	uxth	r2, r2
    358e:	f04f 0a00 	mov.w	sl, #0
    3592:	9101      	str	r1, [sp, #4]
    3594:	9202      	str	r2, [sp, #8]
    3596:	f8cd a00c 	str.w	sl, [sp, #12]
    359a:	fa1f f880 	uxth.w	r8, r0
    359e:	6828      	ldr	r0, [r5, #0]
    35a0:	9a01      	ldr	r2, [sp, #4]
    35a2:	9902      	ldr	r1, [sp, #8]
    35a4:	6803      	ldr	r3, [r0, #0]
    35a6:	fa1f f48a 	uxth.w	r4, sl
    35aa:	eb01 0904 	add.w	r9, r1, r4
    35ae:	eba2 0b08 	sub.w	fp, r2, r8
    35b2:	fa1f fb8b 	uxth.w	fp, fp
    35b6:	fa1f f989 	uxth.w	r9, r9
    35ba:	689f      	ldr	r7, [r3, #8]
    35bc:	464a      	mov	r2, r9
    35be:	4659      	mov	r1, fp
    35c0:	4633      	mov	r3, r6
    35c2:	47b8      	blx	r7
    35c4:	6828      	ldr	r0, [r5, #0]
    35c6:	9902      	ldr	r1, [sp, #8]
    35c8:	6803      	ldr	r3, [r0, #0]
    35ca:	1b0f      	subs	r7, r1, r4
    35cc:	b2bf      	uxth	r7, r7
    35ce:	4659      	mov	r1, fp
    35d0:	463a      	mov	r2, r7
    35d2:	f8d3 b008 	ldr.w	fp, [r3, #8]
    35d6:	4633      	mov	r3, r6
    35d8:	47d8      	blx	fp
    35da:	6828      	ldr	r0, [r5, #0]
    35dc:	9a01      	ldr	r2, [sp, #4]
    35de:	6803      	ldr	r3, [r0, #0]
    35e0:	eb08 0b02 	add.w	fp, r8, r2
    35e4:	fa1f fb8b 	uxth.w	fp, fp
    35e8:	464a      	mov	r2, r9
    35ea:	4659      	mov	r1, fp
    35ec:	f8d3 9008 	ldr.w	r9, [r3, #8]
    35f0:	4633      	mov	r3, r6
    35f2:	47c8      	blx	r9
    35f4:	6828      	ldr	r0, [r5, #0]
    35f6:	6803      	ldr	r3, [r0, #0]
    35f8:	463a      	mov	r2, r7
    35fa:	4659      	mov	r1, fp
    35fc:	689f      	ldr	r7, [r3, #8]
    35fe:	4633      	mov	r3, r6
    3600:	47b8      	blx	r7
    3602:	6828      	ldr	r0, [r5, #0]
    3604:	9902      	ldr	r1, [sp, #8]
    3606:	9a01      	ldr	r2, [sp, #4]
    3608:	6803      	ldr	r3, [r0, #0]
    360a:	eba2 0b04 	sub.w	fp, r2, r4
    360e:	eb08 0701 	add.w	r7, r8, r1
    3612:	fa1f fb8b 	uxth.w	fp, fp
    3616:	b2bf      	uxth	r7, r7
    3618:	f8d3 9008 	ldr.w	r9, [r3, #8]
    361c:	463a      	mov	r2, r7
    361e:	4659      	mov	r1, fp
    3620:	4633      	mov	r3, r6
    3622:	47c8      	blx	r9
    3624:	6828      	ldr	r0, [r5, #0]
    3626:	9902      	ldr	r1, [sp, #8]
    3628:	6803      	ldr	r3, [r0, #0]
    362a:	eba1 0908 	sub.w	r9, r1, r8
    362e:	fa1f f989 	uxth.w	r9, r9
    3632:	4659      	mov	r1, fp
    3634:	464a      	mov	r2, r9
    3636:	f8d3 b008 	ldr.w	fp, [r3, #8]
    363a:	4633      	mov	r3, r6
    363c:	47d8      	blx	fp
    363e:	6828      	ldr	r0, [r5, #0]
    3640:	9a01      	ldr	r2, [sp, #4]
    3642:	6803      	ldr	r3, [r0, #0]
    3644:	eb02 0b04 	add.w	fp, r2, r4
    3648:	fa1f fb8b 	uxth.w	fp, fp
    364c:	463a      	mov	r2, r7
    364e:	4659      	mov	r1, fp
    3650:	689f      	ldr	r7, [r3, #8]
    3652:	4633      	mov	r3, r6
    3654:	47b8      	blx	r7
    3656:	6828      	ldr	r0, [r5, #0]
    3658:	6803      	ldr	r3, [r0, #0]
    365a:	464a      	mov	r2, r9
    365c:	689f      	ldr	r7, [r3, #8]
    365e:	4659      	mov	r1, fp
    3660:	4633      	mov	r3, r6
    3662:	47b8      	blx	r7
    3664:	9b03      	ldr	r3, [sp, #12]
    3666:	9a04      	ldr	r2, [sp, #16]
    3668:	eb03 0444 	add.w	r4, r3, r4, lsl #1
    366c:	b223      	sxth	r3, r4
    366e:	9303      	str	r3, [sp, #12]
    3670:	eb02 0343 	add.w	r3, r2, r3, lsl #1
    3674:	b290      	uxth	r0, r2
    3676:	b2a4      	uxth	r4, r4
    3678:	2b00      	cmp	r3, #0
    367a:	f108 31ff 	add.w	r1, r8, #4294967295
    367e:	f100 0202 	add.w	r2, r0, #2
    3682:	4404      	add	r4, r0
    3684:	f10a 0a01 	add.w	sl, sl, #1
    3688:	dd0c      	ble.n	36a4 <uGUI::DrawCircle(short, short, short, unsigned long) [clone .part.0]+0x138>
    368a:	b209      	sxth	r1, r1
    368c:	fa0f f38a 	sxth.w	r3, sl
    3690:	b220      	sxth	r0, r4
    3692:	b212      	sxth	r2, r2
    3694:	428b      	cmp	r3, r1
    3696:	9105      	str	r1, [sp, #20]
    3698:	9003      	str	r0, [sp, #12]
    369a:	9204      	str	r2, [sp, #16]
    369c:	dc08      	bgt.n	36b0 <uGUI::DrawCircle(short, short, short, unsigned long) [clone .part.0]+0x144>
    369e:	fa1f f881 	uxth.w	r8, r1
    36a2:	e77c      	b.n	359e <uGUI::DrawCircle(short, short, short, unsigned long) [clone .part.0]+0x32>
    36a4:	9a05      	ldr	r2, [sp, #20]
    36a6:	fa0f f38a 	sxth.w	r3, sl
    36aa:	429a      	cmp	r2, r3
    36ac:	f6bf af77 	bge.w	359e <uGUI::DrawCircle(short, short, short, unsigned long) [clone .part.0]+0x32>
    36b0:	b007      	add	sp, #28
    36b2:	e8bd 8ff0 	ldmia.w	sp!, {r4, r5, r6, r7, r8, r9, sl, fp, pc}
    36b6:	bf00      	nop

000036b8 <uGUI::uGUI(lcd_interface&)>:
    36b8:	b538      	push	{r3, r4, r5, lr}
    36ba:	680b      	ldr	r3, [r1, #0]
    36bc:	6001      	str	r1, [r0, #0]
    36be:	4604      	mov	r4, r0
    36c0:	681b      	ldr	r3, [r3, #0]
    36c2:	4608      	mov	r0, r1
    36c4:	4798      	blx	r3
    36c6:	6823      	ldr	r3, [r4, #0]
    36c8:	80a0      	strh	r0, [r4, #4]
    36ca:	681a      	ldr	r2, [r3, #0]
    36cc:	4618      	mov	r0, r3
    36ce:	6853      	ldr	r3, [r2, #4]
    36d0:	4798      	blx	r3
    36d2:	88a2      	ldrh	r2, [r4, #4]
    36d4:	80e0      	strh	r0, [r4, #6]
    36d6:	3a05      	subs	r2, #5
    36d8:	b212      	sxth	r2, r2
    36da:	2300      	movs	r3, #0
    36dc:	84a2      	strh	r2, [r4, #36]	; 0x24
    36de:	83a2      	strh	r2, [r4, #28]
    36e0:	f06f 427f 	mvn.w	r2, #4278190080	; 0xff000000
    36e4:	1f41      	subs	r1, r0, #5
    36e6:	e9c4 230f 	strd	r2, r3, [r4, #60]	; 0x3c
    36ea:	f240 1001 	movw	r0, #257	; 0x101
    36ee:	e9c4 3304 	strd	r3, r3, [r4, #16]
    36f2:	b209      	sxth	r1, r1
    36f4:	f04f 1504 	mov.w	r5, #262148	; 0x40004
    36f8:	8720      	strh	r0, [r4, #56]	; 0x38
    36fa:	4805      	ldr	r0, [pc, #20]	; (3710 <uGUI::uGUI(lcd_interface&)+0x58>)
    36fc:	6460      	str	r0, [r4, #68]	; 0x44
    36fe:	6225      	str	r5, [r4, #32]
    3700:	84e1      	strh	r1, [r4, #38]	; 0x26
    3702:	83e1      	strh	r1, [r4, #30]
    3704:	6323      	str	r3, [r4, #48]	; 0x30
    3706:	61a3      	str	r3, [r4, #24]
    3708:	f884 3048 	strb.w	r3, [r4, #72]	; 0x48
    370c:	4620      	mov	r0, r4
    370e:	bd38      	pop	{r3, r4, r5, pc}
    3710:	005e8bef 	.word	0x005e8bef

00003714 <uGUI::DrawCircle(short, short, short, unsigned long)>:
    3714:	b500      	push	{lr}
    3716:	ea51 0e02 	orrs.w	lr, r1, r2
    371a:	d405      	bmi.n	3728 <uGUI::DrawCircle(short, short, short, unsigned long)+0x14>
    371c:	2b00      	cmp	r3, #0
    371e:	dd03      	ble.n	3728 <uGUI::DrawCircle(short, short, short, unsigned long)+0x14>
    3720:	f85d eb04 	ldr.w	lr, [sp], #4
    3724:	f7ff bf22 	b.w	356c <uGUI::DrawCircle(short, short, short, unsigned long) [clone .part.0]>
    3728:	f85d fb04 	ldr.w	pc, [sp], #4

0000372c <uGUI::DrawLine(short, short, short, short, unsigned long)>:
    372c:	e92d 4ff0 	stmdb	sp!, {r4, r5, r6, r7, r8, r9, sl, fp, lr}
    3730:	b087      	sub	sp, #28
    3732:	4617      	mov	r7, r2
    3734:	f9bd 6040 	ldrsh.w	r6, [sp, #64]	; 0x40
    3738:	f8dd 8044 	ldr.w	r8, [sp, #68]	; 0x44
    373c:	42b2      	cmp	r2, r6
    373e:	4681      	mov	r9, r0
    3740:	460d      	mov	r5, r1
    3742:	f000 80a8 	beq.w	3896 <uGUI::DrawLine(short, short, short, short, unsigned long)+0x16a>
    3746:	4299      	cmp	r1, r3
    3748:	f000 80b8 	beq.w	38bc <uGUI::DrawLine(short, short, short, short, unsigned long)+0x190>
    374c:	b294      	uxth	r4, r2
    374e:	6800      	ldr	r0, [r0, #0]
    3750:	b289      	uxth	r1, r1
    3752:	1b36      	subs	r6, r6, r4
    3754:	b232      	sxth	r2, r6
    3756:	1a5b      	subs	r3, r3, r1
    3758:	6806      	ldr	r6, [r0, #0]
    375a:	9105      	str	r1, [sp, #20]
    375c:	b21b      	sxth	r3, r3
    375e:	ea82 7ce2 	eor.w	ip, r2, r2, asr #31
    3762:	ebac 7ce2 	sub.w	ip, ip, r2, asr #31
    3766:	f8d6 b008 	ldr.w	fp, [r6, #8]
    376a:	ea83 76e3 	eor.w	r6, r3, r3, asr #31
    376e:	2b00      	cmp	r3, #0
    3770:	eba6 76e3 	sub.w	r6, r6, r3, asr #31
    3774:	f64f 7eff 	movw	lr, #65535	; 0xffff
    3778:	fa1f f38c 	uxth.w	r3, ip
    377c:	9304      	str	r3, [sp, #16]
    377e:	bfd4      	ite	le
    3780:	4673      	movle	r3, lr
    3782:	2301      	movgt	r3, #1
    3784:	2a00      	cmp	r2, #0
    3786:	9301      	str	r3, [sp, #4]
    3788:	fa0f fa86 	sxth.w	sl, r6
    378c:	bfd4      	ite	le
    378e:	4673      	movle	r3, lr
    3790:	2301      	movgt	r3, #1
    3792:	b2b6      	uxth	r6, r6
    3794:	9603      	str	r6, [sp, #12]
    3796:	9302      	str	r3, [sp, #8]
    3798:	fa0f f68c 	sxth.w	r6, ip
    379c:	4643      	mov	r3, r8
    379e:	4622      	mov	r2, r4
    37a0:	47d8      	blx	fp
    37a2:	45b2      	cmp	sl, r6
    37a4:	9905      	ldr	r1, [sp, #20]
    37a6:	db35      	blt.n	3814 <uGUI::DrawLine(short, short, short, short, unsigned long)+0xe8>
    37a8:	f1ba 0f00 	cmp.w	sl, #0
    37ac:	dd59      	ble.n	3862 <uGUI::DrawLine(short, short, short, short, unsigned long)+0x136>
    37ae:	9b01      	ldr	r3, [sp, #4]
    37b0:	2600      	movs	r6, #0
    37b2:	4419      	add	r1, r3
    37b4:	b28c      	uxth	r4, r1
    37b6:	ea4f 056a 	mov.w	r5, sl, asr #1
    37ba:	9605      	str	r6, [sp, #20]
    37bc:	e00c      	b.n	37d8 <uGUI::DrawLine(short, short, short, short, unsigned long)+0xac>
    37be:	f8d9 0000 	ldr.w	r0, [r9]
    37c2:	f8d0 c000 	ldr.w	ip, [r0]
    37c6:	f8dc b008 	ldr.w	fp, [ip, #8]
    37ca:	47d8      	blx	fp
    37cc:	9b01      	ldr	r3, [sp, #4]
    37ce:	441c      	add	r4, r3
    37d0:	b233      	sxth	r3, r6
    37d2:	459a      	cmp	sl, r3
    37d4:	b2a4      	uxth	r4, r4
    37d6:	dd44      	ble.n	3862 <uGUI::DrawLine(short, short, short, short, unsigned long)+0x136>
    37d8:	9b02      	ldr	r3, [sp, #8]
    37da:	9e03      	ldr	r6, [sp, #12]
    37dc:	eb03 0c07 	add.w	ip, r3, r7
    37e0:	9b04      	ldr	r3, [sp, #16]
    37e2:	1958      	adds	r0, r3, r5
    37e4:	b205      	sxth	r5, r0
    37e6:	b280      	uxth	r0, r0
    37e8:	1b80      	subs	r0, r0, r6
    37ea:	9e05      	ldr	r6, [sp, #20]
    37ec:	45aa      	cmp	sl, r5
    37ee:	f106 0601 	add.w	r6, r6, #1
    37f2:	4621      	mov	r1, r4
    37f4:	4643      	mov	r3, r8
    37f6:	b2ba      	uxth	r2, r7
    37f8:	9605      	str	r6, [sp, #20]
    37fa:	dce0      	bgt.n	37be <uGUI::DrawLine(short, short, short, short, unsigned long)+0x92>
    37fc:	b205      	sxth	r5, r0
    37fe:	f8d9 0000 	ldr.w	r0, [r9]
    3802:	6803      	ldr	r3, [r0, #0]
    3804:	fa1f f28c 	uxth.w	r2, ip
    3808:	f8d3 b008 	ldr.w	fp, [r3, #8]
    380c:	fa0f f78c 	sxth.w	r7, ip
    3810:	4643      	mov	r3, r8
    3812:	e7da      	b.n	37ca <uGUI::DrawLine(short, short, short, short, unsigned long)+0x9e>
    3814:	b32e      	cbz	r6, 3862 <uGUI::DrawLine(short, short, short, short, unsigned long)+0x136>
    3816:	9b02      	ldr	r3, [sp, #8]
    3818:	9605      	str	r6, [sp, #20]
    381a:	441c      	add	r4, r3
    381c:	b2a4      	uxth	r4, r4
    381e:	1077      	asrs	r7, r6, #1
    3820:	f04f 0a00 	mov.w	sl, #0
    3824:	9b01      	ldr	r3, [sp, #4]
    3826:	9e04      	ldr	r6, [sp, #16]
    3828:	eb03 0c05 	add.w	ip, r3, r5
    382c:	9b03      	ldr	r3, [sp, #12]
    382e:	19d8      	adds	r0, r3, r7
    3830:	b207      	sxth	r7, r0
    3832:	b280      	uxth	r0, r0
    3834:	1b80      	subs	r0, r0, r6
    3836:	9e05      	ldr	r6, [sp, #20]
    3838:	42be      	cmp	r6, r7
    383a:	4622      	mov	r2, r4
    383c:	4643      	mov	r3, r8
    383e:	b2a9      	uxth	r1, r5
    3840:	f10a 0a01 	add.w	sl, sl, #1
    3844:	dd10      	ble.n	3868 <uGUI::DrawLine(short, short, short, short, unsigned long)+0x13c>
    3846:	f8d9 0000 	ldr.w	r0, [r9]
    384a:	f8d0 c000 	ldr.w	ip, [r0]
    384e:	f8dc b008 	ldr.w	fp, [ip, #8]
    3852:	47d8      	blx	fp
    3854:	9b02      	ldr	r3, [sp, #8]
    3856:	441c      	add	r4, r3
    3858:	fa0f f38a 	sxth.w	r3, sl
    385c:	429e      	cmp	r6, r3
    385e:	b2a4      	uxth	r4, r4
    3860:	dce0      	bgt.n	3824 <uGUI::DrawLine(short, short, short, short, unsigned long)+0xf8>
    3862:	b007      	add	sp, #28
    3864:	e8bd 8ff0 	ldmia.w	sp!, {r4, r5, r6, r7, r8, r9, sl, fp, pc}
    3868:	b207      	sxth	r7, r0
    386a:	f8d9 0000 	ldr.w	r0, [r9]
    386e:	6803      	ldr	r3, [r0, #0]
    3870:	fa1f f18c 	uxth.w	r1, ip
    3874:	f8d3 b008 	ldr.w	fp, [r3, #8]
    3878:	4643      	mov	r3, r8
    387a:	fa0f f58c 	sxth.w	r5, ip
    387e:	47d8      	blx	fp
    3880:	9b02      	ldr	r3, [sp, #8]
    3882:	9a05      	ldr	r2, [sp, #20]
    3884:	441c      	add	r4, r3
    3886:	fa0f f38a 	sxth.w	r3, sl
    388a:	429a      	cmp	r2, r3
    388c:	b2a4      	uxth	r4, r4
    388e:	dcc9      	bgt.n	3824 <uGUI::DrawLine(short, short, short, short, unsigned long)+0xf8>
    3890:	b007      	add	sp, #28
    3892:	e8bd 8ff0 	ldmia.w	sp!, {r4, r5, r6, r7, r8, r9, sl, fp, pc}
    3896:	4299      	cmp	r1, r3
    3898:	dc0d      	bgt.n	38b6 <uGUI::DrawLine(short, short, short, short, unsigned long)+0x18a>
    389a:	f8d9 0000 	ldr.w	r0, [r9]
    389e:	6804      	ldr	r4, [r0, #0]
    38a0:	f8cd 8040 	str.w	r8, [sp, #64]	; 0x40
    38a4:	68e4      	ldr	r4, [r4, #12]
    38a6:	b29b      	uxth	r3, r3
    38a8:	b2ba      	uxth	r2, r7
    38aa:	b2a9      	uxth	r1, r5
    38ac:	46a4      	mov	ip, r4
    38ae:	b007      	add	sp, #28
    38b0:	e8bd 4ff0 	ldmia.w	sp!, {r4, r5, r6, r7, r8, r9, sl, fp, lr}
    38b4:	4760      	bx	ip
    38b6:	461d      	mov	r5, r3
    38b8:	460b      	mov	r3, r1
    38ba:	e7ee      	b.n	389a <uGUI::DrawLine(short, short, short, short, unsigned long)+0x16e>
    38bc:	42b2      	cmp	r2, r6
    38be:	dd01      	ble.n	38c4 <uGUI::DrawLine(short, short, short, short, unsigned long)+0x198>
    38c0:	4637      	mov	r7, r6
    38c2:	4616      	mov	r6, r2
    38c4:	f8d9 0000 	ldr.w	r0, [r9]
    38c8:	6804      	ldr	r4, [r0, #0]
    38ca:	f8cd 8040 	str.w	r8, [sp, #64]	; 0x40
    38ce:	6924      	ldr	r4, [r4, #16]
    38d0:	b2b3      	uxth	r3, r6
    38d2:	b2ba      	uxth	r2, r7
    38d4:	b2a9      	uxth	r1, r5
    38d6:	46a4      	mov	ip, r4
    38d8:	b007      	add	sp, #28
    38da:	e8bd 4ff0 	ldmia.w	sp!, {r4, r5, r6, r7, r8, r9, sl, fp, lr}
    38de:	4760      	bx	ip

000038e0 <uGUI::FillCircle(short, short, short, unsigned long)>:
    38e0:	e92d 4ff0 	stmdb	sp!, {r4, r5, r6, r7, r8, r9, sl, fp, lr}
    38e4:	b08b      	sub	sp, #44	; 0x2c
    38e6:	469a      	mov	sl, r3
    38e8:	9d14      	ldr	r5, [sp, #80]	; 0x50
    38ea:	9107      	str	r1, [sp, #28]
    38ec:	ea51 0302 	orrs.w	r3, r1, r2
    38f0:	e9cd 5004 	strd	r5, r0, [sp, #16]
    38f4:	d479      	bmi.n	39ea <uGUI::FillCircle(short, short, short, unsigned long)+0x10a>
    38f6:	f1ba 0f00 	cmp.w	sl, #0
    38fa:	dd76      	ble.n	39ea <uGUI::FillCircle(short, short, short, unsigned long)+0x10a>
    38fc:	ea4f 084a 	mov.w	r8, sl, lsl #1
    3900:	e9cd 2a08 	strd	r2, sl, [sp, #32]
    3904:	f1c8 0803 	rsb	r8, r8, #3
    3908:	2700      	movs	r7, #0
    390a:	b28d      	uxth	r5, r1
    390c:	fa0f f888 	sxth.w	r8, r8
    3910:	4656      	mov	r6, sl
    3912:	46bb      	mov	fp, r7
    3914:	fa1f f982 	uxth.w	r9, r2
    3918:	9503      	str	r5, [sp, #12]
    391a:	9b03      	ldr	r3, [sp, #12]
    391c:	b2b5      	uxth	r5, r6
    391e:	b2bc      	uxth	r4, r7
    3920:	eba9 0a05 	sub.w	sl, r9, r5
    3924:	1b1b      	subs	r3, r3, r4
    3926:	444d      	add	r5, r9
    3928:	2e00      	cmp	r6, #0
    392a:	b21b      	sxth	r3, r3
    392c:	fa0f fa8a 	sxth.w	sl, sl
    3930:	b22d      	sxth	r5, r5
    3932:	dd12      	ble.n	395a <uGUI::FillCircle(short, short, short, unsigned long)+0x7a>
    3934:	9a04      	ldr	r2, [sp, #16]
    3936:	9805      	ldr	r0, [sp, #20]
    3938:	4619      	mov	r1, r3
    393a:	e9cd 5200 	strd	r5, r2, [sp]
    393e:	4652      	mov	r2, sl
    3940:	f7ff fef4 	bl	372c <uGUI::DrawLine(short, short, short, short, unsigned long)>
    3944:	9b04      	ldr	r3, [sp, #16]
    3946:	9301      	str	r3, [sp, #4]
    3948:	9b03      	ldr	r3, [sp, #12]
    394a:	9805      	ldr	r0, [sp, #20]
    394c:	9500      	str	r5, [sp, #0]
    394e:	4423      	add	r3, r4
    3950:	b21b      	sxth	r3, r3
    3952:	4652      	mov	r2, sl
    3954:	4619      	mov	r1, r3
    3956:	f7ff fee9 	bl	372c <uGUI::DrawLine(short, short, short, short, unsigned long)>
    395a:	9b03      	ldr	r3, [sp, #12]
    395c:	fa1f fa86 	uxth.w	sl, r6
    3960:	eba3 030a 	sub.w	r3, r3, sl
    3964:	eba9 0204 	sub.w	r2, r9, r4
    3968:	eb09 0504 	add.w	r5, r9, r4
    396c:	f1bb 0f00 	cmp.w	fp, #0
    3970:	b21b      	sxth	r3, r3
    3972:	b212      	sxth	r2, r2
    3974:	b22d      	sxth	r5, r5
    3976:	dd14      	ble.n	39a2 <uGUI::FillCircle(short, short, short, unsigned long)+0xc2>
    3978:	9904      	ldr	r1, [sp, #16]
    397a:	f8dd b014 	ldr.w	fp, [sp, #20]
    397e:	9206      	str	r2, [sp, #24]
    3980:	e9cd 5100 	strd	r5, r1, [sp]
    3984:	4658      	mov	r0, fp
    3986:	4619      	mov	r1, r3
    3988:	f7ff fed0 	bl	372c <uGUI::DrawLine(short, short, short, short, unsigned long)>
    398c:	9b03      	ldr	r3, [sp, #12]
    398e:	9904      	ldr	r1, [sp, #16]
    3990:	9101      	str	r1, [sp, #4]
    3992:	4453      	add	r3, sl
    3994:	b21b      	sxth	r3, r3
    3996:	9a06      	ldr	r2, [sp, #24]
    3998:	9500      	str	r5, [sp, #0]
    399a:	4619      	mov	r1, r3
    399c:	4658      	mov	r0, fp
    399e:	f7ff fec5 	bl	372c <uGUI::DrawLine(short, short, short, short, unsigned long)>
    39a2:	b2b3      	uxth	r3, r6
    39a4:	1ae0      	subs	r0, r4, r3
    39a6:	f108 020a 	add.w	r2, r8, #10
    39aa:	f108 0106 	add.w	r1, r8, #6
    39ae:	f1b8 0f00 	cmp.w	r8, #0
    39b2:	f103 33ff 	add.w	r3, r3, #4294967295
    39b6:	eb02 0280 	add.w	r2, r2, r0, lsl #2
    39ba:	eb01 0184 	add.w	r1, r1, r4, lsl #2
    39be:	db17      	blt.n	39f0 <uGUI::FillCircle(short, short, short, unsigned long)+0x110>
    39c0:	3701      	adds	r7, #1
    39c2:	b21e      	sxth	r6, r3
    39c4:	fa0f fb87 	sxth.w	fp, r7
    39c8:	45b3      	cmp	fp, r6
    39ca:	fa0f f882 	sxth.w	r8, r2
    39ce:	dda4      	ble.n	391a <uGUI::FillCircle(short, short, short, unsigned long)+0x3a>
    39d0:	e9dd 4a08 	ldrd	r4, sl, [sp, #32]
    39d4:	9b04      	ldr	r3, [sp, #16]
    39d6:	9907      	ldr	r1, [sp, #28]
    39d8:	9805      	ldr	r0, [sp, #20]
    39da:	9314      	str	r3, [sp, #80]	; 0x50
    39dc:	4622      	mov	r2, r4
    39de:	4653      	mov	r3, sl
    39e0:	b00b      	add	sp, #44	; 0x2c
    39e2:	e8bd 4ff0 	ldmia.w	sp!, {r4, r5, r6, r7, r8, r9, sl, fp, lr}
    39e6:	f7ff bdc1 	b.w	356c <uGUI::DrawCircle(short, short, short, unsigned long) [clone .part.0]>
    39ea:	b00b      	add	sp, #44	; 0x2c
    39ec:	e8bd 8ff0 	ldmia.w	sp!, {r4, r5, r6, r7, r8, r9, sl, fp, pc}
    39f0:	3701      	adds	r7, #1
    39f2:	fa0f fb87 	sxth.w	fp, r7
    39f6:	45b3      	cmp	fp, r6
    39f8:	fa0f f881 	sxth.w	r8, r1
    39fc:	dd8d      	ble.n	391a <uGUI::FillCircle(short, short, short, unsigned long)+0x3a>
    39fe:	e7e7      	b.n	39d0 <uGUI::FillCircle(short, short, short, unsigned long)+0xf0>

00003a00 <uGUI::_PutText(uGUI::TEXT*)>:
    3a00:	684b      	ldr	r3, [r1, #4]
    3a02:	681a      	ldr	r2, [r3, #0]
    3a04:	2a00      	cmp	r2, #0
    3a06:	f000 8161 	beq.w	3ccc <uGUI::_PutText(uGUI::TEXT*)+0x2cc>
    3a0a:	e92d 4ff0 	stmdb	sp!, {r4, r5, r6, r7, r8, r9, sl, fp, lr}
    3a0e:	680d      	ldr	r5, [r1, #0]
    3a10:	b093      	sub	sp, #76	; 0x4c
    3a12:	468b      	mov	fp, r1
    3a14:	2d00      	cmp	r5, #0
    3a16:	f000 80cd 	beq.w	3bb4 <uGUI::_PutText(uGUI::TEXT*)+0x1b4>
    3a1a:	f9b1 200e 	ldrsh.w	r2, [r1, #14]
    3a1e:	4682      	mov	sl, r0
    3a20:	f9b1 000a 	ldrsh.w	r0, [r1, #10]
    3a24:	f9b3 1006 	ldrsh.w	r1, [r3, #6]
    3a28:	1a14      	subs	r4, r2, r0
    3a2a:	428c      	cmp	r4, r1
    3a2c:	f2c0 80c2 	blt.w	3bb4 <uGUI::_PutText(uGUI::TEXT*)+0x1b4>
    3a30:	782f      	ldrb	r7, [r5, #0]
    3a32:	2f00      	cmp	r7, #0
    3a34:	f000 814d 	beq.w	3cd2 <uGUI::_PutText(uGUI::TEXT*)+0x2d2>
    3a38:	462e      	mov	r6, r5
    3a3a:	463c      	mov	r4, r7
    3a3c:	f04f 0e01 	mov.w	lr, #1
    3a40:	2c0a      	cmp	r4, #10
    3a42:	f816 4f01 	ldrb.w	r4, [r6, #1]!
    3a46:	bf04      	itt	eq
    3a48:	f10e 0e01 	addeq.w	lr, lr, #1
    3a4c:	fa1f fe8e 	uxtheq.w	lr, lr
    3a50:	2c00      	cmp	r4, #0
    3a52:	d1f5      	bne.n	3a40 <uGUI::_PutText(uGUI::TEXT*)+0x40>
    3a54:	f89b 4018 	ldrb.w	r4, [fp, #24]
    3a58:	f9bb 601c 	ldrsh.w	r6, [fp, #28]
    3a5c:	f014 0830 	ands.w	r8, r4, #48	; 0x30
    3a60:	f040 8094 	bne.w	3b8c <uGUI::_PutText(uGUI::TEXT*)+0x18c>
    3a64:	4642      	mov	r2, r8
    3a66:	b280      	uxth	r0, r0
    3a68:	46c6      	mov	lr, r8
    3a6a:	f014 0f10 	tst.w	r4, #16
    3a6e:	440e      	add	r6, r1
    3a70:	bf18      	it	ne
    3a72:	f3ce 024f 	ubfxne	r2, lr, #1, #16
    3a76:	f9b3 e004 	ldrsh.w	lr, [r3, #4]
    3a7a:	b2b3      	uxth	r3, r6
    3a7c:	4410      	add	r0, r2
    3a7e:	930c      	str	r3, [sp, #48]	; 0x30
    3a80:	f8bb 200c 	ldrh.w	r2, [fp, #12]
    3a84:	f9bb 3008 	ldrsh.w	r3, [fp, #8]
    3a88:	930a      	str	r3, [sp, #40]	; 0x28
    3a8a:	b29e      	uxth	r6, r3
    3a8c:	3201      	adds	r2, #1
    3a8e:	1b92      	subs	r2, r2, r6
    3a90:	b293      	uxth	r3, r2
    3a92:	930d      	str	r3, [sp, #52]	; 0x34
    3a94:	f8bb 301a 	ldrh.w	r3, [fp, #26]
    3a98:	9309      	str	r3, [sp, #36]	; 0x24
    3a9a:	f004 0301 	and.w	r3, r4, #1
    3a9e:	fa1f fc80 	uxth.w	ip, r0
    3aa2:	f3ce 02cc 	ubfx	r2, lr, #3, #13
    3aa6:	f3ce 0002 	ubfx	r0, lr, #0, #3
    3aaa:	930b      	str	r3, [sp, #44]	; 0x2c
    3aac:	465b      	mov	r3, fp
    3aae:	2800      	cmp	r0, #0
    3ab0:	bf18      	it	ne
    3ab2:	3201      	addne	r2, #1
    3ab4:	46d3      	mov	fp, sl
    3ab6:	fa1f f08e 	uxth.w	r0, lr
    3aba:	469a      	mov	sl, r3
    3abc:	2f00      	cmp	r7, #0
    3abe:	f000 810b 	beq.w	3cd8 <uGUI::_PutText(uGUI::TEXT*)+0x2d8>
    3ac2:	46a9      	mov	r9, r5
    3ac4:	463b      	mov	r3, r7
    3ac6:	f04f 0800 	mov.w	r8, #0
    3aca:	e007      	b.n	3adc <uGUI::_PutText(uGUI::TEXT*)+0xdc>
    3acc:	f819 3f01 	ldrb.w	r3, [r9, #1]!
    3ad0:	fa1f fe8e 	uxth.w	lr, lr
    3ad4:	2b00      	cmp	r3, #0
    3ad6:	f000 80f0 	beq.w	3cba <uGUI::_PutText(uGUI::TEXT*)+0x2ba>
    3ada:	46f0      	mov	r8, lr
    3adc:	2b0a      	cmp	r3, #10
    3ade:	f108 0e01 	add.w	lr, r8, #1
    3ae2:	d1f3      	bne.n	3acc <uGUI::_PutText(uGUI::TEXT*)+0xcc>
    3ae4:	fb10 fe08 	smulbb	lr, r0, r8
    3ae8:	f108 38ff 	add.w	r8, r8, #4294967295
    3aec:	fa1f fe8e 	uxth.w	lr, lr
    3af0:	fa1f f888 	uxth.w	r8, r8
    3af4:	9b0d      	ldr	r3, [sp, #52]	; 0x34
    3af6:	eba3 0e0e 	sub.w	lr, r3, lr
    3afa:	9b09      	ldr	r3, [sp, #36]	; 0x24
    3afc:	fb13 f808 	smulbb	r8, r3, r8
    3b00:	ebae 0e08 	sub.w	lr, lr, r8
    3b04:	fa0f f88e 	sxth.w	r8, lr
    3b08:	f1b8 0f00 	cmp.w	r8, #0
    3b0c:	fa1f fe8e 	uxth.w	lr, lr
    3b10:	db50      	blt.n	3bb4 <uGUI::_PutText(uGUI::TEXT*)+0x1b4>
    3b12:	9b0b      	ldr	r3, [sp, #44]	; 0x2c
    3b14:	2b00      	cmp	r3, #0
    3b16:	f040 80cd 	bne.w	3cb4 <uGUI::_PutText(uGUI::TEXT*)+0x2b4>
    3b1a:	07a3      	lsls	r3, r4, #30
    3b1c:	bf55      	itete	pl
    3b1e:	44b6      	addpl	lr, r6
    3b20:	eb06 0968 	addmi.w	r9, r6, r8, asr #1
    3b24:	fa0f f98e 	sxthpl.w	r9, lr
    3b28:	fa0f f989 	sxthmi.w	r9, r9
    3b2c:	2f0a      	cmp	r7, #10
    3b2e:	f000 80ce 	beq.w	3cce <uGUI::_PutText(uGUI::TEXT*)+0x2ce>
    3b32:	9b09      	ldr	r3, [sp, #36]	; 0x24
    3b34:	960e      	str	r6, [sp, #56]	; 0x38
    3b36:	eb00 0803 	add.w	r8, r0, r3
    3b3a:	e9cd c005 	strd	ip, r0, [sp, #20]
    3b3e:	463b      	mov	r3, r7
    3b40:	4648      	mov	r0, r9
    3b42:	4691      	mov	r9, r2
    3b44:	b3b3      	cbz	r3, 3bb4 <uGUI::_PutText(uGUI::TEXT*)+0x1b4>
    3b46:	f1a3 0284 	sub.w	r2, r3, #132	; 0x84
    3b4a:	2a38      	cmp	r2, #56	; 0x38
    3b4c:	d836      	bhi.n	3bbc <uGUI::_PutText(uGUI::TEXT*)+0x1bc>
    3b4e:	e8df f002 	tbb	[pc, r2]
    3b52:	358a      	.short	0x358a
    3b54:	35353535 	.word	0x35353535
    3b58:	35353535 	.word	0x35353535
    3b5c:	35353535 	.word	0x35353535
    3b60:	35353535 	.word	0x35353535
    3b64:	353535b9 	.word	0x353535b9
    3b68:	35883535 	.word	0x35883535
    3b6c:	35353535 	.word	0x35353535
    3b70:	35863535 	.word	0x35863535
    3b74:	35353535 	.word	0x35353535
    3b78:	35353535 	.word	0x35353535
    3b7c:	35843535 	.word	0x35843535
    3b80:	34353535 	.word	0x34353535
    3b84:	353535bb 	.word	0x353535bb
    3b88:	3535      	.short	0x3535
    3b8a:	82          	.byte	0x82
    3b8b:	00          	.byte	0x00
    3b8c:	b280      	uxth	r0, r0
    3b8e:	3201      	adds	r2, #1
    3b90:	fb11 f80e 	smulbb	r8, r1, lr
    3b94:	1a12      	subs	r2, r2, r0
    3b96:	f10e 3eff 	add.w	lr, lr, #4294967295
    3b9a:	fb1e fe06 	smulbb	lr, lr, r6
    3b9e:	eba2 0208 	sub.w	r2, r2, r8
    3ba2:	eba2 020e 	sub.w	r2, r2, lr
    3ba6:	fa0f fe82 	sxth.w	lr, r2
    3baa:	f1be 0f00 	cmp.w	lr, #0
    3bae:	b292      	uxth	r2, r2
    3bb0:	f6bf af5b 	bge.w	3a6a <uGUI::_PutText(uGUI::TEXT*)+0x6a>
    3bb4:	b013      	add	sp, #76	; 0x4c
    3bb6:	e8bd 8ff0 	ldmia.w	sp!, {r4, r5, r6, r7, r8, r9, sl, fp, pc}
    3bba:	23e6      	movs	r3, #230	; 0xe6
    3bbc:	fb01 f303 	mul.w	r3, r1, r3
    3bc0:	2900      	cmp	r1, #0
    3bc2:	fb09 f303 	mul.w	r3, r9, r3
    3bc6:	b280      	uxth	r0, r0
    3bc8:	dd61      	ble.n	3c8e <uGUI::_PutText(uGUI::TEXT*)+0x28e>
    3bca:	f1b9 0f00 	cmp.w	r9, #0
    3bce:	d05e      	beq.n	3c8e <uGUI::_PutText(uGUI::TEXT*)+0x28e>
    3bd0:	eb03 0609 	add.w	r6, r3, r9
    3bd4:	f8da 3004 	ldr.w	r3, [sl, #4]
    3bd8:	940f      	str	r4, [sp, #60]	; 0x3c
    3bda:	681a      	ldr	r2, [r3, #0]
    3bdc:	9107      	str	r1, [sp, #28]
    3bde:	4432      	add	r2, r6
    3be0:	9510      	str	r5, [sp, #64]	; 0x40
    3be2:	2600      	movs	r6, #0
    3be4:	4613      	mov	r3, r2
    3be6:	9008      	str	r0, [sp, #32]
    3be8:	f8cd 8044 	str.w	r8, [sp, #68]	; 0x44
    3bec:	9a05      	ldr	r2, [sp, #20]
    3bee:	9d06      	ldr	r5, [sp, #24]
    3bf0:	9c08      	ldr	r4, [sp, #32]
    3bf2:	f8cd 900c 	str.w	r9, [sp, #12]
    3bf6:	1997      	adds	r7, r2, r6
    3bf8:	eba3 0209 	sub.w	r2, r3, r9
    3bfc:	b2bf      	uxth	r7, r7
    3bfe:	4691      	mov	r9, r2
    3c00:	9604      	str	r6, [sp, #16]
    3c02:	9302      	str	r3, [sp, #8]
    3c04:	f819 6b01 	ldrb.w	r6, [r9], #1
    3c08:	b38d      	cbz	r5, 3c6e <uGUI::_PutText(uGUI::TEXT*)+0x26e>
    3c0a:	f104 0808 	add.w	r8, r4, #8
    3c0e:	fa1f f888 	uxth.w	r8, r8
    3c12:	f8cd 9004 	str.w	r9, [sp, #4]
    3c16:	e00f      	b.n	3c38 <uGUI::_PutText(uGUI::TEXT*)+0x238>
    3c18:	f8d0 c000 	ldr.w	ip, [r0]
    3c1c:	f8da 3010 	ldr.w	r3, [sl, #16]
    3c20:	f8dc 9008 	ldr.w	r9, [ip, #8]
    3c24:	47c8      	blx	r9
    3c26:	3401      	adds	r4, #1
    3c28:	b2a4      	uxth	r4, r4
    3c2a:	3d01      	subs	r5, #1
    3c2c:	4544      	cmp	r4, r8
    3c2e:	b2ad      	uxth	r5, r5
    3c30:	ea4f 0656 	mov.w	r6, r6, lsr #1
    3c34:	d019      	beq.n	3c6a <uGUI::_PutText(uGUI::TEXT*)+0x26a>
    3c36:	b1c5      	cbz	r5, 3c6a <uGUI::_PutText(uGUI::TEXT*)+0x26a>
    3c38:	f016 0f01 	tst.w	r6, #1
    3c3c:	f8db 0000 	ldr.w	r0, [fp]
    3c40:	463a      	mov	r2, r7
    3c42:	4621      	mov	r1, r4
    3c44:	d1e8      	bne.n	3c18 <uGUI::_PutText(uGUI::TEXT*)+0x218>
    3c46:	6802      	ldr	r2, [r0, #0]
    3c48:	f8da 3014 	ldr.w	r3, [sl, #20]
    3c4c:	f8d2 9008 	ldr.w	r9, [r2, #8]
    3c50:	463a      	mov	r2, r7
    3c52:	47c8      	blx	r9
    3c54:	e7e7      	b.n	3c26 <uGUI::_PutText(uGUI::TEXT*)+0x226>
    3c56:	2381      	movs	r3, #129	; 0x81
    3c58:	e7b0      	b.n	3bbc <uGUI::_PutText(uGUI::TEXT*)+0x1bc>
    3c5a:	23f8      	movs	r3, #248	; 0xf8
    3c5c:	e7ae      	b.n	3bbc <uGUI::_PutText(uGUI::TEXT*)+0x1bc>
    3c5e:	2384      	movs	r3, #132	; 0x84
    3c60:	e7ac      	b.n	3bbc <uGUI::_PutText(uGUI::TEXT*)+0x1bc>
    3c62:	239a      	movs	r3, #154	; 0x9a
    3c64:	e7aa      	b.n	3bbc <uGUI::_PutText(uGUI::TEXT*)+0x1bc>
    3c66:	238e      	movs	r3, #142	; 0x8e
    3c68:	e7a8      	b.n	3bbc <uGUI::_PutText(uGUI::TEXT*)+0x1bc>
    3c6a:	f8dd 9004 	ldr.w	r9, [sp, #4]
    3c6e:	9b02      	ldr	r3, [sp, #8]
    3c70:	4599      	cmp	r9, r3
    3c72:	d1c7      	bne.n	3c04 <uGUI::_PutText(uGUI::TEXT*)+0x204>
    3c74:	e9dd 9603 	ldrd	r9, r6, [sp, #12]
    3c78:	9a07      	ldr	r2, [sp, #28]
    3c7a:	3601      	adds	r6, #1
    3c7c:	4296      	cmp	r6, r2
    3c7e:	444b      	add	r3, r9
    3c80:	d1b4      	bne.n	3bec <uGUI::_PutText(uGUI::TEXT*)+0x1ec>
    3c82:	9c0f      	ldr	r4, [sp, #60]	; 0x3c
    3c84:	9d10      	ldr	r5, [sp, #64]	; 0x40
    3c86:	9808      	ldr	r0, [sp, #32]
    3c88:	f8dd 8044 	ldr.w	r8, [sp, #68]	; 0x44
    3c8c:	4611      	mov	r1, r2
    3c8e:	f815 3f01 	ldrb.w	r3, [r5, #1]!
    3c92:	4440      	add	r0, r8
    3c94:	2b0a      	cmp	r3, #10
    3c96:	b200      	sxth	r0, r0
    3c98:	f47f af54 	bne.w	3b44 <uGUI::_PutText(uGUI::TEXT*)+0x144>
    3c9c:	e9dd c005 	ldrd	ip, r0, [sp, #20]
    3ca0:	9e0e      	ldr	r6, [sp, #56]	; 0x38
    3ca2:	464a      	mov	r2, r9
    3ca4:	462f      	mov	r7, r5
    3ca6:	9b0c      	ldr	r3, [sp, #48]	; 0x30
    3ca8:	787f      	ldrb	r7, [r7, #1]
    3caa:	449c      	add	ip, r3
    3cac:	3501      	adds	r5, #1
    3cae:	fa1f fc8c 	uxth.w	ip, ip
    3cb2:	e703      	b.n	3abc <uGUI::_PutText(uGUI::TEXT*)+0xbc>
    3cb4:	f8dd 9028 	ldr.w	r9, [sp, #40]	; 0x28
    3cb8:	e738      	b.n	3b2c <uGUI::_PutText(uGUI::TEXT*)+0x12c>
    3cba:	fb10 fe0e 	smulbb	lr, r0, lr
    3cbe:	fa1f fe8e 	uxth.w	lr, lr
    3cc2:	e717      	b.n	3af4 <uGUI::_PutText(uGUI::TEXT*)+0xf4>
    3cc4:	2399      	movs	r3, #153	; 0x99
    3cc6:	e779      	b.n	3bbc <uGUI::_PutText(uGUI::TEXT*)+0x1bc>
    3cc8:	2394      	movs	r3, #148	; 0x94
    3cca:	e777      	b.n	3bbc <uGUI::_PutText(uGUI::TEXT*)+0x1bc>
    3ccc:	4770      	bx	lr
    3cce:	462f      	mov	r7, r5
    3cd0:	e7e9      	b.n	3ca6 <uGUI::_PutText(uGUI::TEXT*)+0x2a6>
    3cd2:	f04f 0e01 	mov.w	lr, #1
    3cd6:	e6bd      	b.n	3a54 <uGUI::_PutText(uGUI::TEXT*)+0x54>
    3cd8:	f64f 78ff 	movw	r8, #65535	; 0xffff
    3cdc:	46be      	mov	lr, r7
    3cde:	e709      	b.n	3af4 <uGUI::_PutText(uGUI::TEXT*)+0xf4>

00003ce0 <uGUI::_ProcessTouchData(uGUI::WINDOW*)>:
    3ce0:	e92d 41f0 	stmdb	sp!, {r4, r5, r6, r7, r8, lr}
    3ce4:	780b      	ldrb	r3, [r1, #0]
    3ce6:	f9b0 500a 	ldrsh.w	r5, [r0, #10]
    3cea:	f9b0 600c 	ldrsh.w	r6, [r0, #12]
    3cee:	7a04      	ldrb	r4, [r0, #8]
    3cf0:	2b00      	cmp	r3, #0
    3cf2:	d03c      	beq.n	3d6e <uGUI::_ProcessTouchData(uGUI::WINDOW*)+0x8e>
    3cf4:	ea4f 1e43 	mov.w	lr, r3, lsl #5
    3cf8:	f04f 0c00 	mov.w	ip, #0
    3cfc:	e004      	b.n	3d08 <uGUI::_ProcessTouchData(uGUI::WINDOW*)+0x28>
    3cfe:	f10c 0c20 	add.w	ip, ip, #32
    3d02:	45e6      	cmp	lr, ip
    3d04:	7058      	strb	r0, [r3, #1]
    3d06:	d032      	beq.n	3d6e <uGUI::_ProcessTouchData(uGUI::WINDOW*)+0x8e>
    3d08:	684b      	ldr	r3, [r1, #4]
    3d0a:	f813 200c 	ldrb.w	r2, [r3, ip]
    3d0e:	4463      	add	r3, ip
    3d10:	f002 024b 	and.w	r2, r2, #75	; 0x4b
    3d14:	2a0a      	cmp	r2, #10
    3d16:	7858      	ldrb	r0, [r3, #1]
    3d18:	d1f1      	bne.n	3cfe <uGUI::_ProcessTouchData(uGUI::WINDOW*)+0x1e>
    3d1a:	b354      	cbz	r4, 3d72 <uGUI::_ProcessTouchData(uGUI::WINDOW*)+0x92>
    3d1c:	1c6a      	adds	r2, r5, #1
    3d1e:	d028      	beq.n	3d72 <uGUI::_ProcessTouchData(uGUI::WINDOW*)+0x92>
    3d20:	f010 0840 	ands.w	r8, r0, #64	; 0x40
    3d24:	f9b3 7008 	ldrsh.w	r7, [r3, #8]
    3d28:	bf04      	itt	eq
    3d2a:	f000 0067 	andeq.w	r0, r0, #103	; 0x67
    3d2e:	f040 0005 	orreq.w	r0, r0, #5
    3d32:	42af      	cmp	r7, r5
    3d34:	f000 02df 	and.w	r2, r0, #223	; 0xdf
    3d38:	dc12      	bgt.n	3d60 <uGUI::_ProcessTouchData(uGUI::WINDOW*)+0x80>
    3d3a:	f9b3 700c 	ldrsh.w	r7, [r3, #12]
    3d3e:	42af      	cmp	r7, r5
    3d40:	db0e      	blt.n	3d60 <uGUI::_ProcessTouchData(uGUI::WINDOW*)+0x80>
    3d42:	f9b3 700a 	ldrsh.w	r7, [r3, #10]
    3d46:	42b7      	cmp	r7, r6
    3d48:	dc0a      	bgt.n	3d60 <uGUI::_ProcessTouchData(uGUI::WINDOW*)+0x80>
    3d4a:	f9b3 700e 	ldrsh.w	r7, [r3, #14]
    3d4e:	42b7      	cmp	r7, r6
    3d50:	db06      	blt.n	3d60 <uGUI::_ProcessTouchData(uGUI::WINDOW*)+0x80>
    3d52:	f1b8 0f00 	cmp.w	r8, #0
    3d56:	d124      	bne.n	3da2 <uGUI::_ProcessTouchData(uGUI::WINDOW*)+0xc2>
    3d58:	f000 02db 	and.w	r2, r0, #219	; 0xdb
    3d5c:	f042 0222 	orr.w	r2, r2, #34	; 0x22
    3d60:	f10c 0c20 	add.w	ip, ip, #32
    3d64:	f042 0040 	orr.w	r0, r2, #64	; 0x40
    3d68:	45e6      	cmp	lr, ip
    3d6a:	7058      	strb	r0, [r3, #1]
    3d6c:	d1cc      	bne.n	3d08 <uGUI::_ProcessTouchData(uGUI::WINDOW*)+0x28>
    3d6e:	e8bd 81f0 	ldmia.w	sp!, {r4, r5, r6, r7, r8, pc}
    3d72:	0647      	lsls	r7, r0, #25
    3d74:	f000 0240 	and.w	r2, r0, #64	; 0x40
    3d78:	d5c1      	bpl.n	3cfe <uGUI::_ProcessTouchData(uGUI::WINDOW*)+0x1e>
    3d7a:	0687      	lsls	r7, r0, #26
    3d7c:	d406      	bmi.n	3d8c <uGUI::_ProcessTouchData(uGUI::WINDOW*)+0xac>
    3d7e:	f040 0010 	orr.w	r0, r0, #16
    3d82:	f040 0001 	orr.w	r0, r0, #1
    3d86:	f000 00b9 	and.w	r0, r0, #185	; 0xb9
    3d8a:	e7b8      	b.n	3cfe <uGUI::_ProcessTouchData(uGUI::WINDOW*)+0x1e>
    3d8c:	0787      	lsls	r7, r0, #30
    3d8e:	bf44      	itt	mi
    3d90:	f040 0080 	orrmi.w	r0, r0, #128	; 0x80
    3d94:	f000 0240 	andmi.w	r2, r0, #64	; 0x40
    3d98:	f040 0008 	orr.w	r0, r0, #8
    3d9c:	2a00      	cmp	r2, #0
    3d9e:	d0f2      	beq.n	3d86 <uGUI::_ProcessTouchData(uGUI::WINDOW*)+0xa6>
    3da0:	e7ef      	b.n	3d82 <uGUI::_ProcessTouchData(uGUI::WINDOW*)+0xa2>
    3da2:	f042 0220 	orr.w	r2, r2, #32
    3da6:	e7db      	b.n	3d60 <uGUI::_ProcessTouchData(uGUI::WINDOW*)+0x80>

00003da8 <uGUI::_UpdateObjects(uGUI::WINDOW*)>:
    3da8:	780b      	ldrb	r3, [r1, #0]
    3daa:	b363      	cbz	r3, 3e06 <uGUI::_UpdateObjects(uGUI::WINDOW*)+0x5e>
    3dac:	e92d 47f0 	stmdb	sp!, {r4, r5, r6, r7, r8, r9, sl, lr}
    3db0:	460f      	mov	r7, r1
    3db2:	4681      	mov	r9, r0
    3db4:	ea4f 1843 	mov.w	r8, r3, lsl #5
    3db8:	2500      	movs	r5, #0
    3dba:	e001      	b.n	3dc0 <uGUI::_UpdateObjects(uGUI::WINDOW*)+0x18>
    3dbc:	45a8      	cmp	r8, r5
    3dbe:	d020      	beq.n	3e02 <uGUI::_UpdateObjects(uGUI::WINDOW*)+0x5a>
    3dc0:	687c      	ldr	r4, [r7, #4]
    3dc2:	5d66      	ldrb	r6, [r4, r5]
    3dc4:	442c      	add	r4, r5
    3dc6:	f006 0303 	and.w	r3, r6, #3
    3dca:	2b02      	cmp	r3, #2
    3dcc:	f894 a001 	ldrb.w	sl, [r4, #1]
    3dd0:	f105 0520 	add.w	r5, r5, #32
    3dd4:	d1f2      	bne.n	3dbc <uGUI::_UpdateObjects(uGUI::WINDOW*)+0x14>
    3dd6:	f016 0f20 	tst.w	r6, #32
    3dda:	4622      	mov	r2, r4
    3ddc:	4639      	mov	r1, r7
    3dde:	4648      	mov	r0, r9
    3de0:	d001      	beq.n	3de6 <uGUI::_UpdateObjects(uGUI::WINDOW*)+0x3e>
    3de2:	6863      	ldr	r3, [r4, #4]
    3de4:	4798      	blx	r3
    3de6:	0732      	lsls	r2, r6, #28
    3de8:	d5e8      	bpl.n	3dbc <uGUI::_UpdateObjects(uGUI::WINDOW*)+0x14>
    3dea:	0633      	lsls	r3, r6, #24
    3dec:	d5e6      	bpl.n	3dbc <uGUI::_UpdateObjects(uGUI::WINDOW*)+0x14>
    3dee:	f01a 0f41 	tst.w	sl, #65	; 0x41
    3df2:	4622      	mov	r2, r4
    3df4:	d0e2      	beq.n	3dbc <uGUI::_UpdateObjects(uGUI::WINDOW*)+0x14>
    3df6:	6863      	ldr	r3, [r4, #4]
    3df8:	4639      	mov	r1, r7
    3dfa:	4648      	mov	r0, r9
    3dfc:	4798      	blx	r3
    3dfe:	45a8      	cmp	r8, r5
    3e00:	d1de      	bne.n	3dc0 <uGUI::_UpdateObjects(uGUI::WINDOW*)+0x18>
    3e02:	e8bd 87f0 	ldmia.w	sp!, {r4, r5, r6, r7, r8, r9, sl, pc}
    3e06:	4770      	bx	lr

00003e08 <uGUI::_DrawObjectFrame(short, short, short, short, unsigned long*)>:
    3e08:	e92d 4ff0 	stmdb	sp!, {r4, r5, r6, r7, r8, r9, sl, fp, lr}
    3e0c:	b089      	sub	sp, #36	; 0x24
    3e0e:	4698      	mov	r8, r3
    3e10:	b29b      	uxth	r3, r3
    3e12:	9d13      	ldr	r5, [sp, #76]	; 0x4c
    3e14:	9303      	str	r3, [sp, #12]
    3e16:	3b01      	subs	r3, #1
    3e18:	f9bd b048 	ldrsh.w	fp, [sp, #72]	; 0x48
    3e1c:	9200      	str	r2, [sp, #0]
    3e1e:	b21e      	sxth	r6, r3
    3e20:	9604      	str	r6, [sp, #16]
    3e22:	682b      	ldr	r3, [r5, #0]
    3e24:	9301      	str	r3, [sp, #4]
    3e26:	fa1f f78b 	uxth.w	r7, fp
    3e2a:	9b04      	ldr	r3, [sp, #16]
    3e2c:	4604      	mov	r4, r0
    3e2e:	468a      	mov	sl, r1
    3e30:	4691      	mov	r9, r2
    3e32:	b296      	uxth	r6, r2
    3e34:	f7ff fc7a 	bl	372c <uGUI::DrawLine(short, short, short, short, unsigned long)>
    3e38:	9706      	str	r7, [sp, #24]
    3e3a:	3f01      	subs	r7, #1
    3e3c:	b23f      	sxth	r7, r7
    3e3e:	9605      	str	r6, [sp, #20]
    3e40:	9700      	str	r7, [sp, #0]
    3e42:	3601      	adds	r6, #1
    3e44:	b236      	sxth	r6, r6
    3e46:	686b      	ldr	r3, [r5, #4]
    3e48:	9301      	str	r3, [sp, #4]
    3e4a:	4632      	mov	r2, r6
    3e4c:	4653      	mov	r3, sl
    3e4e:	4651      	mov	r1, sl
    3e50:	4620      	mov	r0, r4
    3e52:	f7ff fc6b 	bl	372c <uGUI::DrawLine(short, short, short, short, unsigned long)>
    3e56:	f8cd b000 	str.w	fp, [sp]
    3e5a:	68ab      	ldr	r3, [r5, #8]
    3e5c:	9301      	str	r3, [sp, #4]
    3e5e:	fa1f f08a 	uxth.w	r0, sl
    3e62:	465a      	mov	r2, fp
    3e64:	4643      	mov	r3, r8
    3e66:	4651      	mov	r1, sl
    3e68:	9007      	str	r0, [sp, #28]
    3e6a:	4620      	mov	r0, r4
    3e6c:	f7ff fc5e 	bl	372c <uGUI::DrawLine(short, short, short, short, unsigned long)>
    3e70:	9700      	str	r7, [sp, #0]
    3e72:	68eb      	ldr	r3, [r5, #12]
    3e74:	9301      	str	r3, [sp, #4]
    3e76:	464a      	mov	r2, r9
    3e78:	4643      	mov	r3, r8
    3e7a:	4641      	mov	r1, r8
    3e7c:	4620      	mov	r0, r4
    3e7e:	f7ff fc55 	bl	372c <uGUI::DrawLine(short, short, short, short, unsigned long)>
    3e82:	9a07      	ldr	r2, [sp, #28]
    3e84:	9600      	str	r6, [sp, #0]
    3e86:	1c51      	adds	r1, r2, #1
    3e88:	9a03      	ldr	r2, [sp, #12]
    3e8a:	692b      	ldr	r3, [r5, #16]
    3e8c:	9301      	str	r3, [sp, #4]
    3e8e:	f1a2 0a02 	sub.w	sl, r2, #2
    3e92:	fa0f fb81 	sxth.w	fp, r1
    3e96:	fa0f fa8a 	sxth.w	sl, sl
    3e9a:	4653      	mov	r3, sl
    3e9c:	4632      	mov	r2, r6
    3e9e:	4659      	mov	r1, fp
    3ea0:	4620      	mov	r0, r4
    3ea2:	f7ff fc43 	bl	372c <uGUI::DrawLine(short, short, short, short, unsigned long)>
    3ea6:	9806      	ldr	r0, [sp, #24]
    3ea8:	9905      	ldr	r1, [sp, #20]
    3eaa:	f1a0 0902 	sub.w	r9, r0, #2
    3eae:	fa0f f989 	sxth.w	r9, r9
    3eb2:	f8cd 9000 	str.w	r9, [sp]
    3eb6:	f101 0802 	add.w	r8, r1, #2
    3eba:	fa0f f888 	sxth.w	r8, r8
    3ebe:	696b      	ldr	r3, [r5, #20]
    3ec0:	9301      	str	r3, [sp, #4]
    3ec2:	4642      	mov	r2, r8
    3ec4:	465b      	mov	r3, fp
    3ec6:	4659      	mov	r1, fp
    3ec8:	4620      	mov	r0, r4
    3eca:	f7ff fc2f 	bl	372c <uGUI::DrawLine(short, short, short, short, unsigned long)>
    3ece:	4659      	mov	r1, fp
    3ed0:	9700      	str	r7, [sp, #0]
    3ed2:	f8dd b010 	ldr.w	fp, [sp, #16]
    3ed6:	69ab      	ldr	r3, [r5, #24]
    3ed8:	9301      	str	r3, [sp, #4]
    3eda:	463a      	mov	r2, r7
    3edc:	465b      	mov	r3, fp
    3ede:	4620      	mov	r0, r4
    3ee0:	f7ff fc24 	bl	372c <uGUI::DrawLine(short, short, short, short, unsigned long)>
    3ee4:	f8cd 9000 	str.w	r9, [sp]
    3ee8:	69eb      	ldr	r3, [r5, #28]
    3eea:	9301      	str	r3, [sp, #4]
    3eec:	4632      	mov	r2, r6
    3eee:	465b      	mov	r3, fp
    3ef0:	4659      	mov	r1, fp
    3ef2:	4620      	mov	r0, r4
    3ef4:	f7ff fc1a 	bl	372c <uGUI::DrawLine(short, short, short, short, unsigned long)>
    3ef8:	9a07      	ldr	r2, [sp, #28]
    3efa:	9b03      	ldr	r3, [sp, #12]
    3efc:	f8cd 8000 	str.w	r8, [sp]
    3f00:	f102 0b02 	add.w	fp, r2, #2
    3f04:	fa0f fb8b 	sxth.w	fp, fp
    3f08:	6a2a      	ldr	r2, [r5, #32]
    3f0a:	9201      	str	r2, [sp, #4]
    3f0c:	3b03      	subs	r3, #3
    3f0e:	4642      	mov	r2, r8
    3f10:	4659      	mov	r1, fp
    3f12:	4620      	mov	r0, r4
    3f14:	b21b      	sxth	r3, r3
    3f16:	f7ff fc09 	bl	372c <uGUI::DrawLine(short, short, short, short, unsigned long)>
    3f1a:	9806      	ldr	r0, [sp, #24]
    3f1c:	9905      	ldr	r1, [sp, #20]
    3f1e:	1ec6      	subs	r6, r0, #3
    3f20:	b236      	sxth	r6, r6
    3f22:	9600      	str	r6, [sp, #0]
    3f24:	6a6b      	ldr	r3, [r5, #36]	; 0x24
    3f26:	9301      	str	r3, [sp, #4]
    3f28:	1cca      	adds	r2, r1, #3
    3f2a:	465b      	mov	r3, fp
    3f2c:	4659      	mov	r1, fp
    3f2e:	4620      	mov	r0, r4
    3f30:	b212      	sxth	r2, r2
    3f32:	f7ff fbfb 	bl	372c <uGUI::DrawLine(short, short, short, short, unsigned long)>
    3f36:	f8cd 9000 	str.w	r9, [sp]
    3f3a:	6aab      	ldr	r3, [r5, #40]	; 0x28
    3f3c:	9301      	str	r3, [sp, #4]
    3f3e:	4659      	mov	r1, fp
    3f40:	464a      	mov	r2, r9
    3f42:	4653      	mov	r3, sl
    3f44:	4620      	mov	r0, r4
    3f46:	f7ff fbf1 	bl	372c <uGUI::DrawLine(short, short, short, short, unsigned long)>
    3f4a:	6aeb      	ldr	r3, [r5, #44]	; 0x2c
    3f4c:	4642      	mov	r2, r8
    3f4e:	e9cd 6312 	strd	r6, r3, [sp, #72]	; 0x48
    3f52:	4651      	mov	r1, sl
    3f54:	4653      	mov	r3, sl
    3f56:	4620      	mov	r0, r4
    3f58:	b009      	add	sp, #36	; 0x24
    3f5a:	e8bd 4ff0 	ldmia.w	sp!, {r4, r5, r6, r7, r8, r9, sl, fp, lr}
    3f5e:	f7ff bbe5 	b.w	372c <uGUI::DrawLine(short, short, short, short, unsigned long)>
    3f62:	bf00      	nop

00003f64 <uGUI::_ButtonUpdate(uGUI*, uGUI::WINDOW*, uGUI::OBJECT*)>:
    3f64:	e92d 47f0 	stmdb	sp!, {r4, r5, r6, r7, r8, r9, sl, lr}
    3f68:	2300      	movs	r3, #0
    3f6a:	b08a      	sub	sp, #40	; 0x28
    3f6c:	e9cd 3304 	strd	r3, r3, [sp, #16]
    3f70:	7853      	ldrb	r3, [r2, #1]
    3f72:	69d6      	ldr	r6, [r2, #28]
    3f74:	4605      	mov	r5, r0
    3f76:	07d8      	lsls	r0, r3, #31
    3f78:	4614      	mov	r4, r2
    3f7a:	f140 80d4 	bpl.w	4126 <uGUI::_ButtonUpdate(uGUI*, uGUI::WINDOW*, uGUI::OBJECT*)+0x1c2>
    3f7e:	061a      	lsls	r2, r3, #24
    3f80:	f100 80da 	bmi.w	4138 <uGUI::_ButtonUpdate(uGUI*, uGUI::WINDOW*, uGUI::OBJECT*)+0x1d4>
    3f84:	079f      	lsls	r7, r3, #30
    3f86:	f140 80c8 	bpl.w	411a <uGUI::_ButtonUpdate(uGUI*, uGUI::WINDOW*, uGUI::OBJECT*)+0x1b6>
    3f8a:	7833      	ldrb	r3, [r6, #0]
    3f8c:	f043 0301 	orr.w	r3, r3, #1
    3f90:	7033      	strb	r3, [r6, #0]
    3f92:	7823      	ldrb	r3, [r4, #0]
    3f94:	7862      	ldrb	r2, [r4, #1]
    3f96:	f043 0320 	orr.w	r3, r3, #32
    3f9a:	f022 0201 	bic.w	r2, r2, #1
    3f9e:	7023      	strb	r3, [r4, #0]
    3fa0:	7062      	strb	r2, [r4, #1]
    3fa2:	071f      	lsls	r7, r3, #28
    3fa4:	f140 80cf 	bpl.w	4146 <uGUI::_ButtonUpdate(uGUI*, uGUI::WINDOW*, uGUI::OBJECT*)+0x1e2>
    3fa8:	0658      	lsls	r0, r3, #25
    3faa:	d403      	bmi.n	3fb4 <uGUI::_ButtonUpdate(uGUI*, uGUI::WINDOW*, uGUI::OBJECT*)+0x50>
    3fac:	7833      	ldrb	r3, [r6, #0]
    3fae:	079a      	lsls	r2, r3, #30
    3fb0:	f140 809c 	bpl.w	40ec <uGUI::_ButtonUpdate(uGUI*, uGUI::WINDOW*, uGUI::OBJECT*)+0x188>
    3fb4:	2900      	cmp	r1, #0
    3fb6:	f000 8130 	beq.w	421a <uGUI::_ButtonUpdate(uGUI*, uGUI::WINDOW*, uGUI::OBJECT*)+0x2b6>
    3fba:	7a0b      	ldrb	r3, [r1, #8]
    3fbc:	f013 0302 	ands.w	r3, r3, #2
    3fc0:	f000 8129 	beq.w	4216 <uGUI::_ButtonUpdate(uGUI*, uGUI::WINDOW*, uGUI::OBJECT*)+0x2b2>
    3fc4:	7f08      	ldrb	r0, [r1, #28]
    3fc6:	f9b1 2014 	ldrsh.w	r2, [r1, #20]
    3fca:	f9b1 3016 	ldrsh.w	r3, [r1, #22]
    3fce:	07c7      	lsls	r7, r0, #31
    3fd0:	f100 80e3 	bmi.w	419a <uGUI::_ButtonUpdate(uGUI*, uGUI::WINDOW*, uGUI::OBJECT*)+0x236>
    3fd4:	b29b      	uxth	r3, r3
    3fd6:	b292      	uxth	r2, r2
    3fd8:	0780      	lsls	r0, r0, #30
    3fda:	d504      	bpl.n	3fe6 <uGUI::_ButtonUpdate(uGUI*, uGUI::WINDOW*, uGUI::OBJECT*)+0x82>
    3fdc:	f891 003c 	ldrb.w	r0, [r1, #60]	; 0x3c
    3fe0:	3001      	adds	r0, #1
    3fe2:	4403      	add	r3, r0
    3fe4:	b29b      	uxth	r3, r3
    3fe6:	8aa7      	ldrh	r7, [r4, #20]
    3fe8:	8a20      	ldrh	r0, [r4, #16]
    3fea:	f8b4 c012 	ldrh.w	ip, [r4, #18]
    3fee:	4410      	add	r0, r2
    3ff0:	443a      	add	r2, r7
    3ff2:	8ae7      	ldrh	r7, [r4, #22]
    3ff4:	449c      	add	ip, r3
    3ff6:	443b      	add	r3, r7
    3ff8:	b21f      	sxth	r7, r3
    3ffa:	fa0f fe82 	sxth.w	lr, r2
    3ffe:	b280      	uxth	r0, r0
    4000:	fa1f fc8c 	uxth.w	ip, ip
    4004:	8120      	strh	r0, [r4, #8]
    4006:	f8a4 c00a 	strh.w	ip, [r4, #10]
    400a:	f8a4 e00c 	strh.w	lr, [r4, #12]
    400e:	81e7      	strh	r7, [r4, #14]
    4010:	f9b1 801a 	ldrsh.w	r8, [r1, #26]
    4014:	45b8      	cmp	r8, r7
    4016:	b292      	uxth	r2, r2
    4018:	b29b      	uxth	r3, r3
    401a:	f340 808a 	ble.w	4132 <uGUI::_ButtonUpdate(uGUI*, uGUI::WINDOW*, uGUI::OBJECT*)+0x1ce>
    401e:	f9b1 1018 	ldrsh.w	r1, [r1, #24]
    4022:	4571      	cmp	r1, lr
    4024:	f340 8085 	ble.w	4132 <uGUI::_ButtonUpdate(uGUI*, uGUI::WINDOW*, uGUI::OBJECT*)+0x1ce>
    4028:	7871      	ldrb	r1, [r6, #1]
    402a:	f896 9000 	ldrb.w	r9, [r6]
    402e:	f8d6 e008 	ldr.w	lr, [r6, #8]
    4032:	f8d6 8004 	ldr.w	r8, [r6, #4]
    4036:	f8cd e01c 	str.w	lr, [sp, #28]
    403a:	f011 0f01 	tst.w	r1, #1
    403e:	bf14      	ite	ne
    4040:	2703      	movne	r7, #3
    4042:	2701      	moveq	r7, #1
    4044:	f019 0f01 	tst.w	r9, #1
    4048:	f8cd 8018 	str.w	r8, [sp, #24]
    404c:	d006      	beq.n	405c <uGUI::_ButtonUpdate(uGUI*, uGUI::WINDOW*, uGUI::OBJECT*)+0xf8>
    404e:	f011 0f02 	tst.w	r1, #2
    4052:	f000 80d6 	beq.w	4202 <uGUI::_ButtonUpdate(uGUI*, uGUI::WINDOW*, uGUI::OBJECT*)+0x29e>
    4056:	e9cd e806 	strd	lr, r8, [sp, #24]
    405a:	46c6      	mov	lr, r8
    405c:	1bd2      	subs	r2, r2, r7
    405e:	4438      	add	r0, r7
    4060:	b281      	uxth	r1, r0
    4062:	eba3 0807 	sub.w	r8, r3, r7
    4066:	b200      	sxth	r0, r0
    4068:	b213      	sxth	r3, r2
    406a:	4298      	cmp	r0, r3
    406c:	4689      	mov	r9, r1
    406e:	b293      	uxth	r3, r2
    4070:	44bc      	add	ip, r7
    4072:	fa1f f28c 	uxth.w	r2, ip
    4076:	bfc8      	it	gt
    4078:	4619      	movgt	r1, r3
    407a:	fa0f fc8c 	sxth.w	ip, ip
    407e:	bfc8      	it	gt
    4080:	464b      	movgt	r3, r9
    4082:	fa0f f988 	sxth.w	r9, r8
    4086:	45cc      	cmp	ip, r9
    4088:	6828      	ldr	r0, [r5, #0]
    408a:	fa1f fc88 	uxth.w	ip, r8
    408e:	4690      	mov	r8, r2
    4090:	bfc4      	itt	gt
    4092:	4662      	movgt	r2, ip
    4094:	46c4      	movgt	ip, r8
    4096:	f8d0 8000 	ldr.w	r8, [r0]
    409a:	e9cd ce00 	strd	ip, lr, [sp]
    409e:	f8d8 8018 	ldr.w	r8, [r8, #24]
    40a2:	47c0      	blx	r8
    40a4:	8923      	ldrh	r3, [r4, #8]
    40a6:	6972      	ldr	r2, [r6, #20]
    40a8:	9203      	str	r2, [sp, #12]
    40aa:	443b      	add	r3, r7
    40ac:	f8ad 3010 	strh.w	r3, [sp, #16]
    40b0:	8963      	ldrh	r3, [r4, #10]
    40b2:	443b      	add	r3, r7
    40b4:	f8ad 3012 	strh.w	r3, [sp, #18]
    40b8:	89a3      	ldrh	r3, [r4, #12]
    40ba:	1bdb      	subs	r3, r3, r7
    40bc:	f8ad 3014 	strh.w	r3, [sp, #20]
    40c0:	89e3      	ldrh	r3, [r4, #14]
    40c2:	1bdb      	subs	r3, r3, r7
    40c4:	f8ad 3016 	strh.w	r3, [sp, #22]
    40c8:	69b3      	ldr	r3, [r6, #24]
    40ca:	9302      	str	r3, [sp, #8]
    40cc:	2212      	movs	r2, #18
    40ce:	f04f 1302 	mov.w	r3, #131074	; 0x20002
    40d2:	a902      	add	r1, sp, #8
    40d4:	4628      	mov	r0, r5
    40d6:	f8cd 3022 	str.w	r3, [sp, #34]	; 0x22
    40da:	f88d 2020 	strb.w	r2, [sp, #32]
    40de:	f7ff fc8f 	bl	3a00 <uGUI::_PutText(uGUI::TEXT*)>
    40e2:	7823      	ldrb	r3, [r4, #0]
    40e4:	f023 0340 	bic.w	r3, r3, #64	; 0x40
    40e8:	7023      	strb	r3, [r4, #0]
    40ea:	7833      	ldrb	r3, [r6, #0]
    40ec:	7872      	ldrb	r2, [r6, #1]
    40ee:	07d2      	lsls	r2, r2, #31
    40f0:	d558      	bpl.n	41a4 <uGUI::_ButtonUpdate(uGUI*, uGUI::WINDOW*, uGUI::OBJECT*)+0x240>
    40f2:	f013 0f01 	tst.w	r3, #1
    40f6:	4b4a      	ldr	r3, [pc, #296]	; (4220 <uGUI::_ButtonUpdate(uGUI*, uGUI::WINDOW*, uGUI::OBJECT*)+0x2bc>)
    40f8:	4a4a      	ldr	r2, [pc, #296]	; (4224 <uGUI::_ButtonUpdate(uGUI*, uGUI::WINDOW*, uGUI::OBJECT*)+0x2c0>)
    40fa:	f9b4 100e 	ldrsh.w	r1, [r4, #14]
    40fe:	bf18      	it	ne
    4100:	461a      	movne	r2, r3
    4102:	f9b4 300c 	ldrsh.w	r3, [r4, #12]
    4106:	e9cd 1200 	strd	r1, r2, [sp]
    410a:	4628      	mov	r0, r5
    410c:	f9b4 200a 	ldrsh.w	r2, [r4, #10]
    4110:	f9b4 1008 	ldrsh.w	r1, [r4, #8]
    4114:	f7ff fe78 	bl	3e08 <uGUI::_DrawObjectFrame(short, short, short, short, unsigned long*)>
    4118:	e030      	b.n	417c <uGUI::_ButtonUpdate(uGUI*, uGUI::WINDOW*, uGUI::OBJECT*)+0x218>
    411a:	7832      	ldrb	r2, [r6, #0]
    411c:	07d0      	lsls	r0, r2, #31
    411e:	d438      	bmi.n	4192 <uGUI::_ButtonUpdate(uGUI*, uGUI::WINDOW*, uGUI::OBJECT*)+0x22e>
    4120:	f023 0301 	bic.w	r3, r3, #1
    4124:	7063      	strb	r3, [r4, #1]
    4126:	7823      	ldrb	r3, [r4, #0]
    4128:	f003 0220 	and.w	r2, r3, #32
    412c:	2a00      	cmp	r2, #0
    412e:	f47f af38 	bne.w	3fa2 <uGUI::_ButtonUpdate(uGUI*, uGUI::WINDOW*, uGUI::OBJECT*)+0x3e>
    4132:	b00a      	add	sp, #40	; 0x28
    4134:	e8bd 87f0 	ldmia.w	sp!, {r4, r5, r6, r7, r8, r9, sl, pc}
    4138:	7822      	ldrb	r2, [r4, #0]
    413a:	f042 0220 	orr.w	r2, r2, #32
    413e:	7022      	strb	r2, [r4, #0]
    4140:	2201      	movs	r2, #1
    4142:	76a2      	strb	r2, [r4, #26]
    4144:	e71e      	b.n	3f84 <uGUI::_ButtonUpdate(uGUI*, uGUI::WINDOW*, uGUI::OBJECT*)+0x20>
    4146:	f9b4 c008 	ldrsh.w	ip, [r4, #8]
    414a:	f9b4 300c 	ldrsh.w	r3, [r4, #12]
    414e:	f9b4 200a 	ldrsh.w	r2, [r4, #10]
    4152:	690f      	ldr	r7, [r1, #16]
    4154:	f9b4 600e 	ldrsh.w	r6, [r4, #14]
    4158:	459c      	cmp	ip, r3
    415a:	dd02      	ble.n	4162 <uGUI::_ButtonUpdate(uGUI*, uGUI::WINDOW*, uGUI::OBJECT*)+0x1fe>
    415c:	4661      	mov	r1, ip
    415e:	469c      	mov	ip, r3
    4160:	460b      	mov	r3, r1
    4162:	42b2      	cmp	r2, r6
    4164:	dc11      	bgt.n	418a <uGUI::_ButtonUpdate(uGUI*, uGUI::WINDOW*, uGUI::OBJECT*)+0x226>
    4166:	6828      	ldr	r0, [r5, #0]
    4168:	b2b6      	uxth	r6, r6
    416a:	6805      	ldr	r5, [r0, #0]
    416c:	e9cd 6700 	strd	r6, r7, [sp]
    4170:	b29b      	uxth	r3, r3
    4172:	69ad      	ldr	r5, [r5, #24]
    4174:	b292      	uxth	r2, r2
    4176:	fa1f f18c 	uxth.w	r1, ip
    417a:	47a8      	blx	r5
    417c:	7823      	ldrb	r3, [r4, #0]
    417e:	f023 0320 	bic.w	r3, r3, #32
    4182:	7023      	strb	r3, [r4, #0]
    4184:	b00a      	add	sp, #40	; 0x28
    4186:	e8bd 87f0 	ldmia.w	sp!, {r4, r5, r6, r7, r8, r9, sl, pc}
    418a:	4611      	mov	r1, r2
    418c:	4632      	mov	r2, r6
    418e:	460e      	mov	r6, r1
    4190:	e7e9      	b.n	4166 <uGUI::_ButtonUpdate(uGUI*, uGUI::WINDOW*, uGUI::OBJECT*)+0x202>
    4192:	f022 0201 	bic.w	r2, r2, #1
    4196:	7032      	strb	r2, [r6, #0]
    4198:	e6fb      	b.n	3f92 <uGUI::_ButtonUpdate(uGUI*, uGUI::WINDOW*, uGUI::OBJECT*)+0x2e>
    419a:	3203      	adds	r2, #3
    419c:	3303      	adds	r3, #3
    419e:	b292      	uxth	r2, r2
    41a0:	b29b      	uxth	r3, r3
    41a2:	e719      	b.n	3fd8 <uGUI::_ButtonUpdate(uGUI*, uGUI::WINDOW*, uGUI::OBJECT*)+0x74>
    41a4:	f013 0f01 	tst.w	r3, #1
    41a8:	e9d6 7303 	ldrd	r7, r3, [r6, #12]
    41ac:	f9b4 800a 	ldrsh.w	r8, [r4, #10]
    41b0:	f9b4 a008 	ldrsh.w	sl, [r4, #8]
    41b4:	bf18      	it	ne
    41b6:	461f      	movne	r7, r3
    41b8:	e9cd 8700 	strd	r8, r7, [sp]
    41bc:	f9b4 900c 	ldrsh.w	r9, [r4, #12]
    41c0:	f9b4 600e 	ldrsh.w	r6, [r4, #14]
    41c4:	464b      	mov	r3, r9
    41c6:	4642      	mov	r2, r8
    41c8:	4651      	mov	r1, sl
    41ca:	4628      	mov	r0, r5
    41cc:	f7ff faae 	bl	372c <uGUI::DrawLine(short, short, short, short, unsigned long)>
    41d0:	464b      	mov	r3, r9
    41d2:	4632      	mov	r2, r6
    41d4:	4651      	mov	r1, sl
    41d6:	4628      	mov	r0, r5
    41d8:	e9cd 6700 	strd	r6, r7, [sp]
    41dc:	f7ff faa6 	bl	372c <uGUI::DrawLine(short, short, short, short, unsigned long)>
    41e0:	4653      	mov	r3, sl
    41e2:	4651      	mov	r1, sl
    41e4:	4642      	mov	r2, r8
    41e6:	4628      	mov	r0, r5
    41e8:	e9cd 6700 	strd	r6, r7, [sp]
    41ec:	f7ff fa9e 	bl	372c <uGUI::DrawLine(short, short, short, short, unsigned long)>
    41f0:	e9cd 6700 	strd	r6, r7, [sp]
    41f4:	464b      	mov	r3, r9
    41f6:	4642      	mov	r2, r8
    41f8:	4649      	mov	r1, r9
    41fa:	4628      	mov	r0, r5
    41fc:	f7ff fa96 	bl	372c <uGUI::DrawLine(short, short, short, short, unsigned long)>
    4200:	e7bc      	b.n	417c <uGUI::_ButtonUpdate(uGUI*, uGUI::WINDOW*, uGUI::OBJECT*)+0x218>
    4202:	0749      	lsls	r1, r1, #29
    4204:	f57f af2a 	bpl.w	405c <uGUI::_ButtonUpdate(uGUI*, uGUI::WINDOW*, uGUI::OBJECT*)+0xf8>
    4208:	f8d6 e010 	ldr.w	lr, [r6, #16]
    420c:	68f1      	ldr	r1, [r6, #12]
    420e:	f8cd e01c 	str.w	lr, [sp, #28]
    4212:	9106      	str	r1, [sp, #24]
    4214:	e722      	b.n	405c <uGUI::_ButtonUpdate(uGUI*, uGUI::WINDOW*, uGUI::OBJECT*)+0xf8>
    4216:	461a      	mov	r2, r3
    4218:	e6e5      	b.n	3fe6 <uGUI::_ButtonUpdate(uGUI*, uGUI::WINDOW*, uGUI::OBJECT*)+0x82>
    421a:	460b      	mov	r3, r1
    421c:	460a      	mov	r2, r1
    421e:	e6e2      	b.n	3fe6 <uGUI::_ButtonUpdate(uGUI*, uGUI::WINDOW*, uGUI::OBJECT*)+0x82>
    4220:	0000eef8 	.word	0x0000eef8
    4224:	0000eec8 	.word	0x0000eec8

00004228 <uGUI::WindowCreate(uGUI::WINDOW*, uGUI::OBJECT*, unsigned char, void (*)(uGUI::MESSAGE*))>:
    4228:	2900      	cmp	r1, #0
    422a:	d039      	beq.n	42a0 <uGUI::WindowCreate(uGUI::WINDOW*, uGUI::OBJECT*, unsigned char, void (*)(uGUI::MESSAGE*))+0x78>
    422c:	2a00      	cmp	r2, #0
    422e:	d037      	beq.n	42a0 <uGUI::WindowCreate(uGUI::WINDOW*, uGUI::OBJECT*, unsigned char, void (*)(uGUI::MESSAGE*))+0x78>
    4230:	2b00      	cmp	r3, #0
    4232:	d035      	beq.n	42a0 <uGUI::WindowCreate(uGUI::WINDOW*, uGUI::OBJECT*, unsigned char, void (*)(uGUI::MESSAGE*))+0x78>
    4234:	b530      	push	{r4, r5, lr}
    4236:	4694      	mov	ip, r2
    4238:	eb02 1543 	add.w	r5, r2, r3, lsl #5
    423c:	f04f 0e03 	mov.w	lr, #3
    4240:	2400      	movs	r4, #0
    4242:	f88c e000 	strb.w	lr, [ip]
    4246:	f8cc 401c 	str.w	r4, [ip, #28]
    424a:	f10c 0c20 	add.w	ip, ip, #32
    424e:	45ac      	cmp	ip, r5
    4250:	d1f7      	bne.n	4242 <uGUI::WindowCreate(uGUI::WINDOW*, uGUI::OBJECT*, unsigned char, void (*)(uGUI::MESSAGE*))+0x1a>
    4252:	700b      	strb	r3, [r1, #0]
    4254:	2302      	movs	r3, #2
    4256:	720b      	strb	r3, [r1, #8]
    4258:	4b13      	ldr	r3, [pc, #76]	; (42a8 <uGUI::WindowCreate(uGUI::WINDOW*, uGUI::OBJECT*, unsigned char, void (*)(uGUI::MESSAGE*))+0x80>)
    425a:	604a      	str	r2, [r1, #4]
    425c:	e9c1 4303 	strd	r4, r3, [r1, #12]
    4260:	614c      	str	r4, [r1, #20]
    4262:	8883      	ldrh	r3, [r0, #4]
    4264:	3b01      	subs	r3, #1
    4266:	830b      	strh	r3, [r1, #24]
    4268:	88c3      	ldrh	r3, [r0, #6]
    426a:	f881 e01c 	strb.w	lr, [r1, #28]
    426e:	3b01      	subs	r3, #1
    4270:	f240 2002 	movw	r0, #514	; 0x202
    4274:	834b      	strh	r3, [r1, #26]
    4276:	9b03      	ldr	r3, [sp, #12]
    4278:	8508      	strh	r0, [r1, #40]	; 0x28
    427a:	640b      	str	r3, [r1, #64]	; 0x40
    427c:	480b      	ldr	r0, [pc, #44]	; (42ac <uGUI::WindowCreate(uGUI::WINDOW*, uGUI::OBJECT*, unsigned char, void (*)(uGUI::MESSAGE*))+0x84>)
    427e:	2311      	movs	r3, #17
    4280:	f06f 427f 	mvn.w	r2, #4278190080	; 0xff000000
    4284:	e9c1 4408 	strd	r4, r4, [r1, #32]
    4288:	f881 302a 	strb.w	r3, [r1, #42]	; 0x2a
    428c:	24ff      	movs	r4, #255	; 0xff
    428e:	230f      	movs	r3, #15
    4290:	e9c1 200d 	strd	r2, r0, [r1, #52]	; 0x34
    4294:	e9c1 240b 	strd	r2, r4, [r1, #44]	; 0x2c
    4298:	f881 303c 	strb.w	r3, [r1, #60]	; 0x3c
    429c:	2000      	movs	r0, #0
    429e:	bd30      	pop	{r4, r5, pc}
    42a0:	f04f 30ff 	mov.w	r0, #4294967295
    42a4:	4770      	bx	lr
    42a6:	bf00      	nop
    42a8:	00f0f0f0 	.word	0x00f0f0f0
    42ac:	00808080 	.word	0x00808080

000042b0 <uGUI::WindowShow(uGUI::WINDOW*)>:
    42b0:	4602      	mov	r2, r0
    42b2:	b141      	cbz	r1, 42c6 <uGUI::WindowShow(uGUI::WINDOW*)+0x16>
    42b4:	7a0b      	ldrb	r3, [r1, #8]
    42b6:	f023 0340 	bic.w	r3, r3, #64	; 0x40
    42ba:	f043 0328 	orr.w	r3, r3, #40	; 0x28
    42be:	720b      	strb	r3, [r1, #8]
    42c0:	2000      	movs	r0, #0
    42c2:	6111      	str	r1, [r2, #16]
    42c4:	4770      	bx	lr
    42c6:	f04f 30ff 	mov.w	r0, #4294967295
    42ca:	4770      	bx	lr

000042cc <uGUI::WindowResize(uGUI::WINDOW*, short, short, short, short)>:
    42cc:	e92d 4ff0 	stmdb	sp!, {r4, r5, r6, r7, r8, r9, sl, fp, lr}
    42d0:	b083      	sub	sp, #12
    42d2:	f04f 0e00 	mov.w	lr, #0
    42d6:	f9bd c030 	ldrsh.w	ip, [sp, #48]	; 0x30
    42da:	8885      	ldrh	r5, [r0, #4]
    42dc:	88c6      	ldrh	r6, [r0, #6]
    42de:	46f2      	mov	sl, lr
    42e0:	4607      	mov	r7, r0
    42e2:	f9bd 0034 	ldrsh.w	r0, [sp, #52]	; 0x34
    42e6:	f36c 0a0f 	bfi	sl, ip, #0, #16
    42ea:	f362 0e0f 	bfi	lr, r2, #0, #16
    42ee:	f363 4e1f 	bfi	lr, r3, #16, #16
    42f2:	f360 4a1f 	bfi	sl, r0, #16, #16
    42f6:	2900      	cmp	r1, #0
    42f8:	f000 8094 	beq.w	4424 <uGUI::WindowResize(uGUI::WINDOW*, short, short, short, short)+0x158>
    42fc:	460c      	mov	r4, r1
    42fe:	7a09      	ldrb	r1, [r1, #8]
    4300:	f011 0f02 	tst.w	r1, #2
    4304:	f000 808e 	beq.w	4424 <uGUI::WindowResize(uGUI::WINDOW*, short, short, short, short)+0x158>
    4308:	ea52 0b03 	orrs.w	fp, r2, r3
    430c:	f100 808a 	bmi.w	4424 <uGUI::WindowResize(uGUI::WINDOW*, short, short, short, short)+0x158>
    4310:	3d01      	subs	r5, #1
    4312:	fa1f f885 	uxth.w	r8, r5
    4316:	b22d      	sxth	r5, r5
    4318:	4565      	cmp	r5, ip
    431a:	f2c0 8083 	blt.w	4424 <uGUI::WindowResize(uGUI::WINDOW*, short, short, short, short)+0x158>
    431e:	3e01      	subs	r6, #1
    4320:	fa1f f986 	uxth.w	r9, r6
    4324:	b236      	sxth	r6, r6
    4326:	4286      	cmp	r6, r0
    4328:	db7c      	blt.n	4424 <uGUI::WindowResize(uGUI::WINDOW*, short, short, short, short)+0x158>
    432a:	ebac 0c02 	sub.w	ip, ip, r2
    432e:	fa0f fc8c 	sxth.w	ip, ip
    4332:	f1bc 0f09 	cmp.w	ip, #9
    4336:	dd75      	ble.n	4424 <uGUI::WindowResize(uGUI::WINDOW*, short, short, short, short)+0x158>
    4338:	b280      	uxth	r0, r0
    433a:	b29a      	uxth	r2, r3
    433c:	eba0 0c02 	sub.w	ip, r0, r2
    4340:	fa0f fc8c 	sxth.w	ip, ip
    4344:	f1bc 0f09 	cmp.w	ip, #9
    4348:	dd6c      	ble.n	4424 <uGUI::WindowResize(uGUI::WINDOW*, short, short, short, short)+0x158>
    434a:	0709      	lsls	r1, r1, #28
    434c:	f8c4 e014 	str.w	lr, [r4, #20]
    4350:	f8c4 a018 	str.w	sl, [r4, #24]
    4354:	d502      	bpl.n	435c <uGUI::WindowResize(uGUI::WINDOW*, short, short, short, short)+0x90>
    4356:	6979      	ldr	r1, [r7, #20]
    4358:	42a1      	cmp	r1, r4
    435a:	d003      	beq.n	4364 <uGUI::WindowResize(uGUI::WINDOW*, short, short, short, short)+0x98>
    435c:	2000      	movs	r0, #0
    435e:	b003      	add	sp, #12
    4360:	e8bd 8ff0 	ldmia.w	sp!, {r4, r5, r6, r7, r8, r9, sl, fp, pc}
    4364:	b193      	cbz	r3, 438c <uGUI::WindowResize(uGUI::WINDOW*, short, short, short, short)+0xc0>
    4366:	6838      	ldr	r0, [r7, #0]
    4368:	6c79      	ldr	r1, [r7, #68]	; 0x44
    436a:	6803      	ldr	r3, [r0, #0]
    436c:	3a01      	subs	r2, #1
    436e:	b292      	uxth	r2, r2
    4370:	e9cd 2100 	strd	r2, r1, [sp]
    4374:	2d00      	cmp	r5, #0
    4376:	f04f 0200 	mov.w	r2, #0
    437a:	f8d3 a018 	ldr.w	sl, [r3, #24]
    437e:	bfb5      	itete	lt
    4380:	4641      	movlt	r1, r8
    4382:	4643      	movge	r3, r8
    4384:	2300      	movlt	r3, #0
    4386:	4611      	movge	r1, r2
    4388:	47d0      	blx	sl
    438a:	8b60      	ldrh	r0, [r4, #26]
    438c:	3001      	adds	r0, #1
    438e:	b203      	sxth	r3, r0
    4390:	429e      	cmp	r6, r3
    4392:	b282      	uxth	r2, r0
    4394:	db0c      	blt.n	43b0 <uGUI::WindowResize(uGUI::WINDOW*, short, short, short, short)+0xe4>
    4396:	6c79      	ldr	r1, [r7, #68]	; 0x44
    4398:	6838      	ldr	r0, [r7, #0]
    439a:	6803      	ldr	r3, [r0, #0]
    439c:	e9cd 9100 	strd	r9, r1, [sp]
    43a0:	2d00      	cmp	r5, #0
    43a2:	699e      	ldr	r6, [r3, #24]
    43a4:	bfb5      	itete	lt
    43a6:	4641      	movlt	r1, r8
    43a8:	4643      	movge	r3, r8
    43aa:	2300      	movlt	r3, #0
    43ac:	2100      	movge	r1, #0
    43ae:	47b0      	blx	r6
    43b0:	f9b4 1014 	ldrsh.w	r1, [r4, #20]
    43b4:	b1c1      	cbz	r1, 43e8 <uGUI::WindowResize(uGUI::WINDOW*, short, short, short, short)+0x11c>
    43b6:	3901      	subs	r1, #1
    43b8:	f9b4 2016 	ldrsh.w	r2, [r4, #22]
    43bc:	f9b4 001a 	ldrsh.w	r0, [r4, #26]
    43c0:	f8d7 c044 	ldr.w	ip, [r7, #68]	; 0x44
    43c4:	b28b      	uxth	r3, r1
    43c6:	0409      	lsls	r1, r1, #16
    43c8:	bf4a      	itet	mi
    43ca:	4619      	movmi	r1, r3
    43cc:	2100      	movpl	r1, #0
    43ce:	2300      	movmi	r3, #0
    43d0:	4282      	cmp	r2, r0
    43d2:	dc2e      	bgt.n	4432 <uGUI::WindowResize(uGUI::WINDOW*, short, short, short, short)+0x166>
    43d4:	b286      	uxth	r6, r0
    43d6:	6838      	ldr	r0, [r7, #0]
    43d8:	f8d0 e000 	ldr.w	lr, [r0]
    43dc:	e9cd 6c00 	strd	r6, ip, [sp]
    43e0:	b292      	uxth	r2, r2
    43e2:	f8de 6018 	ldr.w	r6, [lr, #24]
    43e6:	47b0      	blx	r6
    43e8:	8b21      	ldrh	r1, [r4, #24]
    43ea:	3101      	adds	r1, #1
    43ec:	b20b      	sxth	r3, r1
    43ee:	429d      	cmp	r5, r3
    43f0:	b289      	uxth	r1, r1
    43f2:	db10      	blt.n	4416 <uGUI::WindowResize(uGUI::WINDOW*, short, short, short, short)+0x14a>
    43f4:	f9b4 2016 	ldrsh.w	r2, [r4, #22]
    43f8:	f9b4 301a 	ldrsh.w	r3, [r4, #26]
    43fc:	f8d7 c044 	ldr.w	ip, [r7, #68]	; 0x44
    4400:	429a      	cmp	r2, r3
    4402:	dc12      	bgt.n	442a <uGUI::WindowResize(uGUI::WINDOW*, short, short, short, short)+0x15e>
    4404:	6838      	ldr	r0, [r7, #0]
    4406:	b29d      	uxth	r5, r3
    4408:	6806      	ldr	r6, [r0, #0]
    440a:	e9cd 5c00 	strd	r5, ip, [sp]
    440e:	4643      	mov	r3, r8
    4410:	69b5      	ldr	r5, [r6, #24]
    4412:	b292      	uxth	r2, r2
    4414:	47a8      	blx	r5
    4416:	7a23      	ldrb	r3, [r4, #8]
    4418:	f023 0340 	bic.w	r3, r3, #64	; 0x40
    441c:	f043 0320 	orr.w	r3, r3, #32
    4420:	7223      	strb	r3, [r4, #8]
    4422:	e79b      	b.n	435c <uGUI::WindowResize(uGUI::WINDOW*, short, short, short, short)+0x90>
    4424:	f04f 30ff 	mov.w	r0, #4294967295
    4428:	e799      	b.n	435e <uGUI::WindowResize(uGUI::WINDOW*, short, short, short, short)+0x92>
    442a:	4610      	mov	r0, r2
    442c:	461a      	mov	r2, r3
    442e:	4603      	mov	r3, r0
    4430:	e7e8      	b.n	4404 <uGUI::WindowResize(uGUI::WINDOW*, short, short, short, short)+0x138>
    4432:	4616      	mov	r6, r2
    4434:	4602      	mov	r2, r0
    4436:	4630      	mov	r0, r6
    4438:	e7cc      	b.n	43d4 <uGUI::WindowResize(uGUI::WINDOW*, short, short, short, short)+0x108>
    443a:	bf00      	nop

0000443c <uGUI::WindowSetBackColor(uGUI::WINDOW*, unsigned long)>:
    443c:	b141      	cbz	r1, 4450 <uGUI::WindowSetBackColor(uGUI::WINDOW*, unsigned long)+0x14>
    443e:	7a0b      	ldrb	r3, [r1, #8]
    4440:	0798      	lsls	r0, r3, #30
    4442:	d505      	bpl.n	4450 <uGUI::WindowSetBackColor(uGUI::WINDOW*, unsigned long)+0x14>
    4444:	f043 0320 	orr.w	r3, r3, #32
    4448:	610a      	str	r2, [r1, #16]
    444a:	720b      	strb	r3, [r1, #8]
    444c:	2000      	movs	r0, #0
    444e:	4770      	bx	lr
    4450:	f04f 30ff 	mov.w	r0, #4294967295
    4454:	4770      	bx	lr
    4456:	bf00      	nop

00004458 <uGUI::WindowSetTitleTextColor(uGUI::WINDOW*, unsigned long)>:
    4458:	b141      	cbz	r1, 446c <uGUI::WindowSetTitleTextColor(uGUI::WINDOW*, unsigned long)+0x14>
    445a:	7a0b      	ldrb	r3, [r1, #8]
    445c:	0798      	lsls	r0, r3, #30
    445e:	d505      	bpl.n	446c <uGUI::WindowSetTitleTextColor(uGUI::WINDOW*, unsigned long)+0x14>
    4460:	f043 0360 	orr.w	r3, r3, #96	; 0x60
    4464:	62ca      	str	r2, [r1, #44]	; 0x2c
    4466:	720b      	strb	r3, [r1, #8]
    4468:	2000      	movs	r0, #0
    446a:	4770      	bx	lr
    446c:	f04f 30ff 	mov.w	r0, #4294967295
    4470:	4770      	bx	lr
    4472:	bf00      	nop

00004474 <uGUI::WindowSetTitleColor(uGUI::WINDOW*, unsigned long)>:
    4474:	b141      	cbz	r1, 4488 <uGUI::WindowSetTitleColor(uGUI::WINDOW*, unsigned long)+0x14>
    4476:	7a0b      	ldrb	r3, [r1, #8]
    4478:	0798      	lsls	r0, r3, #30
    447a:	d505      	bpl.n	4488 <uGUI::WindowSetTitleColor(uGUI::WINDOW*, unsigned long)+0x14>
    447c:	f043 0360 	orr.w	r3, r3, #96	; 0x60
    4480:	630a      	str	r2, [r1, #48]	; 0x30
    4482:	720b      	strb	r3, [r1, #8]
    4484:	2000      	movs	r0, #0
    4486:	4770      	bx	lr
    4488:	f04f 30ff 	mov.w	r0, #4294967295
    448c:	4770      	bx	lr
    448e:	bf00      	nop

00004490 <uGUI::WindowSetTitleText(uGUI::WINDOW*, char*)>:
    4490:	b141      	cbz	r1, 44a4 <uGUI::WindowSetTitleText(uGUI::WINDOW*, char*)+0x14>
    4492:	7a0b      	ldrb	r3, [r1, #8]
    4494:	0798      	lsls	r0, r3, #30
    4496:	d505      	bpl.n	44a4 <uGUI::WindowSetTitleText(uGUI::WINDOW*, char*)+0x14>
    4498:	f043 0360 	orr.w	r3, r3, #96	; 0x60
    449c:	620a      	str	r2, [r1, #32]
    449e:	720b      	strb	r3, [r1, #8]
    44a0:	2000      	movs	r0, #0
    44a2:	4770      	bx	lr
    44a4:	f04f 30ff 	mov.w	r0, #4294967295
    44a8:	4770      	bx	lr
    44aa:	bf00      	nop

000044ac <uGUI::WindowSetTitleTextFont(uGUI::WINDOW*, uGUI::FONT const*)>:
    44ac:	b1b9      	cbz	r1, 44de <uGUI::WindowSetTitleTextFont(uGUI::WINDOW*, uGUI::FONT const*)+0x32>
    44ae:	7a0b      	ldrb	r3, [r1, #8]
    44b0:	0798      	lsls	r0, r3, #30
    44b2:	d514      	bpl.n	44de <uGUI::WindowSetTitleTextFont(uGUI::WINDOW*, uGUI::FONT const*)+0x32>
    44b4:	f043 0060 	orr.w	r0, r3, #96	; 0x60
    44b8:	7208      	strb	r0, [r1, #8]
    44ba:	624a      	str	r2, [r1, #36]	; 0x24
    44bc:	f9b2 2006 	ldrsh.w	r2, [r2, #6]
    44c0:	f891 c03c 	ldrb.w	ip, [r1, #60]	; 0x3c
    44c4:	1c50      	adds	r0, r2, #1
    44c6:	4584      	cmp	ip, r0
    44c8:	dc07      	bgt.n	44da <uGUI::WindowSetTitleTextFont(uGUI::WINDOW*, uGUI::FONT const*)+0x2e>
    44ca:	f023 0340 	bic.w	r3, r3, #64	; 0x40
    44ce:	3202      	adds	r2, #2
    44d0:	f043 0320 	orr.w	r3, r3, #32
    44d4:	f881 203c 	strb.w	r2, [r1, #60]	; 0x3c
    44d8:	720b      	strb	r3, [r1, #8]
    44da:	2000      	movs	r0, #0
    44dc:	4770      	bx	lr
    44de:	f04f 30ff 	mov.w	r0, #4294967295
    44e2:	4770      	bx	lr

000044e4 <uGUI::WindowSetTitleHeight(uGUI::WINDOW*, unsigned char)>:
    44e4:	b159      	cbz	r1, 44fe <uGUI::WindowSetTitleHeight(uGUI::WINDOW*, unsigned char)+0x1a>
    44e6:	7a0b      	ldrb	r3, [r1, #8]
    44e8:	0798      	lsls	r0, r3, #30
    44ea:	d508      	bpl.n	44fe <uGUI::WindowSetTitleHeight(uGUI::WINDOW*, unsigned char)+0x1a>
    44ec:	f023 0340 	bic.w	r3, r3, #64	; 0x40
    44f0:	f043 0320 	orr.w	r3, r3, #32
    44f4:	f881 203c 	strb.w	r2, [r1, #60]	; 0x3c
    44f8:	720b      	strb	r3, [r1, #8]
    44fa:	2000      	movs	r0, #0
    44fc:	4770      	bx	lr
    44fe:	f04f 30ff 	mov.w	r0, #4294967295
    4502:	4770      	bx	lr

00004504 <uGUI::WindowGetXStart(uGUI::WINDOW*)>:
    4504:	b129      	cbz	r1, 4512 <uGUI::WindowGetXStart(uGUI::WINDOW*)+0xe>
    4506:	7a0b      	ldrb	r3, [r1, #8]
    4508:	079b      	lsls	r3, r3, #30
    450a:	d502      	bpl.n	4512 <uGUI::WindowGetXStart(uGUI::WINDOW*)+0xe>
    450c:	f9b1 0014 	ldrsh.w	r0, [r1, #20]
    4510:	4770      	bx	lr
    4512:	f04f 30ff 	mov.w	r0, #4294967295
    4516:	4770      	bx	lr

00004518 <uGUI::WindowGetYStart(uGUI::WINDOW*)>:
    4518:	b129      	cbz	r1, 4526 <uGUI::WindowGetYStart(uGUI::WINDOW*)+0xe>
    451a:	7a0b      	ldrb	r3, [r1, #8]
    451c:	079b      	lsls	r3, r3, #30
    451e:	d502      	bpl.n	4526 <uGUI::WindowGetYStart(uGUI::WINDOW*)+0xe>
    4520:	f9b1 0016 	ldrsh.w	r0, [r1, #22]
    4524:	4770      	bx	lr
    4526:	f04f 30ff 	mov.w	r0, #4294967295
    452a:	4770      	bx	lr

0000452c <uGUI::WindowGetXEnd(uGUI::WINDOW*)>:
    452c:	b129      	cbz	r1, 453a <uGUI::WindowGetXEnd(uGUI::WINDOW*)+0xe>
    452e:	7a0b      	ldrb	r3, [r1, #8]
    4530:	079b      	lsls	r3, r3, #30
    4532:	d502      	bpl.n	453a <uGUI::WindowGetXEnd(uGUI::WINDOW*)+0xe>
    4534:	f9b1 0018 	ldrsh.w	r0, [r1, #24]
    4538:	4770      	bx	lr
    453a:	f04f 30ff 	mov.w	r0, #4294967295
    453e:	4770      	bx	lr

00004540 <uGUI::WindowGetYEnd(uGUI::WINDOW*)>:
    4540:	b129      	cbz	r1, 454e <uGUI::WindowGetYEnd(uGUI::WINDOW*)+0xe>
    4542:	7a0b      	ldrb	r3, [r1, #8]
    4544:	079b      	lsls	r3, r3, #30
    4546:	d502      	bpl.n	454e <uGUI::WindowGetYEnd(uGUI::WINDOW*)+0xe>
    4548:	f9b1 001a 	ldrsh.w	r0, [r1, #26]
    454c:	4770      	bx	lr
    454e:	f04f 30ff 	mov.w	r0, #4294967295
    4552:	4770      	bx	lr

00004554 <uGUI::_WindowDrawTitle(uGUI::WINDOW*)>:
    4554:	e92d 4ff0 	stmdb	sp!, {r4, r5, r6, r7, r8, r9, sl, fp, lr}
    4558:	2300      	movs	r3, #0
    455a:	b08b      	sub	sp, #44	; 0x2c
    455c:	e9cd 3304 	strd	r3, r3, [sp, #16]
    4560:	2900      	cmp	r1, #0
    4562:	d079      	beq.n	4658 <uGUI::_WindowDrawTitle(uGUI::WINDOW*)+0x104>
    4564:	7a0b      	ldrb	r3, [r1, #8]
    4566:	079a      	lsls	r2, r3, #30
    4568:	460c      	mov	r4, r1
    456a:	d575      	bpl.n	4658 <uGUI::_WindowDrawTitle(uGUI::WINDOW*)+0x104>
    456c:	7f0b      	ldrb	r3, [r1, #28]
    456e:	f9b1 8014 	ldrsh.w	r8, [r1, #20]
    4572:	f9b1 9016 	ldrsh.w	r9, [r1, #22]
    4576:	f9b1 7018 	ldrsh.w	r7, [r1, #24]
    457a:	07db      	lsls	r3, r3, #31
    457c:	4606      	mov	r6, r0
    457e:	d45b      	bmi.n	4638 <uGUI::_WindowDrawTitle(uGUI::WINDOW*)+0xe4>
    4580:	fa1f f589 	uxth.w	r5, r9
    4584:	fa1f fa88 	uxth.w	sl, r8
    4588:	b2bb      	uxth	r3, r7
    458a:	6972      	ldr	r2, [r6, #20]
    458c:	f8d6 b000 	ldr.w	fp, [r6]
    4590:	42a2      	cmp	r2, r4
    4592:	bf0c      	ite	eq
    4594:	e9d4 200b 	ldrdeq	r2, r0, [r4, #44]	; 0x2c
    4598:	e9d4 200d 	ldrdne	r2, r0, [r4, #52]	; 0x34
    459c:	e9cd 2006 	strd	r2, r0, [sp, #24]
    45a0:	f894 203c 	ldrb.w	r2, [r4, #60]	; 0x3c
    45a4:	f8db e000 	ldr.w	lr, [fp]
    45a8:	3a01      	subs	r2, #1
    45aa:	442a      	add	r2, r5
    45ac:	fa1f fc82 	uxth.w	ip, r2
    45b0:	45b8      	cmp	r8, r7
    45b2:	b212      	sxth	r2, r2
    45b4:	bfca      	itet	gt
    45b6:	4619      	movgt	r1, r3
    45b8:	4651      	movle	r1, sl
    45ba:	4653      	movgt	r3, sl
    45bc:	454a      	cmp	r2, r9
    45be:	bfbc      	itt	lt
    45c0:	4662      	movlt	r2, ip
    45c2:	46ac      	movlt	ip, r5
    45c4:	e9cd c000 	strd	ip, r0, [sp]
    45c8:	bfa8      	it	ge
    45ca:	462a      	movge	r2, r5
    45cc:	4658      	mov	r0, fp
    45ce:	f8de b018 	ldr.w	fp, [lr, #24]
    45d2:	47d8      	blx	fp
    45d4:	f894 303c 	ldrb.w	r3, [r4, #60]	; 0x3c
    45d8:	f8ad 9012 	strh.w	r9, [sp, #18]
    45dc:	3b01      	subs	r3, #1
    45de:	442b      	add	r3, r5
    45e0:	f8ad 3016 	strh.w	r3, [sp, #22]
    45e4:	6a63      	ldr	r3, [r4, #36]	; 0x24
    45e6:	9303      	str	r3, [sp, #12]
    45e8:	6a23      	ldr	r3, [r4, #32]
    45ea:	9302      	str	r3, [sp, #8]
    45ec:	f894 302a 	ldrb.w	r3, [r4, #42]	; 0x2a
    45f0:	f88d 3020 	strb.w	r3, [sp, #32]
    45f4:	f994 3028 	ldrsb.w	r3, [r4, #40]	; 0x28
    45f8:	f8ad 3022 	strh.w	r3, [sp, #34]	; 0x22
    45fc:	a902      	add	r1, sp, #8
    45fe:	f994 3029 	ldrsb.w	r3, [r4, #41]	; 0x29
    4602:	f8ad 3024 	strh.w	r3, [sp, #36]	; 0x24
    4606:	4630      	mov	r0, r6
    4608:	f10a 0a03 	add.w	sl, sl, #3
    460c:	f8ad a010 	strh.w	sl, [sp, #16]
    4610:	f8ad 7014 	strh.w	r7, [sp, #20]
    4614:	f7ff f9f4 	bl	3a00 <uGUI::_PutText(uGUI::TEXT*)>
    4618:	f894 203c 	ldrb.w	r2, [r4, #60]	; 0x3c
    461c:	4910      	ldr	r1, [pc, #64]	; (4660 <uGUI::_WindowDrawTitle(uGUI::WINDOW*)+0x10c>)
    461e:	442a      	add	r2, r5
    4620:	b212      	sxth	r2, r2
    4622:	e9cd 2100 	strd	r2, r1, [sp]
    4626:	4630      	mov	r0, r6
    4628:	463b      	mov	r3, r7
    462a:	4641      	mov	r1, r8
    462c:	f7ff f87e 	bl	372c <uGUI::DrawLine(short, short, short, short, unsigned long)>
    4630:	2000      	movs	r0, #0
    4632:	b00b      	add	sp, #44	; 0x2c
    4634:	e8bd 8ff0 	ldmia.w	sp!, {r4, r5, r6, r7, r8, r9, sl, fp, pc}
    4638:	f108 0803 	add.w	r8, r8, #3
    463c:	f109 0903 	add.w	r9, r9, #3
    4640:	3f03      	subs	r7, #3
    4642:	fa1f fa88 	uxth.w	sl, r8
    4646:	fa1f f589 	uxth.w	r5, r9
    464a:	b2bb      	uxth	r3, r7
    464c:	fa0f f888 	sxth.w	r8, r8
    4650:	fa0f f989 	sxth.w	r9, r9
    4654:	b23f      	sxth	r7, r7
    4656:	e798      	b.n	458a <uGUI::_WindowDrawTitle(uGUI::WINDOW*)+0x36>
    4658:	f04f 30ff 	mov.w	r0, #4294967295
    465c:	e7e9      	b.n	4632 <uGUI::_WindowDrawTitle(uGUI::WINDOW*)+0xde>
    465e:	bf00      	nop
    4660:	00a0a0a0 	.word	0x00a0a0a0

00004664 <uGUI::_WindowUpdate(uGUI::WINDOW*)>:
    4664:	e92d 47f0 	stmdb	sp!, {r4, r5, r6, r7, r8, r9, sl, lr}
    4668:	7a0b      	ldrb	r3, [r1, #8]
    466a:	f9b1 6014 	ldrsh.w	r6, [r1, #20]
    466e:	f9b1 9016 	ldrsh.w	r9, [r1, #22]
    4672:	f9b1 8018 	ldrsh.w	r8, [r1, #24]
    4676:	460c      	mov	r4, r1
    4678:	071a      	lsls	r2, r3, #28
    467a:	f023 0120 	bic.w	r1, r3, #32
    467e:	f9b4 501a 	ldrsh.w	r5, [r4, #26]
    4682:	7221      	strb	r1, [r4, #8]
    4684:	b082      	sub	sp, #8
    4686:	4607      	mov	r7, r0
    4688:	d54e      	bpl.n	4728 <uGUI::_WindowUpdate(uGUI::WINDOW*)+0xc4>
    468a:	7f22      	ldrb	r2, [r4, #28]
    468c:	07d1      	lsls	r1, r2, #31
    468e:	d431      	bmi.n	46f4 <uGUI::_WindowUpdate(uGUI::WINDOW*)+0x90>
    4690:	fa1f fa89 	uxth.w	sl, r9
    4694:	0791      	lsls	r1, r2, #30
    4696:	d461      	bmi.n	475c <uGUI::_WindowUpdate(uGUI::WINDOW*)+0xf8>
    4698:	4546      	cmp	r6, r8
    469a:	f8d4 c010 	ldr.w	ip, [r4, #16]
    469e:	dd02      	ble.n	46a6 <uGUI::_WindowUpdate(uGUI::WINDOW*)+0x42>
    46a0:	4633      	mov	r3, r6
    46a2:	4646      	mov	r6, r8
    46a4:	4698      	mov	r8, r3
    46a6:	45a9      	cmp	r9, r5
    46a8:	6838      	ldr	r0, [r7, #0]
    46aa:	bfca      	itet	gt
    46ac:	b2aa      	uxthgt	r2, r5
    46ae:	b2ad      	uxthle	r5, r5
    46b0:	4655      	movgt	r5, sl
    46b2:	b2b1      	uxth	r1, r6
    46b4:	6806      	ldr	r6, [r0, #0]
    46b6:	e9cd 5c00 	strd	r5, ip, [sp]
    46ba:	bfd8      	it	le
    46bc:	4652      	movle	r2, sl
    46be:	69b5      	ldr	r5, [r6, #24]
    46c0:	fa1f f388 	uxth.w	r3, r8
    46c4:	47a8      	blx	r5
    46c6:	7825      	ldrb	r5, [r4, #0]
    46c8:	b18d      	cbz	r5, 46ee <uGUI::_WindowUpdate(uGUI::WINDOW*)+0x8a>
    46ca:	016d      	lsls	r5, r5, #5
    46cc:	2300      	movs	r3, #0
    46ce:	6862      	ldr	r2, [r4, #4]
    46d0:	5cd1      	ldrb	r1, [r2, r3]
    46d2:	f001 0003 	and.w	r0, r1, #3
    46d6:	2802      	cmp	r0, #2
    46d8:	441a      	add	r2, r3
    46da:	f103 0320 	add.w	r3, r3, #32
    46de:	d104      	bne.n	46ea <uGUI::_WindowUpdate(uGUI::WINDOW*)+0x86>
    46e0:	0708      	lsls	r0, r1, #28
    46e2:	bf44      	itt	mi
    46e4:	f041 0160 	orrmi.w	r1, r1, #96	; 0x60
    46e8:	7011      	strbmi	r1, [r2, #0]
    46ea:	429d      	cmp	r5, r3
    46ec:	d1ef      	bne.n	46ce <uGUI::_WindowUpdate(uGUI::WINDOW*)+0x6a>
    46ee:	b002      	add	sp, #8
    46f0:	e8bd 87f0 	ldmia.w	sp!, {r4, r5, r6, r7, r8, r9, sl, pc}
    46f4:	065b      	lsls	r3, r3, #25
    46f6:	d4cb      	bmi.n	4690 <uGUI::_WindowUpdate(uGUI::WINDOW*)+0x2c>
    46f8:	4b23      	ldr	r3, [pc, #140]	; (4788 <uGUI::_WindowUpdate(uGUI::WINDOW*)+0x124>)
    46fa:	9500      	str	r5, [sp, #0]
    46fc:	464a      	mov	r2, r9
    46fe:	9301      	str	r3, [sp, #4]
    4700:	4631      	mov	r1, r6
    4702:	4643      	mov	r3, r8
    4704:	f109 0903 	add.w	r9, r9, #3
    4708:	3603      	adds	r6, #3
    470a:	f1a8 0803 	sub.w	r8, r8, #3
    470e:	3d03      	subs	r5, #3
    4710:	f7ff fb7a 	bl	3e08 <uGUI::_DrawObjectFrame(short, short, short, short, unsigned long*)>
    4714:	fa1f fa89 	uxth.w	sl, r9
    4718:	7f22      	ldrb	r2, [r4, #28]
    471a:	b236      	sxth	r6, r6
    471c:	fa0f f888 	sxth.w	r8, r8
    4720:	b22d      	sxth	r5, r5
    4722:	fa0f f989 	sxth.w	r9, r9
    4726:	e7b5      	b.n	4694 <uGUI::_WindowUpdate(uGUI::WINDOW*)+0x30>
    4728:	4546      	cmp	r6, r8
    472a:	bfca      	itet	gt
    472c:	4641      	movgt	r1, r8
    472e:	4631      	movle	r1, r6
    4730:	46b0      	movgt	r8, r6
    4732:	42ae      	cmp	r6, r5
    4734:	f8d0 c044 	ldr.w	ip, [r0, #68]	; 0x44
    4738:	dd02      	ble.n	4740 <uGUI::_WindowUpdate(uGUI::WINDOW*)+0xdc>
    473a:	4633      	mov	r3, r6
    473c:	462e      	mov	r6, r5
    473e:	461d      	mov	r5, r3
    4740:	6838      	ldr	r0, [r7, #0]
    4742:	b2ad      	uxth	r5, r5
    4744:	6804      	ldr	r4, [r0, #0]
    4746:	e9cd 5c00 	strd	r5, ip, [sp]
    474a:	fa1f f388 	uxth.w	r3, r8
    474e:	69a4      	ldr	r4, [r4, #24]
    4750:	b2b2      	uxth	r2, r6
    4752:	b289      	uxth	r1, r1
    4754:	47a0      	blx	r4
    4756:	b002      	add	sp, #8
    4758:	e8bd 87f0 	ldmia.w	sp!, {r4, r5, r6, r7, r8, r9, sl, pc}
    475c:	4621      	mov	r1, r4
    475e:	4638      	mov	r0, r7
    4760:	f7ff fef8 	bl	4554 <uGUI::_WindowDrawTitle(uGUI::WINDOW*)>
    4764:	7a23      	ldrb	r3, [r4, #8]
    4766:	f894 903c 	ldrb.w	r9, [r4, #60]	; 0x3c
    476a:	065a      	lsls	r2, r3, #25
    476c:	d407      	bmi.n	477e <uGUI::_WindowUpdate(uGUI::WINDOW*)+0x11a>
    476e:	f109 0901 	add.w	r9, r9, #1
    4772:	44d1      	add	r9, sl
    4774:	fa1f fa89 	uxth.w	sl, r9
    4778:	fa0f f989 	sxth.w	r9, r9
    477c:	e78c      	b.n	4698 <uGUI::_WindowUpdate(uGUI::WINDOW*)+0x34>
    477e:	f023 0340 	bic.w	r3, r3, #64	; 0x40
    4782:	7223      	strb	r3, [r4, #8]
    4784:	e7b3      	b.n	46ee <uGUI::_WindowUpdate(uGUI::WINDOW*)+0x8a>
    4786:	bf00      	nop
    4788:	0000ef28 	.word	0x0000ef28

0000478c <uGUI::Update()>:
    478c:	e92d 43f0 	stmdb	sp!, {r4, r5, r6, r7, r8, r9, lr}
    4790:	f890 3048 	ldrb.w	r3, [r0, #72]	; 0x48
    4794:	07dd      	lsls	r5, r3, #31
    4796:	b083      	sub	sp, #12
    4798:	4604      	mov	r4, r0
    479a:	d505      	bpl.n	47a8 <uGUI::Update()+0x1c>
    479c:	f890 3048 	ldrb.w	r3, [r0, #72]	; 0x48
    47a0:	f003 03fe 	and.w	r3, r3, #254	; 0xfe
    47a4:	f880 3048 	strb.w	r3, [r0, #72]	; 0x48
    47a8:	e9d4 3504 	ldrd	r3, r5, [r4, #16]
    47ac:	42ab      	cmp	r3, r5
    47ae:	d023      	beq.n	47f8 <uGUI::Update()+0x6c>
    47b0:	b313      	cbz	r3, 47f8 <uGUI::Update()+0x6c>
    47b2:	e9c4 3505 	strd	r3, r5, [r4, #20]
    47b6:	7f2a      	ldrb	r2, [r5, #28]
    47b8:	0790      	lsls	r0, r2, #30
    47ba:	d513      	bpl.n	47e4 <uGUI::Update()+0x58>
    47bc:	7a2a      	ldrb	r2, [r5, #8]
    47be:	0711      	lsls	r1, r2, #28
    47c0:	d510      	bpl.n	47e4 <uGUI::Update()+0x58>
    47c2:	f9b5 1014 	ldrsh.w	r1, [r5, #20]
    47c6:	f9b3 2014 	ldrsh.w	r2, [r3, #20]
    47ca:	4291      	cmp	r1, r2
    47cc:	d105      	bne.n	47da <uGUI::Update()+0x4e>
    47ce:	f9b5 1018 	ldrsh.w	r1, [r5, #24]
    47d2:	f9b3 2018 	ldrsh.w	r2, [r3, #24]
    47d6:	4291      	cmp	r1, r2
    47d8:	d050      	beq.n	487c <uGUI::Update()+0xf0>
    47da:	4629      	mov	r1, r5
    47dc:	4620      	mov	r0, r4
    47de:	f7ff feb9 	bl	4554 <uGUI::_WindowDrawTitle(uGUI::WINDOW*)>
    47e2:	6963      	ldr	r3, [r4, #20]
    47e4:	7a1a      	ldrb	r2, [r3, #8]
    47e6:	f022 0240 	bic.w	r2, r2, #64	; 0x40
    47ea:	721a      	strb	r2, [r3, #8]
    47ec:	6962      	ldr	r2, [r4, #20]
    47ee:	7a13      	ldrb	r3, [r2, #8]
    47f0:	f043 0328 	orr.w	r3, r3, #40	; 0x28
    47f4:	7213      	strb	r3, [r2, #8]
    47f6:	6965      	ldr	r5, [r4, #20]
    47f8:	b125      	cbz	r5, 4804 <uGUI::Update()+0x78>
    47fa:	7a2b      	ldrb	r3, [r5, #8]
    47fc:	069a      	lsls	r2, r3, #26
    47fe:	d435      	bmi.n	486c <uGUI::Update()+0xe0>
    4800:	071b      	lsls	r3, r3, #28
    4802:	d402      	bmi.n	480a <uGUI::Update()+0x7e>
    4804:	b003      	add	sp, #12
    4806:	e8bd 83f0 	ldmia.w	sp!, {r4, r5, r6, r7, r8, r9, pc}
    480a:	4620      	mov	r0, r4
    480c:	4629      	mov	r1, r5
    480e:	f7ff fa67 	bl	3ce0 <uGUI::_ProcessTouchData(uGUI::WINDOW*)>
    4812:	f8df 9084 	ldr.w	r9, [pc, #132]	; 4898 <uGUI::Update()+0x10c>
    4816:	4620      	mov	r0, r4
    4818:	f7ff fac6 	bl	3da8 <uGUI::_UpdateObjects(uGUI::WINDOW*)>
    481c:	2400      	movs	r4, #0
    481e:	2302      	movs	r3, #2
    4820:	f8c9 4004 	str.w	r4, [r9, #4]
    4824:	f889 3000 	strb.w	r3, [r9]
    4828:	782b      	ldrb	r3, [r5, #0]
    482a:	2b00      	cmp	r3, #0
    482c:	d0ea      	beq.n	4804 <uGUI::Update()+0x78>
    482e:	ea4f 1843 	mov.w	r8, r3, lsl #5
    4832:	ae01      	add	r6, sp, #4
    4834:	4627      	mov	r7, r4
    4836:	e001      	b.n	483c <uGUI::Update()+0xb0>
    4838:	4544      	cmp	r4, r8
    483a:	d0e3      	beq.n	4804 <uGUI::Update()+0x78>
    483c:	686b      	ldr	r3, [r5, #4]
    483e:	191a      	adds	r2, r3, r4
    4840:	9201      	str	r2, [sp, #4]
    4842:	5d1b      	ldrb	r3, [r3, r4]
    4844:	f003 0303 	and.w	r3, r3, #3
    4848:	2b02      	cmp	r3, #2
    484a:	f104 0420 	add.w	r4, r4, #32
    484e:	d1f3      	bne.n	4838 <uGUI::Update()+0xac>
    4850:	7e93      	ldrb	r3, [r2, #26]
    4852:	2b00      	cmp	r3, #0
    4854:	d0f0      	beq.n	4838 <uGUI::Update()+0xac>
    4856:	8b13      	ldrh	r3, [r2, #24]
    4858:	f8a9 3001 	strh.w	r3, [r9, #1]
    485c:	f8c9 6004 	str.w	r6, [r9, #4]
    4860:	6c2b      	ldr	r3, [r5, #64]	; 0x40
    4862:	4648      	mov	r0, r9
    4864:	4798      	blx	r3
    4866:	9b01      	ldr	r3, [sp, #4]
    4868:	769f      	strb	r7, [r3, #26]
    486a:	e7e5      	b.n	4838 <uGUI::Update()+0xac>
    486c:	4629      	mov	r1, r5
    486e:	4620      	mov	r0, r4
    4870:	f7ff fef8 	bl	4664 <uGUI::_WindowUpdate(uGUI::WINDOW*)>
    4874:	7a2b      	ldrb	r3, [r5, #8]
    4876:	071b      	lsls	r3, r3, #28
    4878:	d5c4      	bpl.n	4804 <uGUI::Update()+0x78>
    487a:	e7c6      	b.n	480a <uGUI::Update()+0x7e>
    487c:	f9b5 1016 	ldrsh.w	r1, [r5, #22]
    4880:	f9b3 2016 	ldrsh.w	r2, [r3, #22]
    4884:	4291      	cmp	r1, r2
    4886:	d1a8      	bne.n	47da <uGUI::Update()+0x4e>
    4888:	f9b5 101a 	ldrsh.w	r1, [r5, #26]
    488c:	f9b3 201a 	ldrsh.w	r2, [r3, #26]
    4890:	4291      	cmp	r1, r2
    4892:	d1a2      	bne.n	47da <uGUI::Update()+0x4e>
    4894:	e7a6      	b.n	47e4 <uGUI::Update()+0x58>
    4896:	bf00      	nop
    4898:	200006a0 	.word	0x200006a0

0000489c <uGUI::_WindowClear(uGUI::WINDOW*)>:
    489c:	2900      	cmp	r1, #0
    489e:	d039      	beq.n	4914 <uGUI::_WindowClear(uGUI::WINDOW*)+0x78>
    48a0:	b5f0      	push	{r4, r5, r6, r7, lr}
    48a2:	7a0b      	ldrb	r3, [r1, #8]
    48a4:	071d      	lsls	r5, r3, #28
    48a6:	b083      	sub	sp, #12
    48a8:	460c      	mov	r4, r1
    48aa:	d530      	bpl.n	490e <uGUI::_WindowClear(uGUI::WINDOW*)+0x72>
    48ac:	f023 0308 	bic.w	r3, r3, #8
    48b0:	f9b1 1014 	ldrsh.w	r1, [r1, #20]
    48b4:	7223      	strb	r3, [r4, #8]
    48b6:	f9b4 3018 	ldrsh.w	r3, [r4, #24]
    48ba:	f9b4 2016 	ldrsh.w	r2, [r4, #22]
    48be:	f9b4 c01a 	ldrsh.w	ip, [r4, #26]
    48c2:	f8d0 e044 	ldr.w	lr, [r0, #68]	; 0x44
    48c6:	4299      	cmp	r1, r3
    48c8:	4606      	mov	r6, r0
    48ca:	dd02      	ble.n	48d2 <uGUI::_WindowClear(uGUI::WINDOW*)+0x36>
    48cc:	4608      	mov	r0, r1
    48ce:	4619      	mov	r1, r3
    48d0:	4603      	mov	r3, r0
    48d2:	4562      	cmp	r2, ip
    48d4:	dd02      	ble.n	48dc <uGUI::_WindowClear(uGUI::WINDOW*)+0x40>
    48d6:	4610      	mov	r0, r2
    48d8:	4662      	mov	r2, ip
    48da:	4684      	mov	ip, r0
    48dc:	6830      	ldr	r0, [r6, #0]
    48de:	fa1f f58c 	uxth.w	r5, ip
    48e2:	6807      	ldr	r7, [r0, #0]
    48e4:	e9cd 5e00 	strd	r5, lr, [sp]
    48e8:	b29b      	uxth	r3, r3
    48ea:	69bd      	ldr	r5, [r7, #24]
    48ec:	b292      	uxth	r2, r2
    48ee:	b289      	uxth	r1, r1
    48f0:	47a8      	blx	r5
    48f2:	6973      	ldr	r3, [r6, #20]
    48f4:	42a3      	cmp	r3, r4
    48f6:	d00a      	beq.n	490e <uGUI::_WindowClear(uGUI::WINDOW*)+0x72>
    48f8:	7a1a      	ldrb	r2, [r3, #8]
    48fa:	0711      	lsls	r1, r2, #28
    48fc:	d507      	bpl.n	490e <uGUI::_WindowClear(uGUI::WINDOW*)+0x72>
    48fe:	f022 0240 	bic.w	r2, r2, #64	; 0x40
    4902:	721a      	strb	r2, [r3, #8]
    4904:	6972      	ldr	r2, [r6, #20]
    4906:	7a13      	ldrb	r3, [r2, #8]
    4908:	f043 0320 	orr.w	r3, r3, #32
    490c:	7213      	strb	r3, [r2, #8]
    490e:	2000      	movs	r0, #0
    4910:	b003      	add	sp, #12
    4912:	bdf0      	pop	{r4, r5, r6, r7, pc}
    4914:	f04f 30ff 	mov.w	r0, #4294967295
    4918:	4770      	bx	lr
    491a:	bf00      	nop

0000491c <uGUI::WindowHide(uGUI::WINDOW*)>:
    491c:	2900      	cmp	r1, #0
    491e:	d06c      	beq.n	49fa <uGUI::WindowHide(uGUI::WINDOW*)+0xde>
    4920:	b5f0      	push	{r4, r5, r6, r7, lr}
    4922:	6943      	ldr	r3, [r0, #20]
    4924:	428b      	cmp	r3, r1
    4926:	b083      	sub	sp, #12
    4928:	4605      	mov	r5, r0
    492a:	460c      	mov	r4, r1
    492c:	d032      	beq.n	4994 <uGUI::WindowHide(uGUI::WINDOW*)+0x78>
    492e:	7a0b      	ldrb	r3, [r1, #8]
    4930:	0718      	lsls	r0, r3, #28
    4932:	d558      	bpl.n	49e6 <uGUI::WindowHide(uGUI::WINDOW*)+0xca>
    4934:	f023 0308 	bic.w	r3, r3, #8
    4938:	f9b1 1014 	ldrsh.w	r1, [r1, #20]
    493c:	7223      	strb	r3, [r4, #8]
    493e:	f9b4 3018 	ldrsh.w	r3, [r4, #24]
    4942:	f9b4 2016 	ldrsh.w	r2, [r4, #22]
    4946:	f9b4 001a 	ldrsh.w	r0, [r4, #26]
    494a:	f8d5 c044 	ldr.w	ip, [r5, #68]	; 0x44
    494e:	4299      	cmp	r1, r3
    4950:	dd02      	ble.n	4958 <uGUI::WindowHide(uGUI::WINDOW*)+0x3c>
    4952:	460e      	mov	r6, r1
    4954:	4619      	mov	r1, r3
    4956:	4633      	mov	r3, r6
    4958:	4282      	cmp	r2, r0
    495a:	dd02      	ble.n	4962 <uGUI::WindowHide(uGUI::WINDOW*)+0x46>
    495c:	4616      	mov	r6, r2
    495e:	4602      	mov	r2, r0
    4960:	4630      	mov	r0, r6
    4962:	b286      	uxth	r6, r0
    4964:	6828      	ldr	r0, [r5, #0]
    4966:	6807      	ldr	r7, [r0, #0]
    4968:	e9cd 6c00 	strd	r6, ip, [sp]
    496c:	b29b      	uxth	r3, r3
    496e:	69be      	ldr	r6, [r7, #24]
    4970:	b292      	uxth	r2, r2
    4972:	b289      	uxth	r1, r1
    4974:	47b0      	blx	r6
    4976:	696b      	ldr	r3, [r5, #20]
    4978:	429c      	cmp	r4, r3
    497a:	d034      	beq.n	49e6 <uGUI::WindowHide(uGUI::WINDOW*)+0xca>
    497c:	7a1a      	ldrb	r2, [r3, #8]
    497e:	0711      	lsls	r1, r2, #28
    4980:	d531      	bpl.n	49e6 <uGUI::WindowHide(uGUI::WINDOW*)+0xca>
    4982:	f022 0240 	bic.w	r2, r2, #64	; 0x40
    4986:	721a      	strb	r2, [r3, #8]
    4988:	696a      	ldr	r2, [r5, #20]
    498a:	7a13      	ldrb	r3, [r2, #8]
    498c:	f043 0320 	orr.w	r3, r3, #32
    4990:	7213      	strb	r3, [r2, #8]
    4992:	e028      	b.n	49e6 <uGUI::WindowHide(uGUI::WINDOW*)+0xca>
    4994:	6983      	ldr	r3, [r0, #24]
    4996:	b1eb      	cbz	r3, 49d4 <uGUI::WindowHide(uGUI::WINDOW*)+0xb8>
    4998:	7a1a      	ldrb	r2, [r3, #8]
    499a:	0716      	lsls	r6, r2, #28
    499c:	d51a      	bpl.n	49d4 <uGUI::WindowHide(uGUI::WINDOW*)+0xb8>
    499e:	f9b3 1014 	ldrsh.w	r1, [r3, #20]
    49a2:	f9b4 2014 	ldrsh.w	r2, [r4, #20]
    49a6:	4291      	cmp	r1, r2
    49a8:	dc0b      	bgt.n	49c2 <uGUI::WindowHide(uGUI::WINDOW*)+0xa6>
    49aa:	f9b3 1016 	ldrsh.w	r1, [r3, #22]
    49ae:	f9b4 2016 	ldrsh.w	r2, [r4, #22]
    49b2:	4291      	cmp	r1, r2
    49b4:	dc05      	bgt.n	49c2 <uGUI::WindowHide(uGUI::WINDOW*)+0xa6>
    49b6:	f9b3 1018 	ldrsh.w	r1, [r3, #24]
    49ba:	f9b4 2018 	ldrsh.w	r2, [r4, #24]
    49be:	4291      	cmp	r1, r2
    49c0:	da14      	bge.n	49ec <uGUI::WindowHide(uGUI::WINDOW*)+0xd0>
    49c2:	4621      	mov	r1, r4
    49c4:	4628      	mov	r0, r5
    49c6:	f7ff ff69 	bl	489c <uGUI::_WindowClear(uGUI::WINDOW*)>
    49ca:	69ab      	ldr	r3, [r5, #24]
    49cc:	612b      	str	r3, [r5, #16]
    49ce:	2000      	movs	r0, #0
    49d0:	b003      	add	sp, #12
    49d2:	bdf0      	pop	{r4, r5, r6, r7, pc}
    49d4:	7a23      	ldrb	r3, [r4, #8]
    49d6:	f023 0308 	bic.w	r3, r3, #8
    49da:	7223      	strb	r3, [r4, #8]
    49dc:	696a      	ldr	r2, [r5, #20]
    49de:	7a13      	ldrb	r3, [r2, #8]
    49e0:	f043 0320 	orr.w	r3, r3, #32
    49e4:	7213      	strb	r3, [r2, #8]
    49e6:	2000      	movs	r0, #0
    49e8:	b003      	add	sp, #12
    49ea:	bdf0      	pop	{r4, r5, r6, r7, pc}
    49ec:	f9b3 101a 	ldrsh.w	r1, [r3, #26]
    49f0:	f9b4 201a 	ldrsh.w	r2, [r4, #26]
    49f4:	4291      	cmp	r1, r2
    49f6:	dae9      	bge.n	49cc <uGUI::WindowHide(uGUI::WINDOW*)+0xb0>
    49f8:	e7e3      	b.n	49c2 <uGUI::WindowHide(uGUI::WINDOW*)+0xa6>
    49fa:	f04f 30ff 	mov.w	r0, #4294967295
    49fe:	4770      	bx	lr

00004a00 <uGUI::ButtonCreate(uGUI::WINDOW*, uGUI::BUTTON*, unsigned char, short, short, short, short)>:
    4a00:	e92d 41f0 	stmdb	sp!, {r4, r5, r6, r7, r8, lr}
    4a04:	7808      	ldrb	r0, [r1, #0]
    4a06:	f9bd 7018 	ldrsh.w	r7, [sp, #24]
    4a0a:	f9bd 601c 	ldrsh.w	r6, [sp, #28]
    4a0e:	f9bd 5020 	ldrsh.w	r5, [sp, #32]
    4a12:	f9bd 4024 	ldrsh.w	r4, [sp, #36]	; 0x24
    4a16:	f8d1 c004 	ldr.w	ip, [r1, #4]
    4a1a:	2800      	cmp	r0, #0
    4a1c:	d041      	beq.n	4aa2 <uGUI::ButtonCreate(uGUI::WINDOW*, uGUI::BUTTON*, unsigned char, short, short, short, short)+0xa2>
    4a1e:	4698      	mov	r8, r3
    4a20:	eb0c 1e40 	add.w	lr, ip, r0, lsl #5
    4a24:	e003      	b.n	4a2e <uGUI::ButtonCreate(uGUI::WINDOW*, uGUI::BUTTON*, unsigned char, short, short, short, short)+0x2e>
    4a26:	f10c 0c20 	add.w	ip, ip, #32
    4a2a:	45f4      	cmp	ip, lr
    4a2c:	d039      	beq.n	4aa2 <uGUI::ButtonCreate(uGUI::WINDOW*, uGUI::BUTTON*, unsigned char, short, short, short, short)+0xa2>
    4a2e:	f89c 0000 	ldrb.w	r0, [ip]
    4a32:	f000 0003 	and.w	r0, r0, #3
    4a36:	2803      	cmp	r0, #3
    4a38:	d1f5      	bne.n	4a26 <uGUI::ButtonCreate(uGUI::WINDOW*, uGUI::BUTTON*, unsigned char, short, short, short, short)+0x26>
    4a3a:	2000      	movs	r0, #0
    4a3c:	7010      	strb	r0, [r2, #0]
    4a3e:	690b      	ldr	r3, [r1, #16]
    4a40:	6093      	str	r3, [r2, #8]
    4a42:	68cb      	ldr	r3, [r1, #12]
    4a44:	6053      	str	r3, [r2, #4]
    4a46:	690b      	ldr	r3, [r1, #16]
    4a48:	6113      	str	r3, [r2, #16]
    4a4a:	68c9      	ldr	r1, [r1, #12]
    4a4c:	60d1      	str	r1, [r2, #12]
    4a4e:	f8df e060 	ldr.w	lr, [pc, #96]	; 4ab0 <uGUI::ButtonCreate(uGUI::WINDOW*, uGUI::BUTTON*, unsigned char, short, short, short, short)+0xb0>
    4a52:	6150      	str	r0, [r2, #20]
    4a54:	2101      	movs	r1, #1
    4a56:	7051      	strb	r1, [r2, #1]
    4a58:	f8c2 e018 	str.w	lr, [r2, #24]
    4a5c:	f88c 1018 	strb.w	r1, [ip, #24]
    4a60:	f04f 31ff 	mov.w	r1, #4294967295
    4a64:	e9cc 1102 	strd	r1, r1, [ip, #8]
    4a68:	f89c 1000 	ldrb.w	r1, [ip]
    4a6c:	f8ac 7010 	strh.w	r7, [ip, #16]
    4a70:	f021 0301 	bic.w	r3, r1, #1
    4a74:	f063 0335 	orn	r3, r3, #53	; 0x35
    4a78:	f88c 3000 	strb.w	r3, [ip]
    4a7c:	4b0b      	ldr	r3, [pc, #44]	; (4aac <uGUI::ButtonCreate(uGUI::WINDOW*, uGUI::BUTTON*, unsigned char, short, short, short, short)+0xac>)
    4a7e:	f8ac 6012 	strh.w	r6, [ip, #18]
    4a82:	f8ac 5014 	strh.w	r5, [ip, #20]
    4a86:	f88c 0001 	strb.w	r0, [ip, #1]
    4a8a:	f88c 001a 	strb.w	r0, [ip, #26]
    4a8e:	f8ac 4016 	strh.w	r4, [ip, #22]
    4a92:	f88c 8019 	strb.w	r8, [ip, #25]
    4a96:	f8cc 201c 	str.w	r2, [ip, #28]
    4a9a:	f8cc 3004 	str.w	r3, [ip, #4]
    4a9e:	e8bd 81f0 	ldmia.w	sp!, {r4, r5, r6, r7, r8, pc}
    4aa2:	f04f 30ff 	mov.w	r0, #4294967295
    4aa6:	e8bd 81f0 	ldmia.w	sp!, {r4, r5, r6, r7, r8, pc}
    4aaa:	bf00      	nop
    4aac:	00003f65 	.word	0x00003f65
    4ab0:	0000eec4 	.word	0x0000eec4

00004ab4 <uGUI::ButtonSetBackColor(uGUI::WINDOW*, unsigned char, unsigned long)>:
    4ab4:	7808      	ldrb	r0, [r1, #0]
    4ab6:	6849      	ldr	r1, [r1, #4]
    4ab8:	b1c0      	cbz	r0, 4aec <uGUI::ButtonSetBackColor(uGUI::WINDOW*, unsigned char, unsigned long)+0x38>
    4aba:	eb01 1c40 	add.w	ip, r1, r0, lsl #5
    4abe:	e002      	b.n	4ac6 <uGUI::ButtonSetBackColor(uGUI::WINDOW*, unsigned char, unsigned long)+0x12>
    4ac0:	3120      	adds	r1, #32
    4ac2:	4561      	cmp	r1, ip
    4ac4:	d012      	beq.n	4aec <uGUI::ButtonSetBackColor(uGUI::WINDOW*, unsigned char, unsigned long)+0x38>
    4ac6:	7808      	ldrb	r0, [r1, #0]
    4ac8:	f000 0003 	and.w	r0, r0, #3
    4acc:	2802      	cmp	r0, #2
    4ace:	d1f7      	bne.n	4ac0 <uGUI::ButtonSetBackColor(uGUI::WINDOW*, unsigned char, unsigned long)+0xc>
    4ad0:	7e08      	ldrb	r0, [r1, #24]
    4ad2:	2801      	cmp	r0, #1
    4ad4:	d1f4      	bne.n	4ac0 <uGUI::ButtonSetBackColor(uGUI::WINDOW*, unsigned char, unsigned long)+0xc>
    4ad6:	7e48      	ldrb	r0, [r1, #25]
    4ad8:	4290      	cmp	r0, r2
    4ada:	d1f1      	bne.n	4ac0 <uGUI::ButtonSetBackColor(uGUI::WINDOW*, unsigned char, unsigned long)+0xc>
    4adc:	69ca      	ldr	r2, [r1, #28]
    4ade:	6093      	str	r3, [r2, #8]
    4ae0:	780b      	ldrb	r3, [r1, #0]
    4ae2:	f043 0360 	orr.w	r3, r3, #96	; 0x60
    4ae6:	2000      	movs	r0, #0
    4ae8:	700b      	strb	r3, [r1, #0]
    4aea:	4770      	bx	lr
    4aec:	f04f 30ff 	mov.w	r0, #4294967295
    4af0:	4770      	bx	lr
    4af2:	bf00      	nop

00004af4 <uGUI::ButtonSetText(uGUI::WINDOW*, unsigned char, char*)>:
    4af4:	7808      	ldrb	r0, [r1, #0]
    4af6:	6849      	ldr	r1, [r1, #4]
    4af8:	b1c0      	cbz	r0, 4b2c <uGUI::ButtonSetText(uGUI::WINDOW*, unsigned char, char*)+0x38>
    4afa:	eb01 1c40 	add.w	ip, r1, r0, lsl #5
    4afe:	e002      	b.n	4b06 <uGUI::ButtonSetText(uGUI::WINDOW*, unsigned char, char*)+0x12>
    4b00:	3120      	adds	r1, #32
    4b02:	4561      	cmp	r1, ip
    4b04:	d012      	beq.n	4b2c <uGUI::ButtonSetText(uGUI::WINDOW*, unsigned char, char*)+0x38>
    4b06:	7808      	ldrb	r0, [r1, #0]
    4b08:	f000 0003 	and.w	r0, r0, #3
    4b0c:	2802      	cmp	r0, #2
    4b0e:	d1f7      	bne.n	4b00 <uGUI::ButtonSetText(uGUI::WINDOW*, unsigned char, char*)+0xc>
    4b10:	7e08      	ldrb	r0, [r1, #24]
    4b12:	2801      	cmp	r0, #1
    4b14:	d1f4      	bne.n	4b00 <uGUI::ButtonSetText(uGUI::WINDOW*, unsigned char, char*)+0xc>
    4b16:	7e48      	ldrb	r0, [r1, #25]
    4b18:	4290      	cmp	r0, r2
    4b1a:	d1f1      	bne.n	4b00 <uGUI::ButtonSetText(uGUI::WINDOW*, unsigned char, char*)+0xc>
    4b1c:	69ca      	ldr	r2, [r1, #28]
    4b1e:	6193      	str	r3, [r2, #24]
    4b20:	780b      	ldrb	r3, [r1, #0]
    4b22:	f043 0360 	orr.w	r3, r3, #96	; 0x60
    4b26:	2000      	movs	r0, #0
    4b28:	700b      	strb	r3, [r1, #0]
    4b2a:	4770      	bx	lr
    4b2c:	f04f 30ff 	mov.w	r0, #4294967295
    4b30:	4770      	bx	lr
    4b32:	bf00      	nop

00004b34 <uGUI::ButtonSetFont(uGUI::WINDOW*, unsigned char, uGUI::FONT const*)>:
    4b34:	7808      	ldrb	r0, [r1, #0]
    4b36:	6849      	ldr	r1, [r1, #4]
    4b38:	b1c0      	cbz	r0, 4b6c <uGUI::ButtonSetFont(uGUI::WINDOW*, unsigned char, uGUI::FONT const*)+0x38>
    4b3a:	eb01 1c40 	add.w	ip, r1, r0, lsl #5
    4b3e:	e002      	b.n	4b46 <uGUI::ButtonSetFont(uGUI::WINDOW*, unsigned char, uGUI::FONT const*)+0x12>
    4b40:	3120      	adds	r1, #32
    4b42:	4561      	cmp	r1, ip
    4b44:	d012      	beq.n	4b6c <uGUI::ButtonSetFont(uGUI::WINDOW*, unsigned char, uGUI::FONT const*)+0x38>
    4b46:	7808      	ldrb	r0, [r1, #0]
    4b48:	f000 0003 	and.w	r0, r0, #3
    4b4c:	2802      	cmp	r0, #2
    4b4e:	d1f7      	bne.n	4b40 <uGUI::ButtonSetFont(uGUI::WINDOW*, unsigned char, uGUI::FONT const*)+0xc>
    4b50:	7e08      	ldrb	r0, [r1, #24]
    4b52:	2801      	cmp	r0, #1
    4b54:	d1f4      	bne.n	4b40 <uGUI::ButtonSetFont(uGUI::WINDOW*, unsigned char, uGUI::FONT const*)+0xc>
    4b56:	7e48      	ldrb	r0, [r1, #25]
    4b58:	4290      	cmp	r0, r2
    4b5a:	d1f1      	bne.n	4b40 <uGUI::ButtonSetFont(uGUI::WINDOW*, unsigned char, uGUI::FONT const*)+0xc>
    4b5c:	69ca      	ldr	r2, [r1, #28]
    4b5e:	6153      	str	r3, [r2, #20]
    4b60:	780b      	ldrb	r3, [r1, #0]
    4b62:	f043 0360 	orr.w	r3, r3, #96	; 0x60
    4b66:	2000      	movs	r0, #0
    4b68:	700b      	strb	r3, [r1, #0]
    4b6a:	4770      	bx	lr
    4b6c:	f04f 30ff 	mov.w	r0, #4294967295
    4b70:	4770      	bx	lr
    4b72:	bf00      	nop

00004b74 <__aeabi_atexit>:
    4b74:	460b      	mov	r3, r1
    4b76:	4601      	mov	r1, r0
    4b78:	4618      	mov	r0, r3
    4b7a:	f000 b8f1 	b.w	4d60 <__cxa_atexit>

00004b7e <operator delete(void*, unsigned int)>:
    4b7e:	f000 b815 	b.w	4bac <operator delete(void*)>

00004b82 <operator delete[](void*)>:
    4b82:	f000 b813 	b.w	4bac <operator delete(void*)>

00004b86 <operator new(unsigned int)>:
    4b86:	2801      	cmp	r0, #1
    4b88:	bf38      	it	cc
    4b8a:	2001      	movcc	r0, #1
    4b8c:	b510      	push	{r4, lr}
    4b8e:	4604      	mov	r4, r0
    4b90:	4620      	mov	r0, r4
    4b92:	f000 f82f 	bl	4bf4 <malloc>
    4b96:	b100      	cbz	r0, 4b9a <operator new(unsigned int)+0x14>
    4b98:	bd10      	pop	{r4, pc}
    4b9a:	f000 f809 	bl	4bb0 <std::get_new_handler()>
    4b9e:	b908      	cbnz	r0, 4ba4 <operator new(unsigned int)+0x1e>
    4ba0:	f000 f80e 	bl	4bc0 <abort>
    4ba4:	4780      	blx	r0
    4ba6:	e7f3      	b.n	4b90 <operator new(unsigned int)+0xa>

00004ba8 <operator new[](unsigned int)>:
    4ba8:	f7ff bfed 	b.w	4b86 <operator new(unsigned int)>

00004bac <operator delete(void*)>:
    4bac:	f000 b82a 	b.w	4c04 <free>

00004bb0 <std::get_new_handler()>:
    4bb0:	4b02      	ldr	r3, [pc, #8]	; (4bbc <std::get_new_handler()+0xc>)
    4bb2:	6818      	ldr	r0, [r3, #0]
    4bb4:	f3bf 8f5b 	dmb	ish
    4bb8:	4770      	bx	lr
    4bba:	bf00      	nop
    4bbc:	200005d4 	.word	0x200005d4

00004bc0 <abort>:
    4bc0:	b508      	push	{r3, lr}
    4bc2:	2006      	movs	r0, #6
    4bc4:	f000 fbba 	bl	533c <raise>
    4bc8:	2001      	movs	r0, #1
    4bca:	f001 fe5b 	bl	6884 <_exit>
	...

00004bd0 <exit>:
    4bd0:	b508      	push	{r3, lr}
    4bd2:	4b06      	ldr	r3, [pc, #24]	; (4bec <exit+0x1c>)
    4bd4:	4604      	mov	r4, r0
    4bd6:	b113      	cbz	r3, 4bde <exit+0xe>
    4bd8:	2100      	movs	r1, #0
    4bda:	f3af 8000 	nop.w
    4bde:	4b04      	ldr	r3, [pc, #16]	; (4bf0 <exit+0x20>)
    4be0:	681b      	ldr	r3, [r3, #0]
    4be2:	b103      	cbz	r3, 4be6 <exit+0x16>
    4be4:	4798      	blx	r3
    4be6:	4620      	mov	r0, r4
    4be8:	f001 fe4c 	bl	6884 <_exit>
    4bec:	00000000 	.word	0x00000000
    4bf0:	200007e8 	.word	0x200007e8

00004bf4 <malloc>:
    4bf4:	4b02      	ldr	r3, [pc, #8]	; (4c00 <malloc+0xc>)
    4bf6:	4601      	mov	r1, r0
    4bf8:	6818      	ldr	r0, [r3, #0]
    4bfa:	f000 b82d 	b.w	4c58 <_malloc_r>
    4bfe:	bf00      	nop
    4c00:	20000048 	.word	0x20000048

00004c04 <free>:
    4c04:	4b02      	ldr	r3, [pc, #8]	; (4c10 <free+0xc>)
    4c06:	4601      	mov	r1, r0
    4c08:	6818      	ldr	r0, [r3, #0]
    4c0a:	f000 bc37 	b.w	547c <_free_r>
    4c0e:	bf00      	nop
    4c10:	20000048 	.word	0x20000048

00004c14 <sbrk_aligned>:
    4c14:	b570      	push	{r4, r5, r6, lr}
    4c16:	4e0f      	ldr	r6, [pc, #60]	; (4c54 <sbrk_aligned+0x40>)
    4c18:	460c      	mov	r4, r1
    4c1a:	6831      	ldr	r1, [r6, #0]
    4c1c:	4605      	mov	r5, r0
    4c1e:	b911      	cbnz	r1, 4c26 <sbrk_aligned+0x12>
    4c20:	f000 fbdc 	bl	53dc <_sbrk_r>
    4c24:	6030      	str	r0, [r6, #0]
    4c26:	4621      	mov	r1, r4
    4c28:	4628      	mov	r0, r5
    4c2a:	f000 fbd7 	bl	53dc <_sbrk_r>
    4c2e:	1c43      	adds	r3, r0, #1
    4c30:	d103      	bne.n	4c3a <sbrk_aligned+0x26>
    4c32:	f04f 34ff 	mov.w	r4, #4294967295
    4c36:	4620      	mov	r0, r4
    4c38:	bd70      	pop	{r4, r5, r6, pc}
    4c3a:	1cc4      	adds	r4, r0, #3
    4c3c:	f024 0403 	bic.w	r4, r4, #3
    4c40:	42a0      	cmp	r0, r4
    4c42:	d0f8      	beq.n	4c36 <sbrk_aligned+0x22>
    4c44:	1a21      	subs	r1, r4, r0
    4c46:	4628      	mov	r0, r5
    4c48:	f000 fbc8 	bl	53dc <_sbrk_r>
    4c4c:	3001      	adds	r0, #1
    4c4e:	d1f2      	bne.n	4c36 <sbrk_aligned+0x22>
    4c50:	e7ef      	b.n	4c32 <sbrk_aligned+0x1e>
    4c52:	bf00      	nop
    4c54:	200006ac 	.word	0x200006ac

00004c58 <_malloc_r>:
    4c58:	e92d 41f0 	stmdb	sp!, {r4, r5, r6, r7, r8, lr}
    4c5c:	1ccd      	adds	r5, r1, #3
    4c5e:	f025 0503 	bic.w	r5, r5, #3
    4c62:	3508      	adds	r5, #8
    4c64:	2d0c      	cmp	r5, #12
    4c66:	bf38      	it	cc
    4c68:	250c      	movcc	r5, #12
    4c6a:	2d00      	cmp	r5, #0
    4c6c:	4606      	mov	r6, r0
    4c6e:	db01      	blt.n	4c74 <_malloc_r+0x1c>
    4c70:	42a9      	cmp	r1, r5
    4c72:	d904      	bls.n	4c7e <_malloc_r+0x26>
    4c74:	230c      	movs	r3, #12
    4c76:	6033      	str	r3, [r6, #0]
    4c78:	2000      	movs	r0, #0
    4c7a:	e8bd 81f0 	ldmia.w	sp!, {r4, r5, r6, r7, r8, pc}
    4c7e:	4f31      	ldr	r7, [pc, #196]	; (4d44 <_malloc_r+0xec>)
    4c80:	f000 f862 	bl	4d48 <__malloc_lock>
    4c84:	683b      	ldr	r3, [r7, #0]
    4c86:	461c      	mov	r4, r3
    4c88:	bb44      	cbnz	r4, 4cdc <_malloc_r+0x84>
    4c8a:	4629      	mov	r1, r5
    4c8c:	4630      	mov	r0, r6
    4c8e:	f7ff ffc1 	bl	4c14 <sbrk_aligned>
    4c92:	1c43      	adds	r3, r0, #1
    4c94:	4604      	mov	r4, r0
    4c96:	d150      	bne.n	4d3a <_malloc_r+0xe2>
    4c98:	683c      	ldr	r4, [r7, #0]
    4c9a:	4621      	mov	r1, r4
    4c9c:	2900      	cmp	r1, #0
    4c9e:	d141      	bne.n	4d24 <_malloc_r+0xcc>
    4ca0:	2c00      	cmp	r4, #0
    4ca2:	d044      	beq.n	4d2e <_malloc_r+0xd6>
    4ca4:	6823      	ldr	r3, [r4, #0]
    4ca6:	4630      	mov	r0, r6
    4ca8:	eb04 0803 	add.w	r8, r4, r3
    4cac:	f000 fb96 	bl	53dc <_sbrk_r>
    4cb0:	4580      	cmp	r8, r0
    4cb2:	d13c      	bne.n	4d2e <_malloc_r+0xd6>
    4cb4:	6821      	ldr	r1, [r4, #0]
    4cb6:	1a6d      	subs	r5, r5, r1
    4cb8:	4629      	mov	r1, r5
    4cba:	4630      	mov	r0, r6
    4cbc:	f7ff ffaa 	bl	4c14 <sbrk_aligned>
    4cc0:	3001      	adds	r0, #1
    4cc2:	d034      	beq.n	4d2e <_malloc_r+0xd6>
    4cc4:	6823      	ldr	r3, [r4, #0]
    4cc6:	442b      	add	r3, r5
    4cc8:	6023      	str	r3, [r4, #0]
    4cca:	683b      	ldr	r3, [r7, #0]
    4ccc:	2b00      	cmp	r3, #0
    4cce:	d036      	beq.n	4d3e <_malloc_r+0xe6>
    4cd0:	685a      	ldr	r2, [r3, #4]
    4cd2:	42a2      	cmp	r2, r4
    4cd4:	d129      	bne.n	4d2a <_malloc_r+0xd2>
    4cd6:	2200      	movs	r2, #0
    4cd8:	605a      	str	r2, [r3, #4]
    4cda:	e00e      	b.n	4cfa <_malloc_r+0xa2>
    4cdc:	6822      	ldr	r2, [r4, #0]
    4cde:	1b52      	subs	r2, r2, r5
    4ce0:	d41d      	bmi.n	4d1e <_malloc_r+0xc6>
    4ce2:	2a0b      	cmp	r2, #11
    4ce4:	d916      	bls.n	4d14 <_malloc_r+0xbc>
    4ce6:	1961      	adds	r1, r4, r5
    4ce8:	42a3      	cmp	r3, r4
    4cea:	6025      	str	r5, [r4, #0]
    4cec:	bf18      	it	ne
    4cee:	6059      	strne	r1, [r3, #4]
    4cf0:	6863      	ldr	r3, [r4, #4]
    4cf2:	bf08      	it	eq
    4cf4:	6039      	streq	r1, [r7, #0]
    4cf6:	5162      	str	r2, [r4, r5]
    4cf8:	604b      	str	r3, [r1, #4]
    4cfa:	4630      	mov	r0, r6
    4cfc:	f000 f82a 	bl	4d54 <__malloc_unlock>
    4d00:	f104 000b 	add.w	r0, r4, #11
    4d04:	1d23      	adds	r3, r4, #4
    4d06:	f020 0007 	bic.w	r0, r0, #7
    4d0a:	1ac2      	subs	r2, r0, r3
    4d0c:	d0b5      	beq.n	4c7a <_malloc_r+0x22>
    4d0e:	1a1b      	subs	r3, r3, r0
    4d10:	50a3      	str	r3, [r4, r2]
    4d12:	e7b2      	b.n	4c7a <_malloc_r+0x22>
    4d14:	42a3      	cmp	r3, r4
    4d16:	6862      	ldr	r2, [r4, #4]
    4d18:	d1de      	bne.n	4cd8 <_malloc_r+0x80>
    4d1a:	603a      	str	r2, [r7, #0]
    4d1c:	e7ed      	b.n	4cfa <_malloc_r+0xa2>
    4d1e:	4623      	mov	r3, r4
    4d20:	6864      	ldr	r4, [r4, #4]
    4d22:	e7b1      	b.n	4c88 <_malloc_r+0x30>
    4d24:	460c      	mov	r4, r1
    4d26:	6849      	ldr	r1, [r1, #4]
    4d28:	e7b8      	b.n	4c9c <_malloc_r+0x44>
    4d2a:	4613      	mov	r3, r2
    4d2c:	e7ce      	b.n	4ccc <_malloc_r+0x74>
    4d2e:	230c      	movs	r3, #12
    4d30:	6033      	str	r3, [r6, #0]
    4d32:	4630      	mov	r0, r6
    4d34:	f000 f80e 	bl	4d54 <__malloc_unlock>
    4d38:	e79e      	b.n	4c78 <_malloc_r+0x20>
    4d3a:	6005      	str	r5, [r0, #0]
    4d3c:	e7dd      	b.n	4cfa <_malloc_r+0xa2>
    4d3e:	605b      	str	r3, [r3, #4]
    4d40:	deff      	udf	#255	; 0xff
    4d42:	bf00      	nop
    4d44:	200006a8 	.word	0x200006a8

00004d48 <__malloc_lock>:
    4d48:	4801      	ldr	r0, [pc, #4]	; (4d50 <__malloc_lock+0x8>)
    4d4a:	f000 bb94 	b.w	5476 <__retarget_lock_acquire_recursive>
    4d4e:	bf00      	nop
    4d50:	2000080c 	.word	0x2000080c

00004d54 <__malloc_unlock>:
    4d54:	4801      	ldr	r0, [pc, #4]	; (4d5c <__malloc_unlock+0x8>)
    4d56:	f000 bb8f 	b.w	5478 <__retarget_lock_release_recursive>
    4d5a:	bf00      	nop
    4d5c:	2000080c 	.word	0x2000080c

00004d60 <__cxa_atexit>:
    4d60:	b510      	push	{r4, lr}
    4d62:	4604      	mov	r4, r0
    4d64:	4804      	ldr	r0, [pc, #16]	; (4d78 <__cxa_atexit+0x18>)
    4d66:	4613      	mov	r3, r2
    4d68:	b120      	cbz	r0, 4d74 <__cxa_atexit+0x14>
    4d6a:	460a      	mov	r2, r1
    4d6c:	2002      	movs	r0, #2
    4d6e:	4621      	mov	r1, r4
    4d70:	f3af 8000 	nop.w
    4d74:	bd10      	pop	{r4, pc}
    4d76:	bf00      	nop
    4d78:	00000000 	.word	0x00000000

00004d7c <__sflush_r>:
    4d7c:	f9b1 200c 	ldrsh.w	r2, [r1, #12]
    4d80:	e92d 41f0 	stmdb	sp!, {r4, r5, r6, r7, r8, lr}
    4d84:	0717      	lsls	r7, r2, #28
    4d86:	4605      	mov	r5, r0
    4d88:	460c      	mov	r4, r1
    4d8a:	d456      	bmi.n	4e3a <__sflush_r+0xbe>
    4d8c:	684b      	ldr	r3, [r1, #4]
    4d8e:	2b00      	cmp	r3, #0
    4d90:	dc02      	bgt.n	4d98 <__sflush_r+0x1c>
    4d92:	6c0b      	ldr	r3, [r1, #64]	; 0x40
    4d94:	2b00      	cmp	r3, #0
    4d96:	dd3d      	ble.n	4e14 <__sflush_r+0x98>
    4d98:	6ae6      	ldr	r6, [r4, #44]	; 0x2c
    4d9a:	2e00      	cmp	r6, #0
    4d9c:	d03a      	beq.n	4e14 <__sflush_r+0x98>
    4d9e:	2300      	movs	r3, #0
    4da0:	f412 5280 	ands.w	r2, r2, #4096	; 0x1000
    4da4:	682f      	ldr	r7, [r5, #0]
    4da6:	6a21      	ldr	r1, [r4, #32]
    4da8:	602b      	str	r3, [r5, #0]
    4daa:	d025      	beq.n	4df8 <__sflush_r+0x7c>
    4dac:	6d62      	ldr	r2, [r4, #84]	; 0x54
    4dae:	89a3      	ldrh	r3, [r4, #12]
    4db0:	0758      	lsls	r0, r3, #29
    4db2:	d505      	bpl.n	4dc0 <__sflush_r+0x44>
    4db4:	6863      	ldr	r3, [r4, #4]
    4db6:	1ad2      	subs	r2, r2, r3
    4db8:	6b63      	ldr	r3, [r4, #52]	; 0x34
    4dba:	b10b      	cbz	r3, 4dc0 <__sflush_r+0x44>
    4dbc:	6c23      	ldr	r3, [r4, #64]	; 0x40
    4dbe:	1ad2      	subs	r2, r2, r3
    4dc0:	6a21      	ldr	r1, [r4, #32]
    4dc2:	6ae6      	ldr	r6, [r4, #44]	; 0x2c
    4dc4:	2300      	movs	r3, #0
    4dc6:	4628      	mov	r0, r5
    4dc8:	47b0      	blx	r6
    4dca:	1c41      	adds	r1, r0, #1
    4dcc:	d024      	beq.n	4e18 <__sflush_r+0x9c>
    4dce:	2300      	movs	r3, #0
    4dd0:	6063      	str	r3, [r4, #4]
    4dd2:	6923      	ldr	r3, [r4, #16]
    4dd4:	6023      	str	r3, [r4, #0]
    4dd6:	89a3      	ldrh	r3, [r4, #12]
    4dd8:	04da      	lsls	r2, r3, #19
    4dda:	d500      	bpl.n	4dde <__sflush_r+0x62>
    4ddc:	6560      	str	r0, [r4, #84]	; 0x54
    4dde:	6b61      	ldr	r1, [r4, #52]	; 0x34
    4de0:	602f      	str	r7, [r5, #0]
    4de2:	b1b9      	cbz	r1, 4e14 <__sflush_r+0x98>
    4de4:	f104 0344 	add.w	r3, r4, #68	; 0x44
    4de8:	4299      	cmp	r1, r3
    4dea:	d002      	beq.n	4df2 <__sflush_r+0x76>
    4dec:	4628      	mov	r0, r5
    4dee:	f000 fb45 	bl	547c <_free_r>
    4df2:	2300      	movs	r3, #0
    4df4:	6363      	str	r3, [r4, #52]	; 0x34
    4df6:	e00d      	b.n	4e14 <__sflush_r+0x98>
    4df8:	2301      	movs	r3, #1
    4dfa:	4628      	mov	r0, r5
    4dfc:	47b0      	blx	r6
    4dfe:	1c46      	adds	r6, r0, #1
    4e00:	4602      	mov	r2, r0
    4e02:	d1d4      	bne.n	4dae <__sflush_r+0x32>
    4e04:	682b      	ldr	r3, [r5, #0]
    4e06:	2b00      	cmp	r3, #0
    4e08:	d0d1      	beq.n	4dae <__sflush_r+0x32>
    4e0a:	2b1d      	cmp	r3, #29
    4e0c:	d001      	beq.n	4e12 <__sflush_r+0x96>
    4e0e:	2b16      	cmp	r3, #22
    4e10:	d12b      	bne.n	4e6a <__sflush_r+0xee>
    4e12:	602f      	str	r7, [r5, #0]
    4e14:	2000      	movs	r0, #0
    4e16:	e02f      	b.n	4e78 <__sflush_r+0xfc>
    4e18:	682a      	ldr	r2, [r5, #0]
    4e1a:	f9b4 300c 	ldrsh.w	r3, [r4, #12]
    4e1e:	b142      	cbz	r2, 4e32 <__sflush_r+0xb6>
    4e20:	2a1d      	cmp	r2, #29
    4e22:	d001      	beq.n	4e28 <__sflush_r+0xac>
    4e24:	2a16      	cmp	r2, #22
    4e26:	d122      	bne.n	4e6e <__sflush_r+0xf2>
    4e28:	2300      	movs	r3, #0
    4e2a:	6063      	str	r3, [r4, #4]
    4e2c:	6923      	ldr	r3, [r4, #16]
    4e2e:	6023      	str	r3, [r4, #0]
    4e30:	e7d5      	b.n	4dde <__sflush_r+0x62>
    4e32:	6062      	str	r2, [r4, #4]
    4e34:	6922      	ldr	r2, [r4, #16]
    4e36:	6022      	str	r2, [r4, #0]
    4e38:	e7ce      	b.n	4dd8 <__sflush_r+0x5c>
    4e3a:	690f      	ldr	r7, [r1, #16]
    4e3c:	2f00      	cmp	r7, #0
    4e3e:	d0e9      	beq.n	4e14 <__sflush_r+0x98>
    4e40:	0793      	lsls	r3, r2, #30
    4e42:	680e      	ldr	r6, [r1, #0]
    4e44:	bf08      	it	eq
    4e46:	694b      	ldreq	r3, [r1, #20]
    4e48:	600f      	str	r7, [r1, #0]
    4e4a:	bf18      	it	ne
    4e4c:	2300      	movne	r3, #0
    4e4e:	eba6 0807 	sub.w	r8, r6, r7
    4e52:	608b      	str	r3, [r1, #8]
    4e54:	f1b8 0f00 	cmp.w	r8, #0
    4e58:	dddc      	ble.n	4e14 <__sflush_r+0x98>
    4e5a:	6a21      	ldr	r1, [r4, #32]
    4e5c:	6aa6      	ldr	r6, [r4, #40]	; 0x28
    4e5e:	4643      	mov	r3, r8
    4e60:	463a      	mov	r2, r7
    4e62:	4628      	mov	r0, r5
    4e64:	47b0      	blx	r6
    4e66:	2800      	cmp	r0, #0
    4e68:	dc08      	bgt.n	4e7c <__sflush_r+0x100>
    4e6a:	f9b4 300c 	ldrsh.w	r3, [r4, #12]
    4e6e:	f043 0340 	orr.w	r3, r3, #64	; 0x40
    4e72:	81a3      	strh	r3, [r4, #12]
    4e74:	f04f 30ff 	mov.w	r0, #4294967295
    4e78:	e8bd 81f0 	ldmia.w	sp!, {r4, r5, r6, r7, r8, pc}
    4e7c:	4407      	add	r7, r0
    4e7e:	eba8 0800 	sub.w	r8, r8, r0
    4e82:	e7e7      	b.n	4e54 <__sflush_r+0xd8>

00004e84 <_fflush_r>:
    4e84:	b538      	push	{r3, r4, r5, lr}
    4e86:	690b      	ldr	r3, [r1, #16]
    4e88:	4605      	mov	r5, r0
    4e8a:	460c      	mov	r4, r1
    4e8c:	b913      	cbnz	r3, 4e94 <_fflush_r+0x10>
    4e8e:	2500      	movs	r5, #0
    4e90:	4628      	mov	r0, r5
    4e92:	bd38      	pop	{r3, r4, r5, pc}
    4e94:	b118      	cbz	r0, 4e9e <_fflush_r+0x1a>
    4e96:	6a03      	ldr	r3, [r0, #32]
    4e98:	b90b      	cbnz	r3, 4e9e <_fflush_r+0x1a>
    4e9a:	f000 f8bb 	bl	5014 <__sinit>
    4e9e:	f9b4 300c 	ldrsh.w	r3, [r4, #12]
    4ea2:	2b00      	cmp	r3, #0
    4ea4:	d0f3      	beq.n	4e8e <_fflush_r+0xa>
    4ea6:	6e62      	ldr	r2, [r4, #100]	; 0x64
    4ea8:	07d0      	lsls	r0, r2, #31
    4eaa:	d404      	bmi.n	4eb6 <_fflush_r+0x32>
    4eac:	0599      	lsls	r1, r3, #22
    4eae:	d402      	bmi.n	4eb6 <_fflush_r+0x32>
    4eb0:	6da0      	ldr	r0, [r4, #88]	; 0x58
    4eb2:	f000 fae0 	bl	5476 <__retarget_lock_acquire_recursive>
    4eb6:	4628      	mov	r0, r5
    4eb8:	4621      	mov	r1, r4
    4eba:	f7ff ff5f 	bl	4d7c <__sflush_r>
    4ebe:	6e63      	ldr	r3, [r4, #100]	; 0x64
    4ec0:	07da      	lsls	r2, r3, #31
    4ec2:	4605      	mov	r5, r0
    4ec4:	d4e4      	bmi.n	4e90 <_fflush_r+0xc>
    4ec6:	89a3      	ldrh	r3, [r4, #12]
    4ec8:	059b      	lsls	r3, r3, #22
    4eca:	d4e1      	bmi.n	4e90 <_fflush_r+0xc>
    4ecc:	6da0      	ldr	r0, [r4, #88]	; 0x58
    4ece:	f000 fad3 	bl	5478 <__retarget_lock_release_recursive>
    4ed2:	e7dd      	b.n	4e90 <_fflush_r+0xc>

00004ed4 <fflush>:
    4ed4:	4601      	mov	r1, r0
    4ed6:	b920      	cbnz	r0, 4ee2 <fflush+0xe>
    4ed8:	4a04      	ldr	r2, [pc, #16]	; (4eec <fflush+0x18>)
    4eda:	4905      	ldr	r1, [pc, #20]	; (4ef0 <fflush+0x1c>)
    4edc:	4805      	ldr	r0, [pc, #20]	; (4ef4 <fflush+0x20>)
    4ede:	f000 b8b1 	b.w	5044 <_fwalk_sglue>
    4ee2:	4b05      	ldr	r3, [pc, #20]	; (4ef8 <fflush+0x24>)
    4ee4:	6818      	ldr	r0, [r3, #0]
    4ee6:	f7ff bfcd 	b.w	4e84 <_fflush_r>
    4eea:	bf00      	nop
    4eec:	2000003c 	.word	0x2000003c
    4ef0:	00004e85 	.word	0x00004e85
    4ef4:	2000004c 	.word	0x2000004c
    4ef8:	20000048 	.word	0x20000048

00004efc <std>:
    4efc:	2300      	movs	r3, #0
    4efe:	b510      	push	{r4, lr}
    4f00:	4604      	mov	r4, r0
    4f02:	e9c0 3300 	strd	r3, r3, [r0]
    4f06:	e9c0 3304 	strd	r3, r3, [r0, #16]
    4f0a:	6083      	str	r3, [r0, #8]
    4f0c:	8181      	strh	r1, [r0, #12]
    4f0e:	6643      	str	r3, [r0, #100]	; 0x64
    4f10:	81c2      	strh	r2, [r0, #14]
    4f12:	6183      	str	r3, [r0, #24]
    4f14:	4619      	mov	r1, r3
    4f16:	2208      	movs	r2, #8
    4f18:	305c      	adds	r0, #92	; 0x5c
    4f1a:	f000 f9cc 	bl	52b6 <memset>
    4f1e:	4b0d      	ldr	r3, [pc, #52]	; (4f54 <std+0x58>)
    4f20:	6263      	str	r3, [r4, #36]	; 0x24
    4f22:	4b0d      	ldr	r3, [pc, #52]	; (4f58 <std+0x5c>)
    4f24:	62a3      	str	r3, [r4, #40]	; 0x28
    4f26:	4b0d      	ldr	r3, [pc, #52]	; (4f5c <std+0x60>)
    4f28:	62e3      	str	r3, [r4, #44]	; 0x2c
    4f2a:	4b0d      	ldr	r3, [pc, #52]	; (4f60 <std+0x64>)
    4f2c:	6323      	str	r3, [r4, #48]	; 0x30
    4f2e:	4b0d      	ldr	r3, [pc, #52]	; (4f64 <std+0x68>)
    4f30:	6224      	str	r4, [r4, #32]
    4f32:	429c      	cmp	r4, r3
    4f34:	d006      	beq.n	4f44 <std+0x48>
    4f36:	f103 0268 	add.w	r2, r3, #104	; 0x68
    4f3a:	4294      	cmp	r4, r2
    4f3c:	d002      	beq.n	4f44 <std+0x48>
    4f3e:	33d0      	adds	r3, #208	; 0xd0
    4f40:	429c      	cmp	r4, r3
    4f42:	d105      	bne.n	4f50 <std+0x54>
    4f44:	f104 0058 	add.w	r0, r4, #88	; 0x58
    4f48:	e8bd 4010 	ldmia.w	sp!, {r4, lr}
    4f4c:	f000 ba92 	b.w	5474 <__retarget_lock_init_recursive>
    4f50:	bd10      	pop	{r4, pc}
    4f52:	bf00      	nop
    4f54:	00005231 	.word	0x00005231
    4f58:	00005253 	.word	0x00005253
    4f5c:	0000528b 	.word	0x0000528b
    4f60:	000052af 	.word	0x000052af
    4f64:	200006b0 	.word	0x200006b0

00004f68 <stdio_exit_handler>:
    4f68:	4a02      	ldr	r2, [pc, #8]	; (4f74 <stdio_exit_handler+0xc>)
    4f6a:	4903      	ldr	r1, [pc, #12]	; (4f78 <stdio_exit_handler+0x10>)
    4f6c:	4803      	ldr	r0, [pc, #12]	; (4f7c <stdio_exit_handler+0x14>)
    4f6e:	f000 b869 	b.w	5044 <_fwalk_sglue>
    4f72:	bf00      	nop
    4f74:	2000003c 	.word	0x2000003c
    4f78:	00004e85 	.word	0x00004e85
    4f7c:	2000004c 	.word	0x2000004c

00004f80 <cleanup_stdio>:
    4f80:	6841      	ldr	r1, [r0, #4]
    4f82:	4b0c      	ldr	r3, [pc, #48]	; (4fb4 <cleanup_stdio+0x34>)
    4f84:	4299      	cmp	r1, r3
    4f86:	b510      	push	{r4, lr}
    4f88:	4604      	mov	r4, r0
    4f8a:	d001      	beq.n	4f90 <cleanup_stdio+0x10>
    4f8c:	f7ff ff7a 	bl	4e84 <_fflush_r>
    4f90:	68a1      	ldr	r1, [r4, #8]
    4f92:	4b09      	ldr	r3, [pc, #36]	; (4fb8 <cleanup_stdio+0x38>)
    4f94:	4299      	cmp	r1, r3
    4f96:	d002      	beq.n	4f9e <cleanup_stdio+0x1e>
    4f98:	4620      	mov	r0, r4
    4f9a:	f7ff ff73 	bl	4e84 <_fflush_r>
    4f9e:	68e1      	ldr	r1, [r4, #12]
    4fa0:	4b06      	ldr	r3, [pc, #24]	; (4fbc <cleanup_stdio+0x3c>)
    4fa2:	4299      	cmp	r1, r3
    4fa4:	d004      	beq.n	4fb0 <cleanup_stdio+0x30>
    4fa6:	4620      	mov	r0, r4
    4fa8:	e8bd 4010 	ldmia.w	sp!, {r4, lr}
    4fac:	f7ff bf6a 	b.w	4e84 <_fflush_r>
    4fb0:	bd10      	pop	{r4, pc}
    4fb2:	bf00      	nop
    4fb4:	200006b0 	.word	0x200006b0
    4fb8:	20000718 	.word	0x20000718
    4fbc:	20000780 	.word	0x20000780

00004fc0 <global_stdio_init.part.0>:
    4fc0:	b510      	push	{r4, lr}
    4fc2:	4b0b      	ldr	r3, [pc, #44]	; (4ff0 <global_stdio_init.part.0+0x30>)
    4fc4:	4c0b      	ldr	r4, [pc, #44]	; (4ff4 <global_stdio_init.part.0+0x34>)
    4fc6:	4a0c      	ldr	r2, [pc, #48]	; (4ff8 <global_stdio_init.part.0+0x38>)
    4fc8:	601a      	str	r2, [r3, #0]
    4fca:	4620      	mov	r0, r4
    4fcc:	2200      	movs	r2, #0
    4fce:	2104      	movs	r1, #4
    4fd0:	f7ff ff94 	bl	4efc <std>
    4fd4:	f104 0068 	add.w	r0, r4, #104	; 0x68
    4fd8:	2201      	movs	r2, #1
    4fda:	2109      	movs	r1, #9
    4fdc:	f7ff ff8e 	bl	4efc <std>
    4fe0:	f104 00d0 	add.w	r0, r4, #208	; 0xd0
    4fe4:	2202      	movs	r2, #2
    4fe6:	e8bd 4010 	ldmia.w	sp!, {r4, lr}
    4fea:	2112      	movs	r1, #18
    4fec:	f7ff bf86 	b.w	4efc <std>
    4ff0:	200007e8 	.word	0x200007e8
    4ff4:	200006b0 	.word	0x200006b0
    4ff8:	00004f69 	.word	0x00004f69

00004ffc <__sfp_lock_acquire>:
    4ffc:	4801      	ldr	r0, [pc, #4]	; (5004 <__sfp_lock_acquire+0x8>)
    4ffe:	f000 ba3a 	b.w	5476 <__retarget_lock_acquire_recursive>
    5002:	bf00      	nop
    5004:	2000080d 	.word	0x2000080d

00005008 <__sfp_lock_release>:
    5008:	4801      	ldr	r0, [pc, #4]	; (5010 <__sfp_lock_release+0x8>)
    500a:	f000 ba35 	b.w	5478 <__retarget_lock_release_recursive>
    500e:	bf00      	nop
    5010:	2000080d 	.word	0x2000080d

00005014 <__sinit>:
    5014:	b510      	push	{r4, lr}
    5016:	4604      	mov	r4, r0
    5018:	f7ff fff0 	bl	4ffc <__sfp_lock_acquire>
    501c:	6a23      	ldr	r3, [r4, #32]
    501e:	b11b      	cbz	r3, 5028 <__sinit+0x14>
    5020:	e8bd 4010 	ldmia.w	sp!, {r4, lr}
    5024:	f7ff bff0 	b.w	5008 <__sfp_lock_release>
    5028:	4b04      	ldr	r3, [pc, #16]	; (503c <__sinit+0x28>)
    502a:	6223      	str	r3, [r4, #32]
    502c:	4b04      	ldr	r3, [pc, #16]	; (5040 <__sinit+0x2c>)
    502e:	681b      	ldr	r3, [r3, #0]
    5030:	2b00      	cmp	r3, #0
    5032:	d1f5      	bne.n	5020 <__sinit+0xc>
    5034:	f7ff ffc4 	bl	4fc0 <global_stdio_init.part.0>
    5038:	e7f2      	b.n	5020 <__sinit+0xc>
    503a:	bf00      	nop
    503c:	00004f81 	.word	0x00004f81
    5040:	200007e8 	.word	0x200007e8

00005044 <_fwalk_sglue>:
    5044:	e92d 43f8 	stmdb	sp!, {r3, r4, r5, r6, r7, r8, r9, lr}
    5048:	4607      	mov	r7, r0
    504a:	4688      	mov	r8, r1
    504c:	4614      	mov	r4, r2
    504e:	2600      	movs	r6, #0
    5050:	e9d4 9501 	ldrd	r9, r5, [r4, #4]
    5054:	f1b9 0901 	subs.w	r9, r9, #1
    5058:	d505      	bpl.n	5066 <_fwalk_sglue+0x22>
    505a:	6824      	ldr	r4, [r4, #0]
    505c:	2c00      	cmp	r4, #0
    505e:	d1f7      	bne.n	5050 <_fwalk_sglue+0xc>
    5060:	4630      	mov	r0, r6
    5062:	e8bd 83f8 	ldmia.w	sp!, {r3, r4, r5, r6, r7, r8, r9, pc}
    5066:	89ab      	ldrh	r3, [r5, #12]
    5068:	2b01      	cmp	r3, #1
    506a:	d907      	bls.n	507c <_fwalk_sglue+0x38>
    506c:	f9b5 300e 	ldrsh.w	r3, [r5, #14]
    5070:	3301      	adds	r3, #1
    5072:	d003      	beq.n	507c <_fwalk_sglue+0x38>
    5074:	4629      	mov	r1, r5
    5076:	4638      	mov	r0, r7
    5078:	47c0      	blx	r8
    507a:	4306      	orrs	r6, r0
    507c:	3568      	adds	r5, #104	; 0x68
    507e:	e7e9      	b.n	5054 <_fwalk_sglue+0x10>

00005080 <iprintf>:
    5080:	b40f      	push	{r0, r1, r2, r3}
    5082:	b507      	push	{r0, r1, r2, lr}
    5084:	4906      	ldr	r1, [pc, #24]	; (50a0 <iprintf+0x20>)
    5086:	ab04      	add	r3, sp, #16
    5088:	6808      	ldr	r0, [r1, #0]
    508a:	f853 2b04 	ldr.w	r2, [r3], #4
    508e:	6881      	ldr	r1, [r0, #8]
    5090:	9301      	str	r3, [sp, #4]
    5092:	f000 fa67 	bl	5564 <_vfiprintf_r>
    5096:	b003      	add	sp, #12
    5098:	f85d eb04 	ldr.w	lr, [sp], #4
    509c:	b004      	add	sp, #16
    509e:	4770      	bx	lr
    50a0:	20000048 	.word	0x20000048

000050a4 <iscanf>:
    50a4:	b40f      	push	{r0, r1, r2, r3}
    50a6:	b507      	push	{r0, r1, r2, lr}
    50a8:	4906      	ldr	r1, [pc, #24]	; (50c4 <iscanf+0x20>)
    50aa:	ab04      	add	r3, sp, #16
    50ac:	6808      	ldr	r0, [r1, #0]
    50ae:	f853 2b04 	ldr.w	r2, [r3], #4
    50b2:	6841      	ldr	r1, [r0, #4]
    50b4:	9301      	str	r3, [sp, #4]
    50b6:	f000 fea5 	bl	5e04 <_vfiscanf_r>
    50ba:	b003      	add	sp, #12
    50bc:	f85d eb04 	ldr.w	lr, [sp], #4
    50c0:	b004      	add	sp, #16
    50c2:	4770      	bx	lr
    50c4:	20000048 	.word	0x20000048

000050c8 <setvbuf>:
    50c8:	e92d 43f7 	stmdb	sp!, {r0, r1, r2, r4, r5, r6, r7, r8, r9, lr}
    50cc:	461d      	mov	r5, r3
    50ce:	4b57      	ldr	r3, [pc, #348]	; (522c <setvbuf+0x164>)
    50d0:	681f      	ldr	r7, [r3, #0]
    50d2:	4604      	mov	r4, r0
    50d4:	460e      	mov	r6, r1
    50d6:	4690      	mov	r8, r2
    50d8:	b127      	cbz	r7, 50e4 <setvbuf+0x1c>
    50da:	6a3b      	ldr	r3, [r7, #32]
    50dc:	b913      	cbnz	r3, 50e4 <setvbuf+0x1c>
    50de:	4638      	mov	r0, r7
    50e0:	f7ff ff98 	bl	5014 <__sinit>
    50e4:	f1b8 0f02 	cmp.w	r8, #2
    50e8:	d006      	beq.n	50f8 <setvbuf+0x30>
    50ea:	f1b8 0f01 	cmp.w	r8, #1
    50ee:	f200 809a 	bhi.w	5226 <setvbuf+0x15e>
    50f2:	2d00      	cmp	r5, #0
    50f4:	f2c0 8097 	blt.w	5226 <setvbuf+0x15e>
    50f8:	6e63      	ldr	r3, [r4, #100]	; 0x64
    50fa:	07d9      	lsls	r1, r3, #31
    50fc:	d405      	bmi.n	510a <setvbuf+0x42>
    50fe:	89a3      	ldrh	r3, [r4, #12]
    5100:	059a      	lsls	r2, r3, #22
    5102:	d402      	bmi.n	510a <setvbuf+0x42>
    5104:	6da0      	ldr	r0, [r4, #88]	; 0x58
    5106:	f000 f9b6 	bl	5476 <__retarget_lock_acquire_recursive>
    510a:	4621      	mov	r1, r4
    510c:	4638      	mov	r0, r7
    510e:	f7ff feb9 	bl	4e84 <_fflush_r>
    5112:	6b61      	ldr	r1, [r4, #52]	; 0x34
    5114:	b141      	cbz	r1, 5128 <setvbuf+0x60>
    5116:	f104 0344 	add.w	r3, r4, #68	; 0x44
    511a:	4299      	cmp	r1, r3
    511c:	d002      	beq.n	5124 <setvbuf+0x5c>
    511e:	4638      	mov	r0, r7
    5120:	f000 f9ac 	bl	547c <_free_r>
    5124:	2300      	movs	r3, #0
    5126:	6363      	str	r3, [r4, #52]	; 0x34
    5128:	2300      	movs	r3, #0
    512a:	61a3      	str	r3, [r4, #24]
    512c:	6063      	str	r3, [r4, #4]
    512e:	89a3      	ldrh	r3, [r4, #12]
    5130:	061b      	lsls	r3, r3, #24
    5132:	d503      	bpl.n	513c <setvbuf+0x74>
    5134:	6921      	ldr	r1, [r4, #16]
    5136:	4638      	mov	r0, r7
    5138:	f000 f9a0 	bl	547c <_free_r>
    513c:	89a3      	ldrh	r3, [r4, #12]
    513e:	f423 634a 	bic.w	r3, r3, #3232	; 0xca0
    5142:	f023 0303 	bic.w	r3, r3, #3
    5146:	f1b8 0f02 	cmp.w	r8, #2
    514a:	81a3      	strh	r3, [r4, #12]
    514c:	d061      	beq.n	5212 <setvbuf+0x14a>
    514e:	ab01      	add	r3, sp, #4
    5150:	466a      	mov	r2, sp
    5152:	4621      	mov	r1, r4
    5154:	4638      	mov	r0, r7
    5156:	f000 ffc3 	bl	60e0 <__swhatbuf_r>
    515a:	89a3      	ldrh	r3, [r4, #12]
    515c:	4318      	orrs	r0, r3
    515e:	81a0      	strh	r0, [r4, #12]
    5160:	bb2d      	cbnz	r5, 51ae <setvbuf+0xe6>
    5162:	9d00      	ldr	r5, [sp, #0]
    5164:	4628      	mov	r0, r5
    5166:	f7ff fd45 	bl	4bf4 <malloc>
    516a:	4606      	mov	r6, r0
    516c:	2800      	cmp	r0, #0
    516e:	d152      	bne.n	5216 <setvbuf+0x14e>
    5170:	f8dd 9000 	ldr.w	r9, [sp]
    5174:	45a9      	cmp	r9, r5
    5176:	d140      	bne.n	51fa <setvbuf+0x132>
    5178:	f04f 35ff 	mov.w	r5, #4294967295
    517c:	f9b4 300c 	ldrsh.w	r3, [r4, #12]
    5180:	f043 0202 	orr.w	r2, r3, #2
    5184:	81a2      	strh	r2, [r4, #12]
    5186:	2200      	movs	r2, #0
    5188:	60a2      	str	r2, [r4, #8]
    518a:	f104 0247 	add.w	r2, r4, #71	; 0x47
    518e:	6022      	str	r2, [r4, #0]
    5190:	6122      	str	r2, [r4, #16]
    5192:	2201      	movs	r2, #1
    5194:	6162      	str	r2, [r4, #20]
    5196:	6e62      	ldr	r2, [r4, #100]	; 0x64
    5198:	07d6      	lsls	r6, r2, #31
    519a:	d404      	bmi.n	51a6 <setvbuf+0xde>
    519c:	0598      	lsls	r0, r3, #22
    519e:	d402      	bmi.n	51a6 <setvbuf+0xde>
    51a0:	6da0      	ldr	r0, [r4, #88]	; 0x58
    51a2:	f000 f969 	bl	5478 <__retarget_lock_release_recursive>
    51a6:	4628      	mov	r0, r5
    51a8:	b003      	add	sp, #12
    51aa:	e8bd 83f0 	ldmia.w	sp!, {r4, r5, r6, r7, r8, r9, pc}
    51ae:	2e00      	cmp	r6, #0
    51b0:	d0d8      	beq.n	5164 <setvbuf+0x9c>
    51b2:	6a3b      	ldr	r3, [r7, #32]
    51b4:	b913      	cbnz	r3, 51bc <setvbuf+0xf4>
    51b6:	4638      	mov	r0, r7
    51b8:	f7ff ff2c 	bl	5014 <__sinit>
    51bc:	f1b8 0f01 	cmp.w	r8, #1
    51c0:	bf08      	it	eq
    51c2:	89a3      	ldrheq	r3, [r4, #12]
    51c4:	6026      	str	r6, [r4, #0]
    51c6:	bf04      	itt	eq
    51c8:	f043 0301 	orreq.w	r3, r3, #1
    51cc:	81a3      	strheq	r3, [r4, #12]
    51ce:	f9b4 300c 	ldrsh.w	r3, [r4, #12]
    51d2:	f013 0208 	ands.w	r2, r3, #8
    51d6:	e9c4 6504 	strd	r6, r5, [r4, #16]
    51da:	d01e      	beq.n	521a <setvbuf+0x152>
    51dc:	07d9      	lsls	r1, r3, #31
    51de:	bf41      	itttt	mi
    51e0:	2200      	movmi	r2, #0
    51e2:	426d      	negmi	r5, r5
    51e4:	60a2      	strmi	r2, [r4, #8]
    51e6:	61a5      	strmi	r5, [r4, #24]
    51e8:	bf58      	it	pl
    51ea:	60a5      	strpl	r5, [r4, #8]
    51ec:	6e62      	ldr	r2, [r4, #100]	; 0x64
    51ee:	07d2      	lsls	r2, r2, #31
    51f0:	d401      	bmi.n	51f6 <setvbuf+0x12e>
    51f2:	059b      	lsls	r3, r3, #22
    51f4:	d513      	bpl.n	521e <setvbuf+0x156>
    51f6:	2500      	movs	r5, #0
    51f8:	e7d5      	b.n	51a6 <setvbuf+0xde>
    51fa:	4648      	mov	r0, r9
    51fc:	f7ff fcfa 	bl	4bf4 <malloc>
    5200:	4606      	mov	r6, r0
    5202:	2800      	cmp	r0, #0
    5204:	d0b8      	beq.n	5178 <setvbuf+0xb0>
    5206:	89a3      	ldrh	r3, [r4, #12]
    5208:	f043 0380 	orr.w	r3, r3, #128	; 0x80
    520c:	81a3      	strh	r3, [r4, #12]
    520e:	464d      	mov	r5, r9
    5210:	e7cf      	b.n	51b2 <setvbuf+0xea>
    5212:	2500      	movs	r5, #0
    5214:	e7b2      	b.n	517c <setvbuf+0xb4>
    5216:	46a9      	mov	r9, r5
    5218:	e7f5      	b.n	5206 <setvbuf+0x13e>
    521a:	60a2      	str	r2, [r4, #8]
    521c:	e7e6      	b.n	51ec <setvbuf+0x124>
    521e:	6da0      	ldr	r0, [r4, #88]	; 0x58
    5220:	f000 f92a 	bl	5478 <__retarget_lock_release_recursive>
    5224:	e7e7      	b.n	51f6 <setvbuf+0x12e>
    5226:	f04f 35ff 	mov.w	r5, #4294967295
    522a:	e7bc      	b.n	51a6 <setvbuf+0xde>
    522c:	20000048 	.word	0x20000048

00005230 <__sread>:
    5230:	b510      	push	{r4, lr}
    5232:	460c      	mov	r4, r1
    5234:	f9b1 100e 	ldrsh.w	r1, [r1, #14]
    5238:	f000 f8aa 	bl	5390 <_read_r>
    523c:	2800      	cmp	r0, #0
    523e:	bfab      	itete	ge
    5240:	6d63      	ldrge	r3, [r4, #84]	; 0x54
    5242:	89a3      	ldrhlt	r3, [r4, #12]
    5244:	181b      	addge	r3, r3, r0
    5246:	f423 5380 	biclt.w	r3, r3, #4096	; 0x1000
    524a:	bfac      	ite	ge
    524c:	6563      	strge	r3, [r4, #84]	; 0x54
    524e:	81a3      	strhlt	r3, [r4, #12]
    5250:	bd10      	pop	{r4, pc}

00005252 <__swrite>:
    5252:	e92d 41f0 	stmdb	sp!, {r4, r5, r6, r7, r8, lr}
    5256:	461f      	mov	r7, r3
    5258:	898b      	ldrh	r3, [r1, #12]
    525a:	05db      	lsls	r3, r3, #23
    525c:	4605      	mov	r5, r0
    525e:	460c      	mov	r4, r1
    5260:	4616      	mov	r6, r2
    5262:	d505      	bpl.n	5270 <__swrite+0x1e>
    5264:	f9b1 100e 	ldrsh.w	r1, [r1, #14]
    5268:	2302      	movs	r3, #2
    526a:	2200      	movs	r2, #0
    526c:	f000 f87e 	bl	536c <_lseek_r>
    5270:	89a3      	ldrh	r3, [r4, #12]
    5272:	f9b4 100e 	ldrsh.w	r1, [r4, #14]
    5276:	f423 5380 	bic.w	r3, r3, #4096	; 0x1000
    527a:	81a3      	strh	r3, [r4, #12]
    527c:	4632      	mov	r2, r6
    527e:	463b      	mov	r3, r7
    5280:	4628      	mov	r0, r5
    5282:	e8bd 41f0 	ldmia.w	sp!, {r4, r5, r6, r7, r8, lr}
    5286:	f000 b8b9 	b.w	53fc <_write_r>

0000528a <__sseek>:
    528a:	b510      	push	{r4, lr}
    528c:	460c      	mov	r4, r1
    528e:	f9b1 100e 	ldrsh.w	r1, [r1, #14]
    5292:	f000 f86b 	bl	536c <_lseek_r>
    5296:	1c43      	adds	r3, r0, #1
    5298:	89a3      	ldrh	r3, [r4, #12]
    529a:	bf15      	itete	ne
    529c:	6560      	strne	r0, [r4, #84]	; 0x54
    529e:	f423 5380 	biceq.w	r3, r3, #4096	; 0x1000
    52a2:	f443 5380 	orrne.w	r3, r3, #4096	; 0x1000
    52a6:	81a3      	strheq	r3, [r4, #12]
    52a8:	bf18      	it	ne
    52aa:	81a3      	strhne	r3, [r4, #12]
    52ac:	bd10      	pop	{r4, pc}

000052ae <__sclose>:
    52ae:	f9b1 100e 	ldrsh.w	r1, [r1, #14]
    52b2:	f000 b84b 	b.w	534c <_close_r>

000052b6 <memset>:
    52b6:	4402      	add	r2, r0
    52b8:	4603      	mov	r3, r0
    52ba:	4293      	cmp	r3, r2
    52bc:	d100      	bne.n	52c0 <memset+0xa>
    52be:	4770      	bx	lr
    52c0:	f803 1b01 	strb.w	r1, [r3], #1
    52c4:	e7f9      	b.n	52ba <memset+0x4>

000052c6 <strncpy>:
    52c6:	b510      	push	{r4, lr}
    52c8:	3901      	subs	r1, #1
    52ca:	4603      	mov	r3, r0
    52cc:	b132      	cbz	r2, 52dc <strncpy+0x16>
    52ce:	f811 4f01 	ldrb.w	r4, [r1, #1]!
    52d2:	f803 4b01 	strb.w	r4, [r3], #1
    52d6:	3a01      	subs	r2, #1
    52d8:	2c00      	cmp	r4, #0
    52da:	d1f7      	bne.n	52cc <strncpy+0x6>
    52dc:	441a      	add	r2, r3
    52de:	2100      	movs	r1, #0
    52e0:	4293      	cmp	r3, r2
    52e2:	d100      	bne.n	52e6 <strncpy+0x20>
    52e4:	bd10      	pop	{r4, pc}
    52e6:	f803 1b01 	strb.w	r1, [r3], #1
    52ea:	e7f9      	b.n	52e0 <strncpy+0x1a>

000052ec <_raise_r>:
    52ec:	291f      	cmp	r1, #31
    52ee:	b538      	push	{r3, r4, r5, lr}
    52f0:	4605      	mov	r5, r0
    52f2:	460c      	mov	r4, r1
    52f4:	d904      	bls.n	5300 <_raise_r+0x14>
    52f6:	2316      	movs	r3, #22
    52f8:	6003      	str	r3, [r0, #0]
    52fa:	f04f 30ff 	mov.w	r0, #4294967295
    52fe:	bd38      	pop	{r3, r4, r5, pc}
    5300:	6bc2      	ldr	r2, [r0, #60]	; 0x3c
    5302:	b112      	cbz	r2, 530a <_raise_r+0x1e>
    5304:	f852 3021 	ldr.w	r3, [r2, r1, lsl #2]
    5308:	b94b      	cbnz	r3, 531e <_raise_r+0x32>
    530a:	4628      	mov	r0, r5
    530c:	f000 f864 	bl	53d8 <_getpid_r>
    5310:	4622      	mov	r2, r4
    5312:	4601      	mov	r1, r0
    5314:	4628      	mov	r0, r5
    5316:	e8bd 4038 	ldmia.w	sp!, {r3, r4, r5, lr}
    531a:	f000 b84b 	b.w	53b4 <_kill_r>
    531e:	2b01      	cmp	r3, #1
    5320:	d00a      	beq.n	5338 <_raise_r+0x4c>
    5322:	1c59      	adds	r1, r3, #1
    5324:	d103      	bne.n	532e <_raise_r+0x42>
    5326:	2316      	movs	r3, #22
    5328:	6003      	str	r3, [r0, #0]
    532a:	2001      	movs	r0, #1
    532c:	e7e7      	b.n	52fe <_raise_r+0x12>
    532e:	2100      	movs	r1, #0
    5330:	f842 1024 	str.w	r1, [r2, r4, lsl #2]
    5334:	4620      	mov	r0, r4
    5336:	4798      	blx	r3
    5338:	2000      	movs	r0, #0
    533a:	e7e0      	b.n	52fe <_raise_r+0x12>

0000533c <raise>:
    533c:	4b02      	ldr	r3, [pc, #8]	; (5348 <raise+0xc>)
    533e:	4601      	mov	r1, r0
    5340:	6818      	ldr	r0, [r3, #0]
    5342:	f7ff bfd3 	b.w	52ec <_raise_r>
    5346:	bf00      	nop
    5348:	20000048 	.word	0x20000048

0000534c <_close_r>:
    534c:	b538      	push	{r3, r4, r5, lr}
    534e:	4d06      	ldr	r5, [pc, #24]	; (5368 <_close_r+0x1c>)
    5350:	2300      	movs	r3, #0
    5352:	4604      	mov	r4, r0
    5354:	4608      	mov	r0, r1
    5356:	602b      	str	r3, [r5, #0]
    5358:	f7fd febe 	bl	30d8 <_close>
    535c:	1c43      	adds	r3, r0, #1
    535e:	d102      	bne.n	5366 <_close_r+0x1a>
    5360:	682b      	ldr	r3, [r5, #0]
    5362:	b103      	cbz	r3, 5366 <_close_r+0x1a>
    5364:	6023      	str	r3, [r4, #0]
    5366:	bd38      	pop	{r3, r4, r5, pc}
    5368:	200007ec 	.word	0x200007ec

0000536c <_lseek_r>:
    536c:	b538      	push	{r3, r4, r5, lr}
    536e:	4d07      	ldr	r5, [pc, #28]	; (538c <_lseek_r+0x20>)
    5370:	4604      	mov	r4, r0
    5372:	4608      	mov	r0, r1
    5374:	4611      	mov	r1, r2
    5376:	2200      	movs	r2, #0
    5378:	602a      	str	r2, [r5, #0]
    537a:	461a      	mov	r2, r3
    537c:	f7fd fed0 	bl	3120 <_lseek>
    5380:	1c43      	adds	r3, r0, #1
    5382:	d102      	bne.n	538a <_lseek_r+0x1e>
    5384:	682b      	ldr	r3, [r5, #0]
    5386:	b103      	cbz	r3, 538a <_lseek_r+0x1e>
    5388:	6023      	str	r3, [r4, #0]
    538a:	bd38      	pop	{r3, r4, r5, pc}
    538c:	200007ec 	.word	0x200007ec

00005390 <_read_r>:
    5390:	b538      	push	{r3, r4, r5, lr}
    5392:	4d07      	ldr	r5, [pc, #28]	; (53b0 <_read_r+0x20>)
    5394:	4604      	mov	r4, r0
    5396:	4608      	mov	r0, r1
    5398:	4611      	mov	r1, r2
    539a:	2200      	movs	r2, #0
    539c:	602a      	str	r2, [r5, #0]
    539e:	461a      	mov	r2, r3
    53a0:	f7fd fdde 	bl	2f60 <_read>
    53a4:	1c43      	adds	r3, r0, #1
    53a6:	d102      	bne.n	53ae <_read_r+0x1e>
    53a8:	682b      	ldr	r3, [r5, #0]
    53aa:	b103      	cbz	r3, 53ae <_read_r+0x1e>
    53ac:	6023      	str	r3, [r4, #0]
    53ae:	bd38      	pop	{r3, r4, r5, pc}
    53b0:	200007ec 	.word	0x200007ec

000053b4 <_kill_r>:
    53b4:	b538      	push	{r3, r4, r5, lr}
    53b6:	4d07      	ldr	r5, [pc, #28]	; (53d4 <_kill_r+0x20>)
    53b8:	2300      	movs	r3, #0
    53ba:	4604      	mov	r4, r0
    53bc:	4608      	mov	r0, r1
    53be:	4611      	mov	r1, r2
    53c0:	602b      	str	r3, [r5, #0]
    53c2:	f7fd fed3 	bl	316c <_kill>
    53c6:	1c43      	adds	r3, r0, #1
    53c8:	d102      	bne.n	53d0 <_kill_r+0x1c>
    53ca:	682b      	ldr	r3, [r5, #0]
    53cc:	b103      	cbz	r3, 53d0 <_kill_r+0x1c>
    53ce:	6023      	str	r3, [r4, #0]
    53d0:	bd38      	pop	{r3, r4, r5, pc}
    53d2:	bf00      	nop
    53d4:	200007ec 	.word	0x200007ec

000053d8 <_getpid_r>:
    53d8:	f7fd bed0 	b.w	317c <_getpid>

000053dc <_sbrk_r>:
    53dc:	b538      	push	{r3, r4, r5, lr}
    53de:	4d06      	ldr	r5, [pc, #24]	; (53f8 <_sbrk_r+0x1c>)
    53e0:	2300      	movs	r3, #0
    53e2:	4604      	mov	r4, r0
    53e4:	4608      	mov	r0, r1
    53e6:	602b      	str	r3, [r5, #0]
    53e8:	f001 fa3e 	bl	6868 <_sbrk>
    53ec:	1c43      	adds	r3, r0, #1
    53ee:	d102      	bne.n	53f6 <_sbrk_r+0x1a>
    53f0:	682b      	ldr	r3, [r5, #0]
    53f2:	b103      	cbz	r3, 53f6 <_sbrk_r+0x1a>
    53f4:	6023      	str	r3, [r4, #0]
    53f6:	bd38      	pop	{r3, r4, r5, pc}
    53f8:	200007ec 	.word	0x200007ec

000053fc <_write_r>:
    53fc:	b538      	push	{r3, r4, r5, lr}
    53fe:	4d07      	ldr	r5, [pc, #28]	; (541c <_write_r+0x20>)
    5400:	4604      	mov	r4, r0
    5402:	4608      	mov	r0, r1
    5404:	4611      	mov	r1, r2
    5406:	2200      	movs	r2, #0
    5408:	602a      	str	r2, [r5, #0]
    540a:	461a      	mov	r2, r3
    540c:	f7fd fde4 	bl	2fd8 <_write>
    5410:	1c43      	adds	r3, r0, #1
    5412:	d102      	bne.n	541a <_write_r+0x1e>
    5414:	682b      	ldr	r3, [r5, #0]
    5416:	b103      	cbz	r3, 541a <_write_r+0x1e>
    5418:	6023      	str	r3, [r4, #0]
    541a:	bd38      	pop	{r3, r4, r5, pc}
    541c:	200007ec 	.word	0x200007ec

00005420 <__errno>:
    5420:	4b01      	ldr	r3, [pc, #4]	; (5428 <__errno+0x8>)
    5422:	6818      	ldr	r0, [r3, #0]
    5424:	4770      	bx	lr
    5426:	bf00      	nop
    5428:	20000048 	.word	0x20000048

0000542c <__libc_init_array>:
    542c:	b570      	push	{r4, r5, r6, lr}
    542e:	4d0d      	ldr	r5, [pc, #52]	; (5464 <__libc_init_array+0x38>)
    5430:	4c0d      	ldr	r4, [pc, #52]	; (5468 <__libc_init_array+0x3c>)
    5432:	1b64      	subs	r4, r4, r5
    5434:	10a4      	asrs	r4, r4, #2
    5436:	2600      	movs	r6, #0
    5438:	42a6      	cmp	r6, r4
    543a:	d109      	bne.n	5450 <__libc_init_array+0x24>
    543c:	4d0b      	ldr	r5, [pc, #44]	; (546c <__libc_init_array+0x40>)
    543e:	4c0c      	ldr	r4, [pc, #48]	; (5470 <__libc_init_array+0x44>)
    5440:	f001 fa22 	bl	6888 <_init>
    5444:	1b64      	subs	r4, r4, r5
    5446:	10a4      	asrs	r4, r4, #2
    5448:	2600      	movs	r6, #0
    544a:	42a6      	cmp	r6, r4
    544c:	d105      	bne.n	545a <__libc_init_array+0x2e>
    544e:	bd70      	pop	{r4, r5, r6, pc}
    5450:	f855 3b04 	ldr.w	r3, [r5], #4
    5454:	4798      	blx	r3
    5456:	3601      	adds	r6, #1
    5458:	e7ee      	b.n	5438 <__libc_init_array+0xc>
    545a:	f855 3b04 	ldr.w	r3, [r5], #4
    545e:	4798      	blx	r3
    5460:	3601      	adds	r6, #1
    5462:	e7f2      	b.n	544a <__libc_init_array+0x1e>
    5464:	000068a0 	.word	0x000068a0
    5468:	000068a0 	.word	0x000068a0
    546c:	000068a0 	.word	0x000068a0
    5470:	000068c0 	.word	0x000068c0

00005474 <__retarget_lock_init_recursive>:
    5474:	4770      	bx	lr

00005476 <__retarget_lock_acquire_recursive>:
    5476:	4770      	bx	lr

00005478 <__retarget_lock_release_recursive>:
    5478:	4770      	bx	lr
	...

0000547c <_free_r>:
    547c:	b538      	push	{r3, r4, r5, lr}
    547e:	4605      	mov	r5, r0
    5480:	2900      	cmp	r1, #0
    5482:	d041      	beq.n	5508 <_free_r+0x8c>
    5484:	f851 3c04 	ldr.w	r3, [r1, #-4]
    5488:	1f0c      	subs	r4, r1, #4
    548a:	2b00      	cmp	r3, #0
    548c:	bfb8      	it	lt
    548e:	18e4      	addlt	r4, r4, r3
    5490:	f7ff fc5a 	bl	4d48 <__malloc_lock>
    5494:	4a1d      	ldr	r2, [pc, #116]	; (550c <_free_r+0x90>)
    5496:	6813      	ldr	r3, [r2, #0]
    5498:	b933      	cbnz	r3, 54a8 <_free_r+0x2c>
    549a:	6063      	str	r3, [r4, #4]
    549c:	6014      	str	r4, [r2, #0]
    549e:	4628      	mov	r0, r5
    54a0:	e8bd 4038 	ldmia.w	sp!, {r3, r4, r5, lr}
    54a4:	f7ff bc56 	b.w	4d54 <__malloc_unlock>
    54a8:	42a3      	cmp	r3, r4
    54aa:	d908      	bls.n	54be <_free_r+0x42>
    54ac:	6820      	ldr	r0, [r4, #0]
    54ae:	1821      	adds	r1, r4, r0
    54b0:	428b      	cmp	r3, r1
    54b2:	bf01      	itttt	eq
    54b4:	6819      	ldreq	r1, [r3, #0]
    54b6:	685b      	ldreq	r3, [r3, #4]
    54b8:	1809      	addeq	r1, r1, r0
    54ba:	6021      	streq	r1, [r4, #0]
    54bc:	e7ed      	b.n	549a <_free_r+0x1e>
    54be:	461a      	mov	r2, r3
    54c0:	685b      	ldr	r3, [r3, #4]
    54c2:	b10b      	cbz	r3, 54c8 <_free_r+0x4c>
    54c4:	42a3      	cmp	r3, r4
    54c6:	d9fa      	bls.n	54be <_free_r+0x42>
    54c8:	6811      	ldr	r1, [r2, #0]
    54ca:	1850      	adds	r0, r2, r1
    54cc:	42a0      	cmp	r0, r4
    54ce:	d10b      	bne.n	54e8 <_free_r+0x6c>
    54d0:	6820      	ldr	r0, [r4, #0]
    54d2:	4401      	add	r1, r0
    54d4:	1850      	adds	r0, r2, r1
    54d6:	4283      	cmp	r3, r0
    54d8:	6011      	str	r1, [r2, #0]
    54da:	d1e0      	bne.n	549e <_free_r+0x22>
    54dc:	6818      	ldr	r0, [r3, #0]
    54de:	685b      	ldr	r3, [r3, #4]
    54e0:	6053      	str	r3, [r2, #4]
    54e2:	4408      	add	r0, r1
    54e4:	6010      	str	r0, [r2, #0]
    54e6:	e7da      	b.n	549e <_free_r+0x22>
    54e8:	d902      	bls.n	54f0 <_free_r+0x74>
    54ea:	230c      	movs	r3, #12
    54ec:	602b      	str	r3, [r5, #0]
    54ee:	e7d6      	b.n	549e <_free_r+0x22>
    54f0:	6820      	ldr	r0, [r4, #0]
    54f2:	1821      	adds	r1, r4, r0
    54f4:	428b      	cmp	r3, r1
    54f6:	bf04      	itt	eq
    54f8:	6819      	ldreq	r1, [r3, #0]
    54fa:	685b      	ldreq	r3, [r3, #4]
    54fc:	6063      	str	r3, [r4, #4]
    54fe:	bf04      	itt	eq
    5500:	1809      	addeq	r1, r1, r0
    5502:	6021      	streq	r1, [r4, #0]
    5504:	6054      	str	r4, [r2, #4]
    5506:	e7ca      	b.n	549e <_free_r+0x22>
    5508:	bd38      	pop	{r3, r4, r5, pc}
    550a:	bf00      	nop
    550c:	200006a8 	.word	0x200006a8

00005510 <__sfputc_r>:
    5510:	6893      	ldr	r3, [r2, #8]
    5512:	3b01      	subs	r3, #1
    5514:	2b00      	cmp	r3, #0
    5516:	b410      	push	{r4}
    5518:	6093      	str	r3, [r2, #8]
    551a:	da08      	bge.n	552e <__sfputc_r+0x1e>
    551c:	6994      	ldr	r4, [r2, #24]
    551e:	42a3      	cmp	r3, r4
    5520:	db01      	blt.n	5526 <__sfputc_r+0x16>
    5522:	290a      	cmp	r1, #10
    5524:	d103      	bne.n	552e <__sfputc_r+0x1e>
    5526:	f85d 4b04 	ldr.w	r4, [sp], #4
    552a:	f000 bfaf 	b.w	648c <__swbuf_r>
    552e:	6813      	ldr	r3, [r2, #0]
    5530:	1c58      	adds	r0, r3, #1
    5532:	6010      	str	r0, [r2, #0]
    5534:	7019      	strb	r1, [r3, #0]
    5536:	4608      	mov	r0, r1
    5538:	f85d 4b04 	ldr.w	r4, [sp], #4
    553c:	4770      	bx	lr

0000553e <__sfputs_r>:
    553e:	b5f8      	push	{r3, r4, r5, r6, r7, lr}
    5540:	4606      	mov	r6, r0
    5542:	460f      	mov	r7, r1
    5544:	4614      	mov	r4, r2
    5546:	18d5      	adds	r5, r2, r3
    5548:	42ac      	cmp	r4, r5
    554a:	d101      	bne.n	5550 <__sfputs_r+0x12>
    554c:	2000      	movs	r0, #0
    554e:	e007      	b.n	5560 <__sfputs_r+0x22>
    5550:	f814 1b01 	ldrb.w	r1, [r4], #1
    5554:	463a      	mov	r2, r7
    5556:	4630      	mov	r0, r6
    5558:	f7ff ffda 	bl	5510 <__sfputc_r>
    555c:	1c43      	adds	r3, r0, #1
    555e:	d1f3      	bne.n	5548 <__sfputs_r+0xa>
    5560:	bdf8      	pop	{r3, r4, r5, r6, r7, pc}
	...

00005564 <_vfiprintf_r>:
    5564:	e92d 4ff0 	stmdb	sp!, {r4, r5, r6, r7, r8, r9, sl, fp, lr}
    5568:	460d      	mov	r5, r1
    556a:	b09d      	sub	sp, #116	; 0x74
    556c:	4614      	mov	r4, r2
    556e:	4698      	mov	r8, r3
    5570:	4606      	mov	r6, r0
    5572:	b118      	cbz	r0, 557c <_vfiprintf_r+0x18>
    5574:	6a03      	ldr	r3, [r0, #32]
    5576:	b90b      	cbnz	r3, 557c <_vfiprintf_r+0x18>
    5578:	f7ff fd4c 	bl	5014 <__sinit>
    557c:	6e6b      	ldr	r3, [r5, #100]	; 0x64
    557e:	07d9      	lsls	r1, r3, #31
    5580:	d405      	bmi.n	558e <_vfiprintf_r+0x2a>
    5582:	89ab      	ldrh	r3, [r5, #12]
    5584:	059a      	lsls	r2, r3, #22
    5586:	d402      	bmi.n	558e <_vfiprintf_r+0x2a>
    5588:	6da8      	ldr	r0, [r5, #88]	; 0x58
    558a:	f7ff ff74 	bl	5476 <__retarget_lock_acquire_recursive>
    558e:	89ab      	ldrh	r3, [r5, #12]
    5590:	071b      	lsls	r3, r3, #28
    5592:	d501      	bpl.n	5598 <_vfiprintf_r+0x34>
    5594:	692b      	ldr	r3, [r5, #16]
    5596:	b99b      	cbnz	r3, 55c0 <_vfiprintf_r+0x5c>
    5598:	4629      	mov	r1, r5
    559a:	4630      	mov	r0, r6
    559c:	f000 ffb4 	bl	6508 <__swsetup_r>
    55a0:	b170      	cbz	r0, 55c0 <_vfiprintf_r+0x5c>
    55a2:	6e6b      	ldr	r3, [r5, #100]	; 0x64
    55a4:	07dc      	lsls	r4, r3, #31
    55a6:	d504      	bpl.n	55b2 <_vfiprintf_r+0x4e>
    55a8:	f04f 30ff 	mov.w	r0, #4294967295
    55ac:	b01d      	add	sp, #116	; 0x74
    55ae:	e8bd 8ff0 	ldmia.w	sp!, {r4, r5, r6, r7, r8, r9, sl, fp, pc}
    55b2:	89ab      	ldrh	r3, [r5, #12]
    55b4:	0598      	lsls	r0, r3, #22
    55b6:	d4f7      	bmi.n	55a8 <_vfiprintf_r+0x44>
    55b8:	6da8      	ldr	r0, [r5, #88]	; 0x58
    55ba:	f7ff ff5d 	bl	5478 <__retarget_lock_release_recursive>
    55be:	e7f3      	b.n	55a8 <_vfiprintf_r+0x44>
    55c0:	2300      	movs	r3, #0
    55c2:	9309      	str	r3, [sp, #36]	; 0x24
    55c4:	2320      	movs	r3, #32
    55c6:	f88d 3029 	strb.w	r3, [sp, #41]	; 0x29
    55ca:	f8cd 800c 	str.w	r8, [sp, #12]
    55ce:	2330      	movs	r3, #48	; 0x30
    55d0:	f8df 81ac 	ldr.w	r8, [pc, #428]	; 5780 <_vfiprintf_r+0x21c>
    55d4:	f88d 302a 	strb.w	r3, [sp, #42]	; 0x2a
    55d8:	f04f 0901 	mov.w	r9, #1
    55dc:	4623      	mov	r3, r4
    55de:	469a      	mov	sl, r3
    55e0:	f813 2b01 	ldrb.w	r2, [r3], #1
    55e4:	b10a      	cbz	r2, 55ea <_vfiprintf_r+0x86>
    55e6:	2a25      	cmp	r2, #37	; 0x25
    55e8:	d1f9      	bne.n	55de <_vfiprintf_r+0x7a>
    55ea:	ebba 0b04 	subs.w	fp, sl, r4
    55ee:	d00b      	beq.n	5608 <_vfiprintf_r+0xa4>
    55f0:	465b      	mov	r3, fp
    55f2:	4622      	mov	r2, r4
    55f4:	4629      	mov	r1, r5
    55f6:	4630      	mov	r0, r6
    55f8:	f7ff ffa1 	bl	553e <__sfputs_r>
    55fc:	3001      	adds	r0, #1
    55fe:	f000 80a7 	beq.w	5750 <_vfiprintf_r+0x1ec>
    5602:	9a09      	ldr	r2, [sp, #36]	; 0x24
    5604:	445a      	add	r2, fp
    5606:	9209      	str	r2, [sp, #36]	; 0x24
    5608:	f89a 3000 	ldrb.w	r3, [sl]
    560c:	2b00      	cmp	r3, #0
    560e:	f000 809f 	beq.w	5750 <_vfiprintf_r+0x1ec>
    5612:	2300      	movs	r3, #0
    5614:	f04f 32ff 	mov.w	r2, #4294967295
    5618:	e9cd 2305 	strd	r2, r3, [sp, #20]
    561c:	f10a 0a01 	add.w	sl, sl, #1
    5620:	9304      	str	r3, [sp, #16]
    5622:	9307      	str	r3, [sp, #28]
    5624:	f88d 3053 	strb.w	r3, [sp, #83]	; 0x53
    5628:	931a      	str	r3, [sp, #104]	; 0x68
    562a:	4654      	mov	r4, sl
    562c:	2205      	movs	r2, #5
    562e:	f814 1b01 	ldrb.w	r1, [r4], #1
    5632:	4853      	ldr	r0, [pc, #332]	; (5780 <_vfiprintf_r+0x21c>)
    5634:	f001 f984 	bl	6940 <memchr>
    5638:	9a04      	ldr	r2, [sp, #16]
    563a:	b9d8      	cbnz	r0, 5674 <_vfiprintf_r+0x110>
    563c:	06d1      	lsls	r1, r2, #27
    563e:	bf44      	itt	mi
    5640:	2320      	movmi	r3, #32
    5642:	f88d 3053 	strbmi.w	r3, [sp, #83]	; 0x53
    5646:	0713      	lsls	r3, r2, #28
    5648:	bf44      	itt	mi
    564a:	232b      	movmi	r3, #43	; 0x2b
    564c:	f88d 3053 	strbmi.w	r3, [sp, #83]	; 0x53
    5650:	f89a 3000 	ldrb.w	r3, [sl]
    5654:	2b2a      	cmp	r3, #42	; 0x2a
    5656:	d015      	beq.n	5684 <_vfiprintf_r+0x120>
    5658:	9a07      	ldr	r2, [sp, #28]
    565a:	4654      	mov	r4, sl
    565c:	2000      	movs	r0, #0
    565e:	f04f 0c0a 	mov.w	ip, #10
    5662:	4621      	mov	r1, r4
    5664:	f811 3b01 	ldrb.w	r3, [r1], #1
    5668:	3b30      	subs	r3, #48	; 0x30
    566a:	2b09      	cmp	r3, #9
    566c:	d94b      	bls.n	5706 <_vfiprintf_r+0x1a2>
    566e:	b1b0      	cbz	r0, 569e <_vfiprintf_r+0x13a>
    5670:	9207      	str	r2, [sp, #28]
    5672:	e014      	b.n	569e <_vfiprintf_r+0x13a>
    5674:	eba0 0308 	sub.w	r3, r0, r8
    5678:	fa09 f303 	lsl.w	r3, r9, r3
    567c:	4313      	orrs	r3, r2
    567e:	9304      	str	r3, [sp, #16]
    5680:	46a2      	mov	sl, r4
    5682:	e7d2      	b.n	562a <_vfiprintf_r+0xc6>
    5684:	9b03      	ldr	r3, [sp, #12]
    5686:	1d19      	adds	r1, r3, #4
    5688:	681b      	ldr	r3, [r3, #0]
    568a:	9103      	str	r1, [sp, #12]
    568c:	2b00      	cmp	r3, #0
    568e:	bfbb      	ittet	lt
    5690:	425b      	neglt	r3, r3
    5692:	f042 0202 	orrlt.w	r2, r2, #2
    5696:	9307      	strge	r3, [sp, #28]
    5698:	9307      	strlt	r3, [sp, #28]
    569a:	bfb8      	it	lt
    569c:	9204      	strlt	r2, [sp, #16]
    569e:	7823      	ldrb	r3, [r4, #0]
    56a0:	2b2e      	cmp	r3, #46	; 0x2e
    56a2:	d10a      	bne.n	56ba <_vfiprintf_r+0x156>
    56a4:	7863      	ldrb	r3, [r4, #1]
    56a6:	2b2a      	cmp	r3, #42	; 0x2a
    56a8:	d132      	bne.n	5710 <_vfiprintf_r+0x1ac>
    56aa:	9b03      	ldr	r3, [sp, #12]
    56ac:	1d1a      	adds	r2, r3, #4
    56ae:	681b      	ldr	r3, [r3, #0]
    56b0:	9203      	str	r2, [sp, #12]
    56b2:	ea43 73e3 	orr.w	r3, r3, r3, asr #31
    56b6:	3402      	adds	r4, #2
    56b8:	9305      	str	r3, [sp, #20]
    56ba:	f8df a0d4 	ldr.w	sl, [pc, #212]	; 5790 <_vfiprintf_r+0x22c>
    56be:	7821      	ldrb	r1, [r4, #0]
    56c0:	2203      	movs	r2, #3
    56c2:	4650      	mov	r0, sl
    56c4:	f001 f93c 	bl	6940 <memchr>
    56c8:	b138      	cbz	r0, 56da <_vfiprintf_r+0x176>
    56ca:	9b04      	ldr	r3, [sp, #16]
    56cc:	eba0 000a 	sub.w	r0, r0, sl
    56d0:	2240      	movs	r2, #64	; 0x40
    56d2:	4082      	lsls	r2, r0
    56d4:	4313      	orrs	r3, r2
    56d6:	3401      	adds	r4, #1
    56d8:	9304      	str	r3, [sp, #16]
    56da:	f814 1b01 	ldrb.w	r1, [r4], #1
    56de:	4829      	ldr	r0, [pc, #164]	; (5784 <_vfiprintf_r+0x220>)
    56e0:	f88d 1028 	strb.w	r1, [sp, #40]	; 0x28
    56e4:	2206      	movs	r2, #6
    56e6:	f001 f92b 	bl	6940 <memchr>
    56ea:	2800      	cmp	r0, #0
    56ec:	d03f      	beq.n	576e <_vfiprintf_r+0x20a>
    56ee:	4b26      	ldr	r3, [pc, #152]	; (5788 <_vfiprintf_r+0x224>)
    56f0:	bb1b      	cbnz	r3, 573a <_vfiprintf_r+0x1d6>
    56f2:	9b03      	ldr	r3, [sp, #12]
    56f4:	3307      	adds	r3, #7
    56f6:	f023 0307 	bic.w	r3, r3, #7
    56fa:	3308      	adds	r3, #8
    56fc:	9303      	str	r3, [sp, #12]
    56fe:	9b09      	ldr	r3, [sp, #36]	; 0x24
    5700:	443b      	add	r3, r7
    5702:	9309      	str	r3, [sp, #36]	; 0x24
    5704:	e76a      	b.n	55dc <_vfiprintf_r+0x78>
    5706:	fb0c 3202 	mla	r2, ip, r2, r3
    570a:	460c      	mov	r4, r1
    570c:	2001      	movs	r0, #1
    570e:	e7a8      	b.n	5662 <_vfiprintf_r+0xfe>
    5710:	2300      	movs	r3, #0
    5712:	3401      	adds	r4, #1
    5714:	9305      	str	r3, [sp, #20]
    5716:	4619      	mov	r1, r3
    5718:	f04f 0c0a 	mov.w	ip, #10
    571c:	4620      	mov	r0, r4
    571e:	f810 2b01 	ldrb.w	r2, [r0], #1
    5722:	3a30      	subs	r2, #48	; 0x30
    5724:	2a09      	cmp	r2, #9
    5726:	d903      	bls.n	5730 <_vfiprintf_r+0x1cc>
    5728:	2b00      	cmp	r3, #0
    572a:	d0c6      	beq.n	56ba <_vfiprintf_r+0x156>
    572c:	9105      	str	r1, [sp, #20]
    572e:	e7c4      	b.n	56ba <_vfiprintf_r+0x156>
    5730:	fb0c 2101 	mla	r1, ip, r1, r2
    5734:	4604      	mov	r4, r0
    5736:	2301      	movs	r3, #1
    5738:	e7f0      	b.n	571c <_vfiprintf_r+0x1b8>
    573a:	ab03      	add	r3, sp, #12
    573c:	9300      	str	r3, [sp, #0]
    573e:	462a      	mov	r2, r5
    5740:	4b12      	ldr	r3, [pc, #72]	; (578c <_vfiprintf_r+0x228>)
    5742:	a904      	add	r1, sp, #16
    5744:	4630      	mov	r0, r6
    5746:	f3af 8000 	nop.w
    574a:	4607      	mov	r7, r0
    574c:	1c78      	adds	r0, r7, #1
    574e:	d1d6      	bne.n	56fe <_vfiprintf_r+0x19a>
    5750:	6e6b      	ldr	r3, [r5, #100]	; 0x64
    5752:	07d9      	lsls	r1, r3, #31
    5754:	d405      	bmi.n	5762 <_vfiprintf_r+0x1fe>
    5756:	89ab      	ldrh	r3, [r5, #12]
    5758:	059a      	lsls	r2, r3, #22
    575a:	d402      	bmi.n	5762 <_vfiprintf_r+0x1fe>
    575c:	6da8      	ldr	r0, [r5, #88]	; 0x58
    575e:	f7ff fe8b 	bl	5478 <__retarget_lock_release_recursive>
    5762:	89ab      	ldrh	r3, [r5, #12]
    5764:	065b      	lsls	r3, r3, #25
    5766:	f53f af1f 	bmi.w	55a8 <_vfiprintf_r+0x44>
    576a:	9809      	ldr	r0, [sp, #36]	; 0x24
    576c:	e71e      	b.n	55ac <_vfiprintf_r+0x48>
    576e:	ab03      	add	r3, sp, #12
    5770:	9300      	str	r3, [sp, #0]
    5772:	462a      	mov	r2, r5
    5774:	4b05      	ldr	r3, [pc, #20]	; (578c <_vfiprintf_r+0x228>)
    5776:	a904      	add	r1, sp, #16
    5778:	4630      	mov	r0, r6
    577a:	f000 f879 	bl	5870 <_printf_i>
    577e:	e7e4      	b.n	574a <_vfiprintf_r+0x1e6>
    5780:	0000f760 	.word	0x0000f760
    5784:	0000f76a 	.word	0x0000f76a
    5788:	00000000 	.word	0x00000000
    578c:	0000553f 	.word	0x0000553f
    5790:	0000f766 	.word	0x0000f766

00005794 <_printf_common>:
    5794:	e92d 47f0 	stmdb	sp!, {r4, r5, r6, r7, r8, r9, sl, lr}
    5798:	4616      	mov	r6, r2
    579a:	4698      	mov	r8, r3
    579c:	688a      	ldr	r2, [r1, #8]
    579e:	690b      	ldr	r3, [r1, #16]
    57a0:	f8dd 9020 	ldr.w	r9, [sp, #32]
    57a4:	4293      	cmp	r3, r2
    57a6:	bfb8      	it	lt
    57a8:	4613      	movlt	r3, r2
    57aa:	6033      	str	r3, [r6, #0]
    57ac:	f891 2043 	ldrb.w	r2, [r1, #67]	; 0x43
    57b0:	4607      	mov	r7, r0
    57b2:	460c      	mov	r4, r1
    57b4:	b10a      	cbz	r2, 57ba <_printf_common+0x26>
    57b6:	3301      	adds	r3, #1
    57b8:	6033      	str	r3, [r6, #0]
    57ba:	6823      	ldr	r3, [r4, #0]
    57bc:	0699      	lsls	r1, r3, #26
    57be:	bf42      	ittt	mi
    57c0:	6833      	ldrmi	r3, [r6, #0]
    57c2:	3302      	addmi	r3, #2
    57c4:	6033      	strmi	r3, [r6, #0]
    57c6:	6825      	ldr	r5, [r4, #0]
    57c8:	f015 0506 	ands.w	r5, r5, #6
    57cc:	d106      	bne.n	57dc <_printf_common+0x48>
    57ce:	f104 0a19 	add.w	sl, r4, #25
    57d2:	68e3      	ldr	r3, [r4, #12]
    57d4:	6832      	ldr	r2, [r6, #0]
    57d6:	1a9b      	subs	r3, r3, r2
    57d8:	42ab      	cmp	r3, r5
    57da:	dc26      	bgt.n	582a <_printf_common+0x96>
    57dc:	f894 3043 	ldrb.w	r3, [r4, #67]	; 0x43
    57e0:	6822      	ldr	r2, [r4, #0]
    57e2:	3b00      	subs	r3, #0
    57e4:	bf18      	it	ne
    57e6:	2301      	movne	r3, #1
    57e8:	0692      	lsls	r2, r2, #26
    57ea:	d42b      	bmi.n	5844 <_printf_common+0xb0>
    57ec:	f104 0243 	add.w	r2, r4, #67	; 0x43
    57f0:	4641      	mov	r1, r8
    57f2:	4638      	mov	r0, r7
    57f4:	47c8      	blx	r9
    57f6:	3001      	adds	r0, #1
    57f8:	d01e      	beq.n	5838 <_printf_common+0xa4>
    57fa:	6823      	ldr	r3, [r4, #0]
    57fc:	6922      	ldr	r2, [r4, #16]
    57fe:	f003 0306 	and.w	r3, r3, #6
    5802:	2b04      	cmp	r3, #4
    5804:	bf02      	ittt	eq
    5806:	68e5      	ldreq	r5, [r4, #12]
    5808:	6833      	ldreq	r3, [r6, #0]
    580a:	1aed      	subeq	r5, r5, r3
    580c:	68a3      	ldr	r3, [r4, #8]
    580e:	bf0c      	ite	eq
    5810:	ea25 75e5 	biceq.w	r5, r5, r5, asr #31
    5814:	2500      	movne	r5, #0
    5816:	4293      	cmp	r3, r2
    5818:	bfc4      	itt	gt
    581a:	1a9b      	subgt	r3, r3, r2
    581c:	18ed      	addgt	r5, r5, r3
    581e:	2600      	movs	r6, #0
    5820:	341a      	adds	r4, #26
    5822:	42b5      	cmp	r5, r6
    5824:	d11a      	bne.n	585c <_printf_common+0xc8>
    5826:	2000      	movs	r0, #0
    5828:	e008      	b.n	583c <_printf_common+0xa8>
    582a:	2301      	movs	r3, #1
    582c:	4652      	mov	r2, sl
    582e:	4641      	mov	r1, r8
    5830:	4638      	mov	r0, r7
    5832:	47c8      	blx	r9
    5834:	3001      	adds	r0, #1
    5836:	d103      	bne.n	5840 <_printf_common+0xac>
    5838:	f04f 30ff 	mov.w	r0, #4294967295
    583c:	e8bd 87f0 	ldmia.w	sp!, {r4, r5, r6, r7, r8, r9, sl, pc}
    5840:	3501      	adds	r5, #1
    5842:	e7c6      	b.n	57d2 <_printf_common+0x3e>
    5844:	18e1      	adds	r1, r4, r3
    5846:	1c5a      	adds	r2, r3, #1
    5848:	2030      	movs	r0, #48	; 0x30
    584a:	f881 0043 	strb.w	r0, [r1, #67]	; 0x43
    584e:	4422      	add	r2, r4
    5850:	f894 1045 	ldrb.w	r1, [r4, #69]	; 0x45
    5854:	f882 1043 	strb.w	r1, [r2, #67]	; 0x43
    5858:	3302      	adds	r3, #2
    585a:	e7c7      	b.n	57ec <_printf_common+0x58>
    585c:	2301      	movs	r3, #1
    585e:	4622      	mov	r2, r4
    5860:	4641      	mov	r1, r8
    5862:	4638      	mov	r0, r7
    5864:	47c8      	blx	r9
    5866:	3001      	adds	r0, #1
    5868:	d0e6      	beq.n	5838 <_printf_common+0xa4>
    586a:	3601      	adds	r6, #1
    586c:	e7d9      	b.n	5822 <_printf_common+0x8e>
	...

00005870 <_printf_i>:
    5870:	e92d 47ff 	stmdb	sp!, {r0, r1, r2, r3, r4, r5, r6, r7, r8, r9, sl, lr}
    5874:	7e0f      	ldrb	r7, [r1, #24]
    5876:	9e0c      	ldr	r6, [sp, #48]	; 0x30
    5878:	2f78      	cmp	r7, #120	; 0x78
    587a:	4691      	mov	r9, r2
    587c:	4680      	mov	r8, r0
    587e:	460c      	mov	r4, r1
    5880:	469a      	mov	sl, r3
    5882:	f101 0243 	add.w	r2, r1, #67	; 0x43
    5886:	d807      	bhi.n	5898 <_printf_i+0x28>
    5888:	2f62      	cmp	r7, #98	; 0x62
    588a:	d80a      	bhi.n	58a2 <_printf_i+0x32>
    588c:	2f00      	cmp	r7, #0
    588e:	f000 80dd 	beq.w	5a4c <_printf_i+0x1dc>
    5892:	2f58      	cmp	r7, #88	; 0x58
    5894:	f000 80c3 	beq.w	5a1e <_printf_i+0x1ae>
    5898:	f104 0642 	add.w	r6, r4, #66	; 0x42
    589c:	f884 7042 	strb.w	r7, [r4, #66]	; 0x42
    58a0:	e03a      	b.n	5918 <_printf_i+0xa8>
    58a2:	f1a7 0363 	sub.w	r3, r7, #99	; 0x63
    58a6:	2b15      	cmp	r3, #21
    58a8:	d8f6      	bhi.n	5898 <_printf_i+0x28>
    58aa:	a101      	add	r1, pc, #4	; (adr r1, 58b0 <_printf_i+0x40>)
    58ac:	f851 f023 	ldr.w	pc, [r1, r3, lsl #2]
    58b0:	00005909 	.word	0x00005909
    58b4:	0000591d 	.word	0x0000591d
    58b8:	00005899 	.word	0x00005899
    58bc:	00005899 	.word	0x00005899
    58c0:	00005899 	.word	0x00005899
    58c4:	00005899 	.word	0x00005899
    58c8:	0000591d 	.word	0x0000591d
    58cc:	00005899 	.word	0x00005899
    58d0:	00005899 	.word	0x00005899
    58d4:	00005899 	.word	0x00005899
    58d8:	00005899 	.word	0x00005899
    58dc:	00005a33 	.word	0x00005a33
    58e0:	000059ab 	.word	0x000059ab
    58e4:	000059eb 	.word	0x000059eb
    58e8:	00005899 	.word	0x00005899
    58ec:	00005899 	.word	0x00005899
    58f0:	00005a55 	.word	0x00005a55
    58f4:	00005899 	.word	0x00005899
    58f8:	000059ab 	.word	0x000059ab
    58fc:	00005899 	.word	0x00005899
    5900:	00005899 	.word	0x00005899
    5904:	000059f3 	.word	0x000059f3
    5908:	6833      	ldr	r3, [r6, #0]
    590a:	1d1a      	adds	r2, r3, #4
    590c:	681b      	ldr	r3, [r3, #0]
    590e:	6032      	str	r2, [r6, #0]
    5910:	f104 0642 	add.w	r6, r4, #66	; 0x42
    5914:	f884 3042 	strb.w	r3, [r4, #66]	; 0x42
    5918:	2301      	movs	r3, #1
    591a:	e0a8      	b.n	5a6e <_printf_i+0x1fe>
    591c:	6831      	ldr	r1, [r6, #0]
    591e:	6823      	ldr	r3, [r4, #0]
    5920:	1d08      	adds	r0, r1, #4
    5922:	6030      	str	r0, [r6, #0]
    5924:	061e      	lsls	r6, r3, #24
    5926:	d501      	bpl.n	592c <_printf_i+0xbc>
    5928:	680d      	ldr	r5, [r1, #0]
    592a:	e003      	b.n	5934 <_printf_i+0xc4>
    592c:	065d      	lsls	r5, r3, #25
    592e:	d5fb      	bpl.n	5928 <_printf_i+0xb8>
    5930:	f9b1 5000 	ldrsh.w	r5, [r1]
    5934:	6861      	ldr	r1, [r4, #4]
    5936:	2d00      	cmp	r5, #0
    5938:	da78      	bge.n	5a2c <_printf_i+0x1bc>
    593a:	202d      	movs	r0, #45	; 0x2d
    593c:	2900      	cmp	r1, #0
    593e:	f884 0043 	strb.w	r0, [r4, #67]	; 0x43
    5942:	60a1      	str	r1, [r4, #8]
    5944:	da2d      	bge.n	59a2 <_printf_i+0x132>
    5946:	485e      	ldr	r0, [pc, #376]	; (5ac0 <_printf_i+0x250>)
    5948:	426d      	negs	r5, r5
    594a:	230a      	movs	r3, #10
    594c:	4616      	mov	r6, r2
    594e:	fbb5 f1f3 	udiv	r1, r5, r3
    5952:	fb03 5711 	mls	r7, r3, r1, r5
    5956:	5dc7      	ldrb	r7, [r0, r7]
    5958:	f806 7d01 	strb.w	r7, [r6, #-1]!
    595c:	462f      	mov	r7, r5
    595e:	42bb      	cmp	r3, r7
    5960:	460d      	mov	r5, r1
    5962:	d9f4      	bls.n	594e <_printf_i+0xde>
    5964:	2b08      	cmp	r3, #8
    5966:	d10b      	bne.n	5980 <_printf_i+0x110>
    5968:	6823      	ldr	r3, [r4, #0]
    596a:	07df      	lsls	r7, r3, #31
    596c:	d508      	bpl.n	5980 <_printf_i+0x110>
    596e:	6923      	ldr	r3, [r4, #16]
    5970:	6861      	ldr	r1, [r4, #4]
    5972:	4299      	cmp	r1, r3
    5974:	bfde      	ittt	le
    5976:	2330      	movle	r3, #48	; 0x30
    5978:	f806 3c01 	strble.w	r3, [r6, #-1]
    597c:	f106 36ff 	addle.w	r6, r6, #4294967295
    5980:	1b92      	subs	r2, r2, r6
    5982:	6122      	str	r2, [r4, #16]
    5984:	f8cd a000 	str.w	sl, [sp]
    5988:	464b      	mov	r3, r9
    598a:	aa03      	add	r2, sp, #12
    598c:	4621      	mov	r1, r4
    598e:	4640      	mov	r0, r8
    5990:	f7ff ff00 	bl	5794 <_printf_common>
    5994:	3001      	adds	r0, #1
    5996:	d16f      	bne.n	5a78 <_printf_i+0x208>
    5998:	f04f 30ff 	mov.w	r0, #4294967295
    599c:	b004      	add	sp, #16
    599e:	e8bd 87f0 	ldmia.w	sp!, {r4, r5, r6, r7, r8, r9, sl, pc}
    59a2:	f023 0304 	bic.w	r3, r3, #4
    59a6:	6023      	str	r3, [r4, #0]
    59a8:	e7cd      	b.n	5946 <_printf_i+0xd6>
    59aa:	6821      	ldr	r1, [r4, #0]
    59ac:	6833      	ldr	r3, [r6, #0]
    59ae:	0608      	lsls	r0, r1, #24
    59b0:	f853 5b04 	ldr.w	r5, [r3], #4
    59b4:	d402      	bmi.n	59bc <_printf_i+0x14c>
    59b6:	0649      	lsls	r1, r1, #25
    59b8:	bf48      	it	mi
    59ba:	b2ad      	uxthmi	r5, r5
    59bc:	2f6f      	cmp	r7, #111	; 0x6f
    59be:	4840      	ldr	r0, [pc, #256]	; (5ac0 <_printf_i+0x250>)
    59c0:	6033      	str	r3, [r6, #0]
    59c2:	bf14      	ite	ne
    59c4:	230a      	movne	r3, #10
    59c6:	2308      	moveq	r3, #8
    59c8:	2100      	movs	r1, #0
    59ca:	f884 1043 	strb.w	r1, [r4, #67]	; 0x43
    59ce:	6866      	ldr	r6, [r4, #4]
    59d0:	60a6      	str	r6, [r4, #8]
    59d2:	2e00      	cmp	r6, #0
    59d4:	dbba      	blt.n	594c <_printf_i+0xdc>
    59d6:	6821      	ldr	r1, [r4, #0]
    59d8:	f021 0104 	bic.w	r1, r1, #4
    59dc:	6021      	str	r1, [r4, #0]
    59de:	2d00      	cmp	r5, #0
    59e0:	d1b4      	bne.n	594c <_printf_i+0xdc>
    59e2:	2e00      	cmp	r6, #0
    59e4:	d1b2      	bne.n	594c <_printf_i+0xdc>
    59e6:	4616      	mov	r6, r2
    59e8:	e7bc      	b.n	5964 <_printf_i+0xf4>
    59ea:	6823      	ldr	r3, [r4, #0]
    59ec:	f043 0320 	orr.w	r3, r3, #32
    59f0:	6023      	str	r3, [r4, #0]
    59f2:	4834      	ldr	r0, [pc, #208]	; (5ac4 <_printf_i+0x254>)
    59f4:	2778      	movs	r7, #120	; 0x78
    59f6:	f884 7045 	strb.w	r7, [r4, #69]	; 0x45
    59fa:	6823      	ldr	r3, [r4, #0]
    59fc:	6831      	ldr	r1, [r6, #0]
    59fe:	061f      	lsls	r7, r3, #24
    5a00:	f851 5b04 	ldr.w	r5, [r1], #4
    5a04:	d402      	bmi.n	5a0c <_printf_i+0x19c>
    5a06:	065f      	lsls	r7, r3, #25
    5a08:	bf48      	it	mi
    5a0a:	b2ad      	uxthmi	r5, r5
    5a0c:	6031      	str	r1, [r6, #0]
    5a0e:	07d9      	lsls	r1, r3, #31
    5a10:	bf44      	itt	mi
    5a12:	f043 0320 	orrmi.w	r3, r3, #32
    5a16:	6023      	strmi	r3, [r4, #0]
    5a18:	b11d      	cbz	r5, 5a22 <_printf_i+0x1b2>
    5a1a:	2310      	movs	r3, #16
    5a1c:	e7d4      	b.n	59c8 <_printf_i+0x158>
    5a1e:	4828      	ldr	r0, [pc, #160]	; (5ac0 <_printf_i+0x250>)
    5a20:	e7e9      	b.n	59f6 <_printf_i+0x186>
    5a22:	6823      	ldr	r3, [r4, #0]
    5a24:	f023 0320 	bic.w	r3, r3, #32
    5a28:	6023      	str	r3, [r4, #0]
    5a2a:	e7f6      	b.n	5a1a <_printf_i+0x1aa>
    5a2c:	4824      	ldr	r0, [pc, #144]	; (5ac0 <_printf_i+0x250>)
    5a2e:	230a      	movs	r3, #10
    5a30:	e7cd      	b.n	59ce <_printf_i+0x15e>
    5a32:	6833      	ldr	r3, [r6, #0]
    5a34:	6825      	ldr	r5, [r4, #0]
    5a36:	6961      	ldr	r1, [r4, #20]
    5a38:	1d18      	adds	r0, r3, #4
    5a3a:	6030      	str	r0, [r6, #0]
    5a3c:	062e      	lsls	r6, r5, #24
    5a3e:	681b      	ldr	r3, [r3, #0]
    5a40:	d501      	bpl.n	5a46 <_printf_i+0x1d6>
    5a42:	6019      	str	r1, [r3, #0]
    5a44:	e002      	b.n	5a4c <_printf_i+0x1dc>
    5a46:	0668      	lsls	r0, r5, #25
    5a48:	d5fb      	bpl.n	5a42 <_printf_i+0x1d2>
    5a4a:	8019      	strh	r1, [r3, #0]
    5a4c:	2300      	movs	r3, #0
    5a4e:	6123      	str	r3, [r4, #16]
    5a50:	4616      	mov	r6, r2
    5a52:	e797      	b.n	5984 <_printf_i+0x114>
    5a54:	6833      	ldr	r3, [r6, #0]
    5a56:	1d1a      	adds	r2, r3, #4
    5a58:	6032      	str	r2, [r6, #0]
    5a5a:	681e      	ldr	r6, [r3, #0]
    5a5c:	6862      	ldr	r2, [r4, #4]
    5a5e:	2100      	movs	r1, #0
    5a60:	4630      	mov	r0, r6
    5a62:	f000 ff6d 	bl	6940 <memchr>
    5a66:	b108      	cbz	r0, 5a6c <_printf_i+0x1fc>
    5a68:	1b80      	subs	r0, r0, r6
    5a6a:	6060      	str	r0, [r4, #4]
    5a6c:	6863      	ldr	r3, [r4, #4]
    5a6e:	6123      	str	r3, [r4, #16]
    5a70:	2300      	movs	r3, #0
    5a72:	f884 3043 	strb.w	r3, [r4, #67]	; 0x43
    5a76:	e785      	b.n	5984 <_printf_i+0x114>
    5a78:	6923      	ldr	r3, [r4, #16]
    5a7a:	4632      	mov	r2, r6
    5a7c:	4649      	mov	r1, r9
    5a7e:	4640      	mov	r0, r8
    5a80:	47d0      	blx	sl
    5a82:	3001      	adds	r0, #1
    5a84:	d088      	beq.n	5998 <_printf_i+0x128>
    5a86:	6823      	ldr	r3, [r4, #0]
    5a88:	079b      	lsls	r3, r3, #30
    5a8a:	d414      	bmi.n	5ab6 <_printf_i+0x246>
    5a8c:	68e0      	ldr	r0, [r4, #12]
    5a8e:	9b03      	ldr	r3, [sp, #12]
    5a90:	4298      	cmp	r0, r3
    5a92:	bfb8      	it	lt
    5a94:	4618      	movlt	r0, r3
    5a96:	e781      	b.n	599c <_printf_i+0x12c>
    5a98:	2301      	movs	r3, #1
    5a9a:	4632      	mov	r2, r6
    5a9c:	4649      	mov	r1, r9
    5a9e:	4640      	mov	r0, r8
    5aa0:	47d0      	blx	sl
    5aa2:	3001      	adds	r0, #1
    5aa4:	f43f af78 	beq.w	5998 <_printf_i+0x128>
    5aa8:	3501      	adds	r5, #1
    5aaa:	68e3      	ldr	r3, [r4, #12]
    5aac:	9903      	ldr	r1, [sp, #12]
    5aae:	1a5b      	subs	r3, r3, r1
    5ab0:	42ab      	cmp	r3, r5
    5ab2:	dcf1      	bgt.n	5a98 <_printf_i+0x228>
    5ab4:	e7ea      	b.n	5a8c <_printf_i+0x21c>
    5ab6:	2500      	movs	r5, #0
    5ab8:	f104 0619 	add.w	r6, r4, #25
    5abc:	e7f5      	b.n	5aaa <_printf_i+0x23a>
    5abe:	bf00      	nop
    5ac0:	0000f771 	.word	0x0000f771
    5ac4:	0000f782 	.word	0x0000f782

00005ac8 <__svfiscanf_r>:
    5ac8:	e92d 47f0 	stmdb	sp!, {r4, r5, r6, r7, r8, r9, sl, lr}
    5acc:	461d      	mov	r5, r3
    5ace:	6e4b      	ldr	r3, [r1, #100]	; 0x64
    5ad0:	07df      	lsls	r7, r3, #31
    5ad2:	f5ad 7d22 	sub.w	sp, sp, #648	; 0x288
    5ad6:	4606      	mov	r6, r0
    5ad8:	460c      	mov	r4, r1
    5ada:	4691      	mov	r9, r2
    5adc:	d405      	bmi.n	5aea <__svfiscanf_r+0x22>
    5ade:	898b      	ldrh	r3, [r1, #12]
    5ae0:	0598      	lsls	r0, r3, #22
    5ae2:	d402      	bmi.n	5aea <__svfiscanf_r+0x22>
    5ae4:	6d88      	ldr	r0, [r1, #88]	; 0x58
    5ae6:	f7ff fcc6 	bl	5476 <__retarget_lock_acquire_recursive>
    5aea:	2300      	movs	r3, #0
    5aec:	e9cd 3344 	strd	r3, r3, [sp, #272]	; 0x110
    5af0:	4ba8      	ldr	r3, [pc, #672]	; (5d94 <__svfiscanf_r+0x2cc>)
    5af2:	93a0      	str	r3, [sp, #640]	; 0x280
    5af4:	f10d 0804 	add.w	r8, sp, #4
    5af8:	4ba7      	ldr	r3, [pc, #668]	; (5d98 <__svfiscanf_r+0x2d0>)
    5afa:	4fa8      	ldr	r7, [pc, #672]	; (5d9c <__svfiscanf_r+0x2d4>)
    5afc:	f8cd 8118 	str.w	r8, [sp, #280]	; 0x118
    5b00:	93a1      	str	r3, [sp, #644]	; 0x284
    5b02:	9500      	str	r5, [sp, #0]
    5b04:	f899 3000 	ldrb.w	r3, [r9]
    5b08:	2b00      	cmp	r3, #0
    5b0a:	f000 816e 	beq.w	5dea <__svfiscanf_r+0x322>
    5b0e:	5cf9      	ldrb	r1, [r7, r3]
    5b10:	f011 0108 	ands.w	r1, r1, #8
    5b14:	f109 0501 	add.w	r5, r9, #1
    5b18:	d019      	beq.n	5b4e <__svfiscanf_r+0x86>
    5b1a:	6863      	ldr	r3, [r4, #4]
    5b1c:	2b00      	cmp	r3, #0
    5b1e:	dd0f      	ble.n	5b40 <__svfiscanf_r+0x78>
    5b20:	6823      	ldr	r3, [r4, #0]
    5b22:	781a      	ldrb	r2, [r3, #0]
    5b24:	5cba      	ldrb	r2, [r7, r2]
    5b26:	0711      	lsls	r1, r2, #28
    5b28:	d401      	bmi.n	5b2e <__svfiscanf_r+0x66>
    5b2a:	46a9      	mov	r9, r5
    5b2c:	e7ea      	b.n	5b04 <__svfiscanf_r+0x3c>
    5b2e:	9a45      	ldr	r2, [sp, #276]	; 0x114
    5b30:	3201      	adds	r2, #1
    5b32:	9245      	str	r2, [sp, #276]	; 0x114
    5b34:	6862      	ldr	r2, [r4, #4]
    5b36:	3301      	adds	r3, #1
    5b38:	3a01      	subs	r2, #1
    5b3a:	6062      	str	r2, [r4, #4]
    5b3c:	6023      	str	r3, [r4, #0]
    5b3e:	e7ec      	b.n	5b1a <__svfiscanf_r+0x52>
    5b40:	9ba1      	ldr	r3, [sp, #644]	; 0x284
    5b42:	4621      	mov	r1, r4
    5b44:	4630      	mov	r0, r6
    5b46:	4798      	blx	r3
    5b48:	2800      	cmp	r0, #0
    5b4a:	d0e9      	beq.n	5b20 <__svfiscanf_r+0x58>
    5b4c:	e7ed      	b.n	5b2a <__svfiscanf_r+0x62>
    5b4e:	2b25      	cmp	r3, #37	; 0x25
    5b50:	d012      	beq.n	5b78 <__svfiscanf_r+0xb0>
    5b52:	4699      	mov	r9, r3
    5b54:	6863      	ldr	r3, [r4, #4]
    5b56:	2b00      	cmp	r3, #0
    5b58:	f340 8095 	ble.w	5c86 <__svfiscanf_r+0x1be>
    5b5c:	6822      	ldr	r2, [r4, #0]
    5b5e:	7813      	ldrb	r3, [r2, #0]
    5b60:	454b      	cmp	r3, r9
    5b62:	f040 8142 	bne.w	5dea <__svfiscanf_r+0x322>
    5b66:	6863      	ldr	r3, [r4, #4]
    5b68:	3b01      	subs	r3, #1
    5b6a:	6063      	str	r3, [r4, #4]
    5b6c:	9b45      	ldr	r3, [sp, #276]	; 0x114
    5b6e:	3201      	adds	r2, #1
    5b70:	3301      	adds	r3, #1
    5b72:	6022      	str	r2, [r4, #0]
    5b74:	9345      	str	r3, [sp, #276]	; 0x114
    5b76:	e7d8      	b.n	5b2a <__svfiscanf_r+0x62>
    5b78:	9141      	str	r1, [sp, #260]	; 0x104
    5b7a:	9143      	str	r1, [sp, #268]	; 0x10c
    5b7c:	f899 3001 	ldrb.w	r3, [r9, #1]
    5b80:	2b2a      	cmp	r3, #42	; 0x2a
    5b82:	bf02      	ittt	eq
    5b84:	2310      	moveq	r3, #16
    5b86:	9341      	streq	r3, [sp, #260]	; 0x104
    5b88:	f109 0502 	addeq.w	r5, r9, #2
    5b8c:	220a      	movs	r2, #10
    5b8e:	46a9      	mov	r9, r5
    5b90:	f819 1b01 	ldrb.w	r1, [r9], #1
    5b94:	f1a1 0330 	sub.w	r3, r1, #48	; 0x30
    5b98:	2b09      	cmp	r3, #9
    5b9a:	d91f      	bls.n	5bdc <__svfiscanf_r+0x114>
    5b9c:	f8df a200 	ldr.w	sl, [pc, #512]	; 5da0 <__svfiscanf_r+0x2d8>
    5ba0:	2203      	movs	r2, #3
    5ba2:	4650      	mov	r0, sl
    5ba4:	f000 fecc 	bl	6940 <memchr>
    5ba8:	b138      	cbz	r0, 5bba <__svfiscanf_r+0xf2>
    5baa:	9a41      	ldr	r2, [sp, #260]	; 0x104
    5bac:	eba0 000a 	sub.w	r0, r0, sl
    5bb0:	2301      	movs	r3, #1
    5bb2:	4083      	lsls	r3, r0
    5bb4:	4313      	orrs	r3, r2
    5bb6:	9341      	str	r3, [sp, #260]	; 0x104
    5bb8:	464d      	mov	r5, r9
    5bba:	f815 3b01 	ldrb.w	r3, [r5], #1
    5bbe:	2b78      	cmp	r3, #120	; 0x78
    5bc0:	d807      	bhi.n	5bd2 <__svfiscanf_r+0x10a>
    5bc2:	2b57      	cmp	r3, #87	; 0x57
    5bc4:	d811      	bhi.n	5bea <__svfiscanf_r+0x122>
    5bc6:	2b25      	cmp	r3, #37	; 0x25
    5bc8:	d0c3      	beq.n	5b52 <__svfiscanf_r+0x8a>
    5bca:	d857      	bhi.n	5c7c <__svfiscanf_r+0x1b4>
    5bcc:	2b00      	cmp	r3, #0
    5bce:	f000 80c3 	beq.w	5d58 <__svfiscanf_r+0x290>
    5bd2:	2303      	movs	r3, #3
    5bd4:	9347      	str	r3, [sp, #284]	; 0x11c
    5bd6:	230a      	movs	r3, #10
    5bd8:	9342      	str	r3, [sp, #264]	; 0x108
    5bda:	e071      	b.n	5cc0 <__svfiscanf_r+0x1f8>
    5bdc:	9b43      	ldr	r3, [sp, #268]	; 0x10c
    5bde:	fb02 1103 	mla	r1, r2, r3, r1
    5be2:	3930      	subs	r1, #48	; 0x30
    5be4:	9143      	str	r1, [sp, #268]	; 0x10c
    5be6:	464d      	mov	r5, r9
    5be8:	e7d1      	b.n	5b8e <__svfiscanf_r+0xc6>
    5bea:	f1a3 0258 	sub.w	r2, r3, #88	; 0x58
    5bee:	2a20      	cmp	r2, #32
    5bf0:	d8ef      	bhi.n	5bd2 <__svfiscanf_r+0x10a>
    5bf2:	a101      	add	r1, pc, #4	; (adr r1, 5bf8 <__svfiscanf_r+0x130>)
    5bf4:	f851 f022 	ldr.w	pc, [r1, r2, lsl #2]
    5bf8:	00005cf5 	.word	0x00005cf5
    5bfc:	00005bd3 	.word	0x00005bd3
    5c00:	00005bd3 	.word	0x00005bd3
    5c04:	00005d17 	.word	0x00005d17
    5c08:	00005bd3 	.word	0x00005bd3
    5c0c:	00005bd3 	.word	0x00005bd3
    5c10:	00005bd3 	.word	0x00005bd3
    5c14:	00005bd3 	.word	0x00005bd3
    5c18:	00005bd3 	.word	0x00005bd3
    5c1c:	00005bd3 	.word	0x00005bd3
    5c20:	00005bd3 	.word	0x00005bd3
    5c24:	00005d2d 	.word	0x00005d2d
    5c28:	00005d13 	.word	0x00005d13
    5c2c:	00005c83 	.word	0x00005c83
    5c30:	00005c83 	.word	0x00005c83
    5c34:	00005c83 	.word	0x00005c83
    5c38:	00005bd3 	.word	0x00005bd3
    5c3c:	00005d07 	.word	0x00005d07
    5c40:	00005bd3 	.word	0x00005bd3
    5c44:	00005bd3 	.word	0x00005bd3
    5c48:	00005bd3 	.word	0x00005bd3
    5c4c:	00005bd3 	.word	0x00005bd3
    5c50:	00005d3d 	.word	0x00005d3d
    5c54:	00005d0f 	.word	0x00005d0f
    5c58:	00005cb1 	.word	0x00005cb1
    5c5c:	00005bd3 	.word	0x00005bd3
    5c60:	00005bd3 	.word	0x00005bd3
    5c64:	00005d39 	.word	0x00005d39
    5c68:	00005bd3 	.word	0x00005bd3
    5c6c:	00005d13 	.word	0x00005d13
    5c70:	00005bd3 	.word	0x00005bd3
    5c74:	00005bd3 	.word	0x00005bd3
    5c78:	00005cf5 	.word	0x00005cf5
    5c7c:	3b45      	subs	r3, #69	; 0x45
    5c7e:	2b02      	cmp	r3, #2
    5c80:	d8a7      	bhi.n	5bd2 <__svfiscanf_r+0x10a>
    5c82:	2305      	movs	r3, #5
    5c84:	e01b      	b.n	5cbe <__svfiscanf_r+0x1f6>
    5c86:	9ba1      	ldr	r3, [sp, #644]	; 0x284
    5c88:	4621      	mov	r1, r4
    5c8a:	4630      	mov	r0, r6
    5c8c:	4798      	blx	r3
    5c8e:	2800      	cmp	r0, #0
    5c90:	f43f af64 	beq.w	5b5c <__svfiscanf_r+0x94>
    5c94:	6e63      	ldr	r3, [r4, #100]	; 0x64
    5c96:	07da      	lsls	r2, r3, #31
    5c98:	f140 809f 	bpl.w	5dda <__svfiscanf_r+0x312>
    5c9c:	9844      	ldr	r0, [sp, #272]	; 0x110
    5c9e:	2800      	cmp	r0, #0
    5ca0:	d063      	beq.n	5d6a <__svfiscanf_r+0x2a2>
    5ca2:	89a3      	ldrh	r3, [r4, #12]
    5ca4:	0659      	lsls	r1, r3, #25
    5ca6:	d460      	bmi.n	5d6a <__svfiscanf_r+0x2a2>
    5ca8:	f50d 7d22 	add.w	sp, sp, #648	; 0x288
    5cac:	e8bd 87f0 	ldmia.w	sp!, {r4, r5, r6, r7, r8, r9, sl, pc}
    5cb0:	9b41      	ldr	r3, [sp, #260]	; 0x104
    5cb2:	f443 7308 	orr.w	r3, r3, #544	; 0x220
    5cb6:	9341      	str	r3, [sp, #260]	; 0x104
    5cb8:	2310      	movs	r3, #16
    5cba:	9342      	str	r3, [sp, #264]	; 0x108
    5cbc:	2304      	movs	r3, #4
    5cbe:	9347      	str	r3, [sp, #284]	; 0x11c
    5cc0:	6863      	ldr	r3, [r4, #4]
    5cc2:	2b00      	cmp	r3, #0
    5cc4:	dd54      	ble.n	5d70 <__svfiscanf_r+0x2a8>
    5cc6:	9b41      	ldr	r3, [sp, #260]	; 0x104
    5cc8:	0659      	lsls	r1, r3, #25
    5cca:	d404      	bmi.n	5cd6 <__svfiscanf_r+0x20e>
    5ccc:	6823      	ldr	r3, [r4, #0]
    5cce:	781a      	ldrb	r2, [r3, #0]
    5cd0:	5cba      	ldrb	r2, [r7, r2]
    5cd2:	0712      	lsls	r2, r2, #28
    5cd4:	d453      	bmi.n	5d7e <__svfiscanf_r+0x2b6>
    5cd6:	9b47      	ldr	r3, [sp, #284]	; 0x11c
    5cd8:	2b02      	cmp	r3, #2
    5cda:	dc6a      	bgt.n	5db2 <__svfiscanf_r+0x2ea>
    5cdc:	466b      	mov	r3, sp
    5cde:	4622      	mov	r2, r4
    5ce0:	a941      	add	r1, sp, #260	; 0x104
    5ce2:	4630      	mov	r0, r6
    5ce4:	f000 f8a2 	bl	5e2c <_scanf_chars>
    5ce8:	2801      	cmp	r0, #1
    5cea:	d07e      	beq.n	5dea <__svfiscanf_r+0x322>
    5cec:	2802      	cmp	r0, #2
    5cee:	f47f af1c 	bne.w	5b2a <__svfiscanf_r+0x62>
    5cf2:	e7cf      	b.n	5c94 <__svfiscanf_r+0x1cc>
    5cf4:	9a41      	ldr	r2, [sp, #260]	; 0x104
    5cf6:	f442 7200 	orr.w	r2, r2, #512	; 0x200
    5cfa:	9241      	str	r2, [sp, #260]	; 0x104
    5cfc:	2210      	movs	r2, #16
    5cfe:	2b6e      	cmp	r3, #110	; 0x6e
    5d00:	9242      	str	r2, [sp, #264]	; 0x108
    5d02:	d902      	bls.n	5d0a <__svfiscanf_r+0x242>
    5d04:	e7da      	b.n	5cbc <__svfiscanf_r+0x1f4>
    5d06:	2300      	movs	r3, #0
    5d08:	9342      	str	r3, [sp, #264]	; 0x108
    5d0a:	2303      	movs	r3, #3
    5d0c:	e7d7      	b.n	5cbe <__svfiscanf_r+0x1f6>
    5d0e:	2308      	movs	r3, #8
    5d10:	e7d3      	b.n	5cba <__svfiscanf_r+0x1f2>
    5d12:	220a      	movs	r2, #10
    5d14:	e7f3      	b.n	5cfe <__svfiscanf_r+0x236>
    5d16:	4629      	mov	r1, r5
    5d18:	4640      	mov	r0, r8
    5d1a:	f000 fac5 	bl	62a8 <__sccl>
    5d1e:	9b41      	ldr	r3, [sp, #260]	; 0x104
    5d20:	f043 0340 	orr.w	r3, r3, #64	; 0x40
    5d24:	9341      	str	r3, [sp, #260]	; 0x104
    5d26:	4605      	mov	r5, r0
    5d28:	2301      	movs	r3, #1
    5d2a:	e7c8      	b.n	5cbe <__svfiscanf_r+0x1f6>
    5d2c:	9b41      	ldr	r3, [sp, #260]	; 0x104
    5d2e:	f043 0340 	orr.w	r3, r3, #64	; 0x40
    5d32:	9341      	str	r3, [sp, #260]	; 0x104
    5d34:	2300      	movs	r3, #0
    5d36:	e7c2      	b.n	5cbe <__svfiscanf_r+0x1f6>
    5d38:	2302      	movs	r3, #2
    5d3a:	e7c0      	b.n	5cbe <__svfiscanf_r+0x1f6>
    5d3c:	9841      	ldr	r0, [sp, #260]	; 0x104
    5d3e:	06c3      	lsls	r3, r0, #27
    5d40:	f53f aef3 	bmi.w	5b2a <__svfiscanf_r+0x62>
    5d44:	9b00      	ldr	r3, [sp, #0]
    5d46:	9a45      	ldr	r2, [sp, #276]	; 0x114
    5d48:	1d19      	adds	r1, r3, #4
    5d4a:	9100      	str	r1, [sp, #0]
    5d4c:	681b      	ldr	r3, [r3, #0]
    5d4e:	07c0      	lsls	r0, r0, #31
    5d50:	bf4c      	ite	mi
    5d52:	801a      	strhmi	r2, [r3, #0]
    5d54:	601a      	strpl	r2, [r3, #0]
    5d56:	e6e8      	b.n	5b2a <__svfiscanf_r+0x62>
    5d58:	6e63      	ldr	r3, [r4, #100]	; 0x64
    5d5a:	07de      	lsls	r6, r3, #31
    5d5c:	d405      	bmi.n	5d6a <__svfiscanf_r+0x2a2>
    5d5e:	89a3      	ldrh	r3, [r4, #12]
    5d60:	059d      	lsls	r5, r3, #22
    5d62:	d402      	bmi.n	5d6a <__svfiscanf_r+0x2a2>
    5d64:	6da0      	ldr	r0, [r4, #88]	; 0x58
    5d66:	f7ff fb87 	bl	5478 <__retarget_lock_release_recursive>
    5d6a:	f04f 30ff 	mov.w	r0, #4294967295
    5d6e:	e79b      	b.n	5ca8 <__svfiscanf_r+0x1e0>
    5d70:	9ba1      	ldr	r3, [sp, #644]	; 0x284
    5d72:	4621      	mov	r1, r4
    5d74:	4630      	mov	r0, r6
    5d76:	4798      	blx	r3
    5d78:	2800      	cmp	r0, #0
    5d7a:	d0a4      	beq.n	5cc6 <__svfiscanf_r+0x1fe>
    5d7c:	e78a      	b.n	5c94 <__svfiscanf_r+0x1cc>
    5d7e:	9a45      	ldr	r2, [sp, #276]	; 0x114
    5d80:	3201      	adds	r2, #1
    5d82:	9245      	str	r2, [sp, #276]	; 0x114
    5d84:	6862      	ldr	r2, [r4, #4]
    5d86:	3a01      	subs	r2, #1
    5d88:	2a00      	cmp	r2, #0
    5d8a:	6062      	str	r2, [r4, #4]
    5d8c:	dd0a      	ble.n	5da4 <__svfiscanf_r+0x2dc>
    5d8e:	3301      	adds	r3, #1
    5d90:	6023      	str	r3, [r4, #0]
    5d92:	e79b      	b.n	5ccc <__svfiscanf_r+0x204>
    5d94:	0000638f 	.word	0x0000638f
    5d98:	000061c1 	.word	0x000061c1
    5d9c:	0000f7af 	.word	0x0000f7af
    5da0:	0000f766 	.word	0x0000f766
    5da4:	9ba1      	ldr	r3, [sp, #644]	; 0x284
    5da6:	4621      	mov	r1, r4
    5da8:	4630      	mov	r0, r6
    5daa:	4798      	blx	r3
    5dac:	2800      	cmp	r0, #0
    5dae:	d08d      	beq.n	5ccc <__svfiscanf_r+0x204>
    5db0:	e770      	b.n	5c94 <__svfiscanf_r+0x1cc>
    5db2:	2b04      	cmp	r3, #4
    5db4:	dc06      	bgt.n	5dc4 <__svfiscanf_r+0x2fc>
    5db6:	466b      	mov	r3, sp
    5db8:	4622      	mov	r2, r4
    5dba:	a941      	add	r1, sp, #260	; 0x104
    5dbc:	4630      	mov	r0, r6
    5dbe:	f000 f88f 	bl	5ee0 <_scanf_i>
    5dc2:	e791      	b.n	5ce8 <__svfiscanf_r+0x220>
    5dc4:	4b0e      	ldr	r3, [pc, #56]	; (5e00 <__svfiscanf_r+0x338>)
    5dc6:	2b00      	cmp	r3, #0
    5dc8:	f43f aeaf 	beq.w	5b2a <__svfiscanf_r+0x62>
    5dcc:	466b      	mov	r3, sp
    5dce:	4622      	mov	r2, r4
    5dd0:	a941      	add	r1, sp, #260	; 0x104
    5dd2:	4630      	mov	r0, r6
    5dd4:	f3af 8000 	nop.w
    5dd8:	e786      	b.n	5ce8 <__svfiscanf_r+0x220>
    5dda:	89a3      	ldrh	r3, [r4, #12]
    5ddc:	0598      	lsls	r0, r3, #22
    5dde:	f53f af5d 	bmi.w	5c9c <__svfiscanf_r+0x1d4>
    5de2:	6da0      	ldr	r0, [r4, #88]	; 0x58
    5de4:	f7ff fb48 	bl	5478 <__retarget_lock_release_recursive>
    5de8:	e758      	b.n	5c9c <__svfiscanf_r+0x1d4>
    5dea:	6e63      	ldr	r3, [r4, #100]	; 0x64
    5dec:	07da      	lsls	r2, r3, #31
    5dee:	d405      	bmi.n	5dfc <__svfiscanf_r+0x334>
    5df0:	89a3      	ldrh	r3, [r4, #12]
    5df2:	059b      	lsls	r3, r3, #22
    5df4:	d402      	bmi.n	5dfc <__svfiscanf_r+0x334>
    5df6:	6da0      	ldr	r0, [r4, #88]	; 0x58
    5df8:	f7ff fb3e 	bl	5478 <__retarget_lock_release_recursive>
    5dfc:	9844      	ldr	r0, [sp, #272]	; 0x110
    5dfe:	e753      	b.n	5ca8 <__svfiscanf_r+0x1e0>
    5e00:	00000000 	.word	0x00000000

00005e04 <_vfiscanf_r>:
    5e04:	e92d 41f0 	stmdb	sp!, {r4, r5, r6, r7, r8, lr}
    5e08:	460d      	mov	r5, r1
    5e0a:	4616      	mov	r6, r2
    5e0c:	461f      	mov	r7, r3
    5e0e:	4604      	mov	r4, r0
    5e10:	b118      	cbz	r0, 5e1a <_vfiscanf_r+0x16>
    5e12:	6a03      	ldr	r3, [r0, #32]
    5e14:	b90b      	cbnz	r3, 5e1a <_vfiscanf_r+0x16>
    5e16:	f7ff f8fd 	bl	5014 <__sinit>
    5e1a:	463b      	mov	r3, r7
    5e1c:	4632      	mov	r2, r6
    5e1e:	4629      	mov	r1, r5
    5e20:	4620      	mov	r0, r4
    5e22:	e8bd 41f0 	ldmia.w	sp!, {r4, r5, r6, r7, r8, lr}
    5e26:	f7ff be4f 	b.w	5ac8 <__svfiscanf_r>
	...

00005e2c <_scanf_chars>:
    5e2c:	e92d 43f8 	stmdb	sp!, {r3, r4, r5, r6, r7, r8, r9, lr}
    5e30:	4615      	mov	r5, r2
    5e32:	688a      	ldr	r2, [r1, #8]
    5e34:	4680      	mov	r8, r0
    5e36:	460c      	mov	r4, r1
    5e38:	b932      	cbnz	r2, 5e48 <_scanf_chars+0x1c>
    5e3a:	698a      	ldr	r2, [r1, #24]
    5e3c:	2a00      	cmp	r2, #0
    5e3e:	bf14      	ite	ne
    5e40:	f04f 32ff 	movne.w	r2, #4294967295
    5e44:	2201      	moveq	r2, #1
    5e46:	608a      	str	r2, [r1, #8]
    5e48:	6822      	ldr	r2, [r4, #0]
    5e4a:	f8df 9090 	ldr.w	r9, [pc, #144]	; 5edc <_scanf_chars+0xb0>
    5e4e:	06d1      	lsls	r1, r2, #27
    5e50:	bf5f      	itttt	pl
    5e52:	681a      	ldrpl	r2, [r3, #0]
    5e54:	1d11      	addpl	r1, r2, #4
    5e56:	6019      	strpl	r1, [r3, #0]
    5e58:	6816      	ldrpl	r6, [r2, #0]
    5e5a:	2700      	movs	r7, #0
    5e5c:	69a0      	ldr	r0, [r4, #24]
    5e5e:	b188      	cbz	r0, 5e84 <_scanf_chars+0x58>
    5e60:	2801      	cmp	r0, #1
    5e62:	d107      	bne.n	5e74 <_scanf_chars+0x48>
    5e64:	682b      	ldr	r3, [r5, #0]
    5e66:	781a      	ldrb	r2, [r3, #0]
    5e68:	6963      	ldr	r3, [r4, #20]
    5e6a:	5c9b      	ldrb	r3, [r3, r2]
    5e6c:	b953      	cbnz	r3, 5e84 <_scanf_chars+0x58>
    5e6e:	2f00      	cmp	r7, #0
    5e70:	d031      	beq.n	5ed6 <_scanf_chars+0xaa>
    5e72:	e022      	b.n	5eba <_scanf_chars+0x8e>
    5e74:	2802      	cmp	r0, #2
    5e76:	d120      	bne.n	5eba <_scanf_chars+0x8e>
    5e78:	682b      	ldr	r3, [r5, #0]
    5e7a:	781b      	ldrb	r3, [r3, #0]
    5e7c:	f819 3003 	ldrb.w	r3, [r9, r3]
    5e80:	071b      	lsls	r3, r3, #28
    5e82:	d41a      	bmi.n	5eba <_scanf_chars+0x8e>
    5e84:	6823      	ldr	r3, [r4, #0]
    5e86:	06da      	lsls	r2, r3, #27
    5e88:	bf5e      	ittt	pl
    5e8a:	682b      	ldrpl	r3, [r5, #0]
    5e8c:	781b      	ldrbpl	r3, [r3, #0]
    5e8e:	f806 3b01 	strbpl.w	r3, [r6], #1
    5e92:	682a      	ldr	r2, [r5, #0]
    5e94:	686b      	ldr	r3, [r5, #4]
    5e96:	3201      	adds	r2, #1
    5e98:	602a      	str	r2, [r5, #0]
    5e9a:	68a2      	ldr	r2, [r4, #8]
    5e9c:	3b01      	subs	r3, #1
    5e9e:	3a01      	subs	r2, #1
    5ea0:	606b      	str	r3, [r5, #4]
    5ea2:	3701      	adds	r7, #1
    5ea4:	60a2      	str	r2, [r4, #8]
    5ea6:	b142      	cbz	r2, 5eba <_scanf_chars+0x8e>
    5ea8:	2b00      	cmp	r3, #0
    5eaa:	dcd7      	bgt.n	5e5c <_scanf_chars+0x30>
    5eac:	f8d4 3180 	ldr.w	r3, [r4, #384]	; 0x180
    5eb0:	4629      	mov	r1, r5
    5eb2:	4640      	mov	r0, r8
    5eb4:	4798      	blx	r3
    5eb6:	2800      	cmp	r0, #0
    5eb8:	d0d0      	beq.n	5e5c <_scanf_chars+0x30>
    5eba:	6823      	ldr	r3, [r4, #0]
    5ebc:	f013 0310 	ands.w	r3, r3, #16
    5ec0:	d105      	bne.n	5ece <_scanf_chars+0xa2>
    5ec2:	68e2      	ldr	r2, [r4, #12]
    5ec4:	3201      	adds	r2, #1
    5ec6:	60e2      	str	r2, [r4, #12]
    5ec8:	69a2      	ldr	r2, [r4, #24]
    5eca:	b102      	cbz	r2, 5ece <_scanf_chars+0xa2>
    5ecc:	7033      	strb	r3, [r6, #0]
    5ece:	6923      	ldr	r3, [r4, #16]
    5ed0:	443b      	add	r3, r7
    5ed2:	6123      	str	r3, [r4, #16]
    5ed4:	2000      	movs	r0, #0
    5ed6:	e8bd 83f8 	ldmia.w	sp!, {r3, r4, r5, r6, r7, r8, r9, pc}
    5eda:	bf00      	nop
    5edc:	0000f7af 	.word	0x0000f7af

00005ee0 <_scanf_i>:
    5ee0:	e92d 4ff0 	stmdb	sp!, {r4, r5, r6, r7, r8, r9, sl, fp, lr}
    5ee4:	4698      	mov	r8, r3
    5ee6:	4b7a      	ldr	r3, [pc, #488]	; (60d0 <_scanf_i+0x1f0>)
    5ee8:	460c      	mov	r4, r1
    5eea:	4682      	mov	sl, r0
    5eec:	4616      	mov	r6, r2
    5eee:	e893 0007 	ldmia.w	r3, {r0, r1, r2}
    5ef2:	b087      	sub	sp, #28
    5ef4:	ab03      	add	r3, sp, #12
    5ef6:	e883 0007 	stmia.w	r3, {r0, r1, r2}
    5efa:	4b76      	ldr	r3, [pc, #472]	; (60d4 <_scanf_i+0x1f4>)
    5efc:	69a1      	ldr	r1, [r4, #24]
    5efe:	4a76      	ldr	r2, [pc, #472]	; (60d8 <_scanf_i+0x1f8>)
    5f00:	2903      	cmp	r1, #3
    5f02:	bf08      	it	eq
    5f04:	461a      	moveq	r2, r3
    5f06:	68a3      	ldr	r3, [r4, #8]
    5f08:	9201      	str	r2, [sp, #4]
    5f0a:	1e5a      	subs	r2, r3, #1
    5f0c:	f5b2 7fae 	cmp.w	r2, #348	; 0x15c
    5f10:	bf88      	it	hi
    5f12:	f46f 75ae 	mvnhi.w	r5, #348	; 0x15c
    5f16:	4627      	mov	r7, r4
    5f18:	bf82      	ittt	hi
    5f1a:	eb03 0905 	addhi.w	r9, r3, r5
    5f1e:	f240 135d 	movwhi	r3, #349	; 0x15d
    5f22:	60a3      	strhi	r3, [r4, #8]
    5f24:	f857 3b1c 	ldr.w	r3, [r7], #28
    5f28:	f443 6350 	orr.w	r3, r3, #3328	; 0xd00
    5f2c:	bf98      	it	ls
    5f2e:	f04f 0900 	movls.w	r9, #0
    5f32:	6023      	str	r3, [r4, #0]
    5f34:	463d      	mov	r5, r7
    5f36:	f04f 0b00 	mov.w	fp, #0
    5f3a:	6831      	ldr	r1, [r6, #0]
    5f3c:	ab03      	add	r3, sp, #12
    5f3e:	7809      	ldrb	r1, [r1, #0]
    5f40:	f853 002b 	ldr.w	r0, [r3, fp, lsl #2]
    5f44:	2202      	movs	r2, #2
    5f46:	f000 fcfb 	bl	6940 <memchr>
    5f4a:	2800      	cmp	r0, #0
    5f4c:	d040      	beq.n	5fd0 <_scanf_i+0xf0>
    5f4e:	f1bb 0f01 	cmp.w	fp, #1
    5f52:	d112      	bne.n	5f7a <_scanf_i+0x9a>
    5f54:	6862      	ldr	r2, [r4, #4]
    5f56:	b92a      	cbnz	r2, 5f64 <_scanf_i+0x84>
    5f58:	6822      	ldr	r2, [r4, #0]
    5f5a:	2108      	movs	r1, #8
    5f5c:	f442 7200 	orr.w	r2, r2, #512	; 0x200
    5f60:	6061      	str	r1, [r4, #4]
    5f62:	6022      	str	r2, [r4, #0]
    5f64:	6822      	ldr	r2, [r4, #0]
    5f66:	f422 62a0 	bic.w	r2, r2, #1280	; 0x500
    5f6a:	6022      	str	r2, [r4, #0]
    5f6c:	68a2      	ldr	r2, [r4, #8]
    5f6e:	1e51      	subs	r1, r2, #1
    5f70:	60a1      	str	r1, [r4, #8]
    5f72:	b9da      	cbnz	r2, 5fac <_scanf_i+0xcc>
    5f74:	f04f 0b02 	mov.w	fp, #2
    5f78:	e7df      	b.n	5f3a <_scanf_i+0x5a>
    5f7a:	f1bb 0f02 	cmp.w	fp, #2
    5f7e:	d006      	beq.n	5f8e <_scanf_i+0xae>
    5f80:	68a2      	ldr	r2, [r4, #8]
    5f82:	1e51      	subs	r1, r2, #1
    5f84:	60a1      	str	r1, [r4, #8]
    5f86:	b98a      	cbnz	r2, 5fac <_scanf_i+0xcc>
    5f88:	f04f 0b01 	mov.w	fp, #1
    5f8c:	e7d5      	b.n	5f3a <_scanf_i+0x5a>
    5f8e:	6822      	ldr	r2, [r4, #0]
    5f90:	f402 61c0 	and.w	r1, r2, #1536	; 0x600
    5f94:	f5b1 7f00 	cmp.w	r1, #512	; 0x200
    5f98:	d11f      	bne.n	5fda <_scanf_i+0xfa>
    5f9a:	f442 7280 	orr.w	r2, r2, #256	; 0x100
    5f9e:	6022      	str	r2, [r4, #0]
    5fa0:	68a2      	ldr	r2, [r4, #8]
    5fa2:	2110      	movs	r1, #16
    5fa4:	6061      	str	r1, [r4, #4]
    5fa6:	1e51      	subs	r1, r2, #1
    5fa8:	60a1      	str	r1, [r4, #8]
    5faa:	b1b2      	cbz	r2, 5fda <_scanf_i+0xfa>
    5fac:	6832      	ldr	r2, [r6, #0]
    5fae:	1c51      	adds	r1, r2, #1
    5fb0:	6031      	str	r1, [r6, #0]
    5fb2:	7812      	ldrb	r2, [r2, #0]
    5fb4:	f805 2b01 	strb.w	r2, [r5], #1
    5fb8:	6872      	ldr	r2, [r6, #4]
    5fba:	3a01      	subs	r2, #1
    5fbc:	2a00      	cmp	r2, #0
    5fbe:	6072      	str	r2, [r6, #4]
    5fc0:	dc06      	bgt.n	5fd0 <_scanf_i+0xf0>
    5fc2:	f8d4 2180 	ldr.w	r2, [r4, #384]	; 0x180
    5fc6:	4631      	mov	r1, r6
    5fc8:	4650      	mov	r0, sl
    5fca:	4790      	blx	r2
    5fcc:	2800      	cmp	r0, #0
    5fce:	d174      	bne.n	60ba <_scanf_i+0x1da>
    5fd0:	f10b 0b01 	add.w	fp, fp, #1
    5fd4:	f1bb 0f03 	cmp.w	fp, #3
    5fd8:	d1af      	bne.n	5f3a <_scanf_i+0x5a>
    5fda:	6863      	ldr	r3, [r4, #4]
    5fdc:	b90b      	cbnz	r3, 5fe2 <_scanf_i+0x102>
    5fde:	230a      	movs	r3, #10
    5fe0:	6063      	str	r3, [r4, #4]
    5fe2:	6863      	ldr	r3, [r4, #4]
    5fe4:	493d      	ldr	r1, [pc, #244]	; (60dc <_scanf_i+0x1fc>)
    5fe6:	6960      	ldr	r0, [r4, #20]
    5fe8:	1ac9      	subs	r1, r1, r3
    5fea:	f000 f95d 	bl	62a8 <__sccl>
    5fee:	f04f 0b00 	mov.w	fp, #0
    5ff2:	68a3      	ldr	r3, [r4, #8]
    5ff4:	6822      	ldr	r2, [r4, #0]
    5ff6:	b373      	cbz	r3, 6056 <_scanf_i+0x176>
    5ff8:	6831      	ldr	r1, [r6, #0]
    5ffa:	6960      	ldr	r0, [r4, #20]
    5ffc:	f891 c000 	ldrb.w	ip, [r1]
    6000:	f810 000c 	ldrb.w	r0, [r0, ip]
    6004:	b338      	cbz	r0, 6056 <_scanf_i+0x176>
    6006:	f1bc 0f30 	cmp.w	ip, #48	; 0x30
    600a:	d116      	bne.n	603a <_scanf_i+0x15a>
    600c:	0510      	lsls	r0, r2, #20
    600e:	d514      	bpl.n	603a <_scanf_i+0x15a>
    6010:	f10b 0b01 	add.w	fp, fp, #1
    6014:	f1b9 0f00 	cmp.w	r9, #0
    6018:	d003      	beq.n	6022 <_scanf_i+0x142>
    601a:	3301      	adds	r3, #1
    601c:	f109 39ff 	add.w	r9, r9, #4294967295
    6020:	60a3      	str	r3, [r4, #8]
    6022:	6873      	ldr	r3, [r6, #4]
    6024:	3b01      	subs	r3, #1
    6026:	2b00      	cmp	r3, #0
    6028:	6073      	str	r3, [r6, #4]
    602a:	dd0d      	ble.n	6048 <_scanf_i+0x168>
    602c:	6833      	ldr	r3, [r6, #0]
    602e:	3301      	adds	r3, #1
    6030:	6033      	str	r3, [r6, #0]
    6032:	68a3      	ldr	r3, [r4, #8]
    6034:	3b01      	subs	r3, #1
    6036:	60a3      	str	r3, [r4, #8]
    6038:	e7db      	b.n	5ff2 <_scanf_i+0x112>
    603a:	f422 6210 	bic.w	r2, r2, #2304	; 0x900
    603e:	6022      	str	r2, [r4, #0]
    6040:	780b      	ldrb	r3, [r1, #0]
    6042:	f805 3b01 	strb.w	r3, [r5], #1
    6046:	e7ec      	b.n	6022 <_scanf_i+0x142>
    6048:	f8d4 3180 	ldr.w	r3, [r4, #384]	; 0x180
    604c:	4631      	mov	r1, r6
    604e:	4650      	mov	r0, sl
    6050:	4798      	blx	r3
    6052:	2800      	cmp	r0, #0
    6054:	d0ed      	beq.n	6032 <_scanf_i+0x152>
    6056:	6823      	ldr	r3, [r4, #0]
    6058:	05d9      	lsls	r1, r3, #23
    605a:	d50d      	bpl.n	6078 <_scanf_i+0x198>
    605c:	42bd      	cmp	r5, r7
    605e:	d909      	bls.n	6074 <_scanf_i+0x194>
    6060:	f815 1c01 	ldrb.w	r1, [r5, #-1]
    6064:	f8d4 317c 	ldr.w	r3, [r4, #380]	; 0x17c
    6068:	4632      	mov	r2, r6
    606a:	4650      	mov	r0, sl
    606c:	4798      	blx	r3
    606e:	f105 39ff 	add.w	r9, r5, #4294967295
    6072:	464d      	mov	r5, r9
    6074:	42bd      	cmp	r5, r7
    6076:	d028      	beq.n	60ca <_scanf_i+0x1ea>
    6078:	6822      	ldr	r2, [r4, #0]
    607a:	f012 0210 	ands.w	r2, r2, #16
    607e:	d113      	bne.n	60a8 <_scanf_i+0x1c8>
    6080:	702a      	strb	r2, [r5, #0]
    6082:	6863      	ldr	r3, [r4, #4]
    6084:	9e01      	ldr	r6, [sp, #4]
    6086:	4639      	mov	r1, r7
    6088:	4650      	mov	r0, sl
    608a:	47b0      	blx	r6
    608c:	f8d8 3000 	ldr.w	r3, [r8]
    6090:	6821      	ldr	r1, [r4, #0]
    6092:	1d1a      	adds	r2, r3, #4
    6094:	f8c8 2000 	str.w	r2, [r8]
    6098:	f011 0f20 	tst.w	r1, #32
    609c:	681b      	ldr	r3, [r3, #0]
    609e:	d00f      	beq.n	60c0 <_scanf_i+0x1e0>
    60a0:	6018      	str	r0, [r3, #0]
    60a2:	68e3      	ldr	r3, [r4, #12]
    60a4:	3301      	adds	r3, #1
    60a6:	60e3      	str	r3, [r4, #12]
    60a8:	6923      	ldr	r3, [r4, #16]
    60aa:	1bed      	subs	r5, r5, r7
    60ac:	445d      	add	r5, fp
    60ae:	442b      	add	r3, r5
    60b0:	6123      	str	r3, [r4, #16]
    60b2:	2000      	movs	r0, #0
    60b4:	b007      	add	sp, #28
    60b6:	e8bd 8ff0 	ldmia.w	sp!, {r4, r5, r6, r7, r8, r9, sl, fp, pc}
    60ba:	f04f 0b00 	mov.w	fp, #0
    60be:	e7ca      	b.n	6056 <_scanf_i+0x176>
    60c0:	07ca      	lsls	r2, r1, #31
    60c2:	bf4c      	ite	mi
    60c4:	8018      	strhmi	r0, [r3, #0]
    60c6:	6018      	strpl	r0, [r3, #0]
    60c8:	e7eb      	b.n	60a2 <_scanf_i+0x1c2>
    60ca:	2001      	movs	r0, #1
    60cc:	e7f2      	b.n	60b4 <_scanf_i+0x1d4>
    60ce:	bf00      	nop
    60d0:	00006a44 	.word	0x00006a44
    60d4:	0000676d 	.word	0x0000676d
    60d8:	00006855 	.word	0x00006855
    60dc:	0000f7a3 	.word	0x0000f7a3

000060e0 <__swhatbuf_r>:
    60e0:	b570      	push	{r4, r5, r6, lr}
    60e2:	460c      	mov	r4, r1
    60e4:	f9b1 100e 	ldrsh.w	r1, [r1, #14]
    60e8:	2900      	cmp	r1, #0
    60ea:	b096      	sub	sp, #88	; 0x58
    60ec:	4615      	mov	r5, r2
    60ee:	461e      	mov	r6, r3
    60f0:	da0d      	bge.n	610e <__swhatbuf_r+0x2e>
    60f2:	89a3      	ldrh	r3, [r4, #12]
    60f4:	f013 0f80 	tst.w	r3, #128	; 0x80
    60f8:	f04f 0100 	mov.w	r1, #0
    60fc:	bf14      	ite	ne
    60fe:	2340      	movne	r3, #64	; 0x40
    6100:	f44f 6380 	moveq.w	r3, #1024	; 0x400
    6104:	2000      	movs	r0, #0
    6106:	6031      	str	r1, [r6, #0]
    6108:	602b      	str	r3, [r5, #0]
    610a:	b016      	add	sp, #88	; 0x58
    610c:	bd70      	pop	{r4, r5, r6, pc}
    610e:	466a      	mov	r2, sp
    6110:	f000 fa50 	bl	65b4 <_fstat_r>
    6114:	2800      	cmp	r0, #0
    6116:	dbec      	blt.n	60f2 <__swhatbuf_r+0x12>
    6118:	9901      	ldr	r1, [sp, #4]
    611a:	f401 4170 	and.w	r1, r1, #61440	; 0xf000
    611e:	f5a1 5300 	sub.w	r3, r1, #8192	; 0x2000
    6122:	4259      	negs	r1, r3
    6124:	4159      	adcs	r1, r3
    6126:	f44f 6380 	mov.w	r3, #1024	; 0x400
    612a:	e7eb      	b.n	6104 <__swhatbuf_r+0x24>

0000612c <__smakebuf_r>:
    612c:	898b      	ldrh	r3, [r1, #12]
    612e:	b5f7      	push	{r0, r1, r2, r4, r5, r6, r7, lr}
    6130:	079d      	lsls	r5, r3, #30
    6132:	4606      	mov	r6, r0
    6134:	460c      	mov	r4, r1
    6136:	d507      	bpl.n	6148 <__smakebuf_r+0x1c>
    6138:	f104 0347 	add.w	r3, r4, #71	; 0x47
    613c:	6023      	str	r3, [r4, #0]
    613e:	6123      	str	r3, [r4, #16]
    6140:	2301      	movs	r3, #1
    6142:	6163      	str	r3, [r4, #20]
    6144:	b003      	add	sp, #12
    6146:	bdf0      	pop	{r4, r5, r6, r7, pc}
    6148:	ab01      	add	r3, sp, #4
    614a:	466a      	mov	r2, sp
    614c:	f7ff ffc8 	bl	60e0 <__swhatbuf_r>
    6150:	9f00      	ldr	r7, [sp, #0]
    6152:	4605      	mov	r5, r0
    6154:	4639      	mov	r1, r7
    6156:	4630      	mov	r0, r6
    6158:	f7fe fd7e 	bl	4c58 <_malloc_r>
    615c:	b948      	cbnz	r0, 6172 <__smakebuf_r+0x46>
    615e:	f9b4 300c 	ldrsh.w	r3, [r4, #12]
    6162:	059a      	lsls	r2, r3, #22
    6164:	d4ee      	bmi.n	6144 <__smakebuf_r+0x18>
    6166:	f023 0303 	bic.w	r3, r3, #3
    616a:	f043 0302 	orr.w	r3, r3, #2
    616e:	81a3      	strh	r3, [r4, #12]
    6170:	e7e2      	b.n	6138 <__smakebuf_r+0xc>
    6172:	89a3      	ldrh	r3, [r4, #12]
    6174:	6020      	str	r0, [r4, #0]
    6176:	f043 0380 	orr.w	r3, r3, #128	; 0x80
    617a:	81a3      	strh	r3, [r4, #12]
    617c:	9b01      	ldr	r3, [sp, #4]
    617e:	e9c4 0704 	strd	r0, r7, [r4, #16]
    6182:	b15b      	cbz	r3, 619c <__smakebuf_r+0x70>
    6184:	f9b4 100e 	ldrsh.w	r1, [r4, #14]
    6188:	4630      	mov	r0, r6
    618a:	f000 fa25 	bl	65d8 <_isatty_r>
    618e:	b128      	cbz	r0, 619c <__smakebuf_r+0x70>
    6190:	89a3      	ldrh	r3, [r4, #12]
    6192:	f023 0303 	bic.w	r3, r3, #3
    6196:	f043 0301 	orr.w	r3, r3, #1
    619a:	81a3      	strh	r3, [r4, #12]
    619c:	89a3      	ldrh	r3, [r4, #12]
    619e:	431d      	orrs	r5, r3
    61a0:	81a5      	strh	r5, [r4, #12]
    61a2:	e7cf      	b.n	6144 <__smakebuf_r+0x18>

000061a4 <lflush>:
    61a4:	898b      	ldrh	r3, [r1, #12]
    61a6:	f003 0309 	and.w	r3, r3, #9
    61aa:	2b09      	cmp	r3, #9
    61ac:	d103      	bne.n	61b6 <lflush+0x12>
    61ae:	4b03      	ldr	r3, [pc, #12]	; (61bc <lflush+0x18>)
    61b0:	6818      	ldr	r0, [r3, #0]
    61b2:	f7fe be67 	b.w	4e84 <_fflush_r>
    61b6:	2000      	movs	r0, #0
    61b8:	4770      	bx	lr
    61ba:	bf00      	nop
    61bc:	20000048 	.word	0x20000048

000061c0 <__srefill_r>:
    61c0:	b570      	push	{r4, r5, r6, lr}
    61c2:	460c      	mov	r4, r1
    61c4:	4605      	mov	r5, r0
    61c6:	b118      	cbz	r0, 61d0 <__srefill_r+0x10>
    61c8:	6a03      	ldr	r3, [r0, #32]
    61ca:	b90b      	cbnz	r3, 61d0 <__srefill_r+0x10>
    61cc:	f7fe ff22 	bl	5014 <__sinit>
    61d0:	2300      	movs	r3, #0
    61d2:	6063      	str	r3, [r4, #4]
    61d4:	f9b4 300c 	ldrsh.w	r3, [r4, #12]
    61d8:	069e      	lsls	r6, r3, #26
    61da:	d408      	bmi.n	61ee <__srefill_r+0x2e>
    61dc:	0758      	lsls	r0, r3, #29
    61de:	d445      	bmi.n	626c <__srefill_r+0xac>
    61e0:	06d9      	lsls	r1, r3, #27
    61e2:	d407      	bmi.n	61f4 <__srefill_r+0x34>
    61e4:	2209      	movs	r2, #9
    61e6:	602a      	str	r2, [r5, #0]
    61e8:	f043 0340 	orr.w	r3, r3, #64	; 0x40
    61ec:	81a3      	strh	r3, [r4, #12]
    61ee:	f04f 30ff 	mov.w	r0, #4294967295
    61f2:	bd70      	pop	{r4, r5, r6, pc}
    61f4:	071a      	lsls	r2, r3, #28
    61f6:	d50b      	bpl.n	6210 <__srefill_r+0x50>
    61f8:	4621      	mov	r1, r4
    61fa:	4628      	mov	r0, r5
    61fc:	f7fe fe42 	bl	4e84 <_fflush_r>
    6200:	2800      	cmp	r0, #0
    6202:	d1f4      	bne.n	61ee <__srefill_r+0x2e>
    6204:	89a3      	ldrh	r3, [r4, #12]
    6206:	60a0      	str	r0, [r4, #8]
    6208:	f023 0308 	bic.w	r3, r3, #8
    620c:	81a3      	strh	r3, [r4, #12]
    620e:	61a0      	str	r0, [r4, #24]
    6210:	89a3      	ldrh	r3, [r4, #12]
    6212:	f043 0304 	orr.w	r3, r3, #4
    6216:	81a3      	strh	r3, [r4, #12]
    6218:	6923      	ldr	r3, [r4, #16]
    621a:	b91b      	cbnz	r3, 6224 <__srefill_r+0x64>
    621c:	4621      	mov	r1, r4
    621e:	4628      	mov	r0, r5
    6220:	f7ff ff84 	bl	612c <__smakebuf_r>
    6224:	f9b4 600c 	ldrsh.w	r6, [r4, #12]
    6228:	07b3      	lsls	r3, r6, #30
    622a:	d00f      	beq.n	624c <__srefill_r+0x8c>
    622c:	2301      	movs	r3, #1
    622e:	4a1b      	ldr	r2, [pc, #108]	; (629c <__srefill_r+0xdc>)
    6230:	491b      	ldr	r1, [pc, #108]	; (62a0 <__srefill_r+0xe0>)
    6232:	481c      	ldr	r0, [pc, #112]	; (62a4 <__srefill_r+0xe4>)
    6234:	81a3      	strh	r3, [r4, #12]
    6236:	f7fe ff05 	bl	5044 <_fwalk_sglue>
    623a:	81a6      	strh	r6, [r4, #12]
    623c:	f006 0609 	and.w	r6, r6, #9
    6240:	2e09      	cmp	r6, #9
    6242:	d103      	bne.n	624c <__srefill_r+0x8c>
    6244:	4621      	mov	r1, r4
    6246:	4628      	mov	r0, r5
    6248:	f7fe fd98 	bl	4d7c <__sflush_r>
    624c:	6922      	ldr	r2, [r4, #16]
    624e:	6a66      	ldr	r6, [r4, #36]	; 0x24
    6250:	6963      	ldr	r3, [r4, #20]
    6252:	6a21      	ldr	r1, [r4, #32]
    6254:	6022      	str	r2, [r4, #0]
    6256:	4628      	mov	r0, r5
    6258:	47b0      	blx	r6
    625a:	2800      	cmp	r0, #0
    625c:	6060      	str	r0, [r4, #4]
    625e:	dc17      	bgt.n	6290 <__srefill_r+0xd0>
    6260:	f9b4 300c 	ldrsh.w	r3, [r4, #12]
    6264:	d116      	bne.n	6294 <__srefill_r+0xd4>
    6266:	f043 0320 	orr.w	r3, r3, #32
    626a:	e7bf      	b.n	61ec <__srefill_r+0x2c>
    626c:	6b61      	ldr	r1, [r4, #52]	; 0x34
    626e:	2900      	cmp	r1, #0
    6270:	d0d2      	beq.n	6218 <__srefill_r+0x58>
    6272:	f104 0344 	add.w	r3, r4, #68	; 0x44
    6276:	4299      	cmp	r1, r3
    6278:	d002      	beq.n	6280 <__srefill_r+0xc0>
    627a:	4628      	mov	r0, r5
    627c:	f7ff f8fe 	bl	547c <_free_r>
    6280:	2300      	movs	r3, #0
    6282:	6363      	str	r3, [r4, #52]	; 0x34
    6284:	6c23      	ldr	r3, [r4, #64]	; 0x40
    6286:	6063      	str	r3, [r4, #4]
    6288:	2b00      	cmp	r3, #0
    628a:	d0c5      	beq.n	6218 <__srefill_r+0x58>
    628c:	6be3      	ldr	r3, [r4, #60]	; 0x3c
    628e:	6023      	str	r3, [r4, #0]
    6290:	2000      	movs	r0, #0
    6292:	e7ae      	b.n	61f2 <__srefill_r+0x32>
    6294:	2200      	movs	r2, #0
    6296:	6062      	str	r2, [r4, #4]
    6298:	e7a6      	b.n	61e8 <__srefill_r+0x28>
    629a:	bf00      	nop
    629c:	2000003c 	.word	0x2000003c
    62a0:	000061a5 	.word	0x000061a5
    62a4:	2000004c 	.word	0x2000004c

000062a8 <__sccl>:
    62a8:	b570      	push	{r4, r5, r6, lr}
    62aa:	780b      	ldrb	r3, [r1, #0]
    62ac:	4604      	mov	r4, r0
    62ae:	2b5e      	cmp	r3, #94	; 0x5e
    62b0:	bf0b      	itete	eq
    62b2:	784b      	ldrbeq	r3, [r1, #1]
    62b4:	1c4a      	addne	r2, r1, #1
    62b6:	1c8a      	addeq	r2, r1, #2
    62b8:	2100      	movne	r1, #0
    62ba:	bf08      	it	eq
    62bc:	2101      	moveq	r1, #1
    62be:	3801      	subs	r0, #1
    62c0:	f104 05ff 	add.w	r5, r4, #255	; 0xff
    62c4:	f800 1f01 	strb.w	r1, [r0, #1]!
    62c8:	42a8      	cmp	r0, r5
    62ca:	d1fb      	bne.n	62c4 <__sccl+0x1c>
    62cc:	b90b      	cbnz	r3, 62d2 <__sccl+0x2a>
    62ce:	1e50      	subs	r0, r2, #1
    62d0:	bd70      	pop	{r4, r5, r6, pc}
    62d2:	f081 0101 	eor.w	r1, r1, #1
    62d6:	54e1      	strb	r1, [r4, r3]
    62d8:	4610      	mov	r0, r2
    62da:	4602      	mov	r2, r0
    62dc:	f812 5b01 	ldrb.w	r5, [r2], #1
    62e0:	2d2d      	cmp	r5, #45	; 0x2d
    62e2:	d005      	beq.n	62f0 <__sccl+0x48>
    62e4:	2d5d      	cmp	r5, #93	; 0x5d
    62e6:	d016      	beq.n	6316 <__sccl+0x6e>
    62e8:	2d00      	cmp	r5, #0
    62ea:	d0f1      	beq.n	62d0 <__sccl+0x28>
    62ec:	462b      	mov	r3, r5
    62ee:	e7f2      	b.n	62d6 <__sccl+0x2e>
    62f0:	7846      	ldrb	r6, [r0, #1]
    62f2:	2e5d      	cmp	r6, #93	; 0x5d
    62f4:	d0fa      	beq.n	62ec <__sccl+0x44>
    62f6:	42b3      	cmp	r3, r6
    62f8:	dcf8      	bgt.n	62ec <__sccl+0x44>
    62fa:	3002      	adds	r0, #2
    62fc:	461a      	mov	r2, r3
    62fe:	3201      	adds	r2, #1
    6300:	4296      	cmp	r6, r2
    6302:	54a1      	strb	r1, [r4, r2]
    6304:	dcfb      	bgt.n	62fe <__sccl+0x56>
    6306:	1af2      	subs	r2, r6, r3
    6308:	3a01      	subs	r2, #1
    630a:	1c5d      	adds	r5, r3, #1
    630c:	42b3      	cmp	r3, r6
    630e:	bfa8      	it	ge
    6310:	2200      	movge	r2, #0
    6312:	18ab      	adds	r3, r5, r2
    6314:	e7e1      	b.n	62da <__sccl+0x32>
    6316:	4610      	mov	r0, r2
    6318:	e7da      	b.n	62d0 <__sccl+0x28>

0000631a <__submore>:
    631a:	e92d 41f0 	stmdb	sp!, {r4, r5, r6, r7, r8, lr}
    631e:	460c      	mov	r4, r1
    6320:	6b49      	ldr	r1, [r1, #52]	; 0x34
    6322:	f104 0344 	add.w	r3, r4, #68	; 0x44
    6326:	4299      	cmp	r1, r3
    6328:	d11d      	bne.n	6366 <__submore+0x4c>
    632a:	f44f 6180 	mov.w	r1, #1024	; 0x400
    632e:	f7fe fc93 	bl	4c58 <_malloc_r>
    6332:	b918      	cbnz	r0, 633c <__submore+0x22>
    6334:	f04f 30ff 	mov.w	r0, #4294967295
    6338:	e8bd 81f0 	ldmia.w	sp!, {r4, r5, r6, r7, r8, pc}
    633c:	f44f 6380 	mov.w	r3, #1024	; 0x400
    6340:	63a3      	str	r3, [r4, #56]	; 0x38
    6342:	f894 3046 	ldrb.w	r3, [r4, #70]	; 0x46
    6346:	6360      	str	r0, [r4, #52]	; 0x34
    6348:	f880 33ff 	strb.w	r3, [r0, #1023]	; 0x3ff
    634c:	f894 3045 	ldrb.w	r3, [r4, #69]	; 0x45
    6350:	f880 33fe 	strb.w	r3, [r0, #1022]	; 0x3fe
    6354:	f894 3044 	ldrb.w	r3, [r4, #68]	; 0x44
    6358:	f880 33fd 	strb.w	r3, [r0, #1021]	; 0x3fd
    635c:	f200 30fd 	addw	r0, r0, #1021	; 0x3fd
    6360:	6020      	str	r0, [r4, #0]
    6362:	2000      	movs	r0, #0
    6364:	e7e8      	b.n	6338 <__submore+0x1e>
    6366:	6ba6      	ldr	r6, [r4, #56]	; 0x38
    6368:	0077      	lsls	r7, r6, #1
    636a:	463a      	mov	r2, r7
    636c:	f000 f952 	bl	6614 <_realloc_r>
    6370:	4605      	mov	r5, r0
    6372:	2800      	cmp	r0, #0
    6374:	d0de      	beq.n	6334 <__submore+0x1a>
    6376:	eb00 0806 	add.w	r8, r0, r6
    637a:	4601      	mov	r1, r0
    637c:	4632      	mov	r2, r6
    637e:	4640      	mov	r0, r8
    6380:	f000 f93a 	bl	65f8 <memcpy>
    6384:	e9c4 570d 	strd	r5, r7, [r4, #52]	; 0x34
    6388:	f8c4 8000 	str.w	r8, [r4]
    638c:	e7e9      	b.n	6362 <__submore+0x48>

0000638e <_ungetc_r>:
    638e:	b570      	push	{r4, r5, r6, lr}
    6390:	460d      	mov	r5, r1
    6392:	1c69      	adds	r1, r5, #1
    6394:	4606      	mov	r6, r0
    6396:	4614      	mov	r4, r2
    6398:	d01e      	beq.n	63d8 <_ungetc_r+0x4a>
    639a:	b118      	cbz	r0, 63a4 <_ungetc_r+0x16>
    639c:	6a03      	ldr	r3, [r0, #32]
    639e:	b90b      	cbnz	r3, 63a4 <_ungetc_r+0x16>
    63a0:	f7fe fe38 	bl	5014 <__sinit>
    63a4:	6e63      	ldr	r3, [r4, #100]	; 0x64
    63a6:	07da      	lsls	r2, r3, #31
    63a8:	d405      	bmi.n	63b6 <_ungetc_r+0x28>
    63aa:	89a3      	ldrh	r3, [r4, #12]
    63ac:	059b      	lsls	r3, r3, #22
    63ae:	d402      	bmi.n	63b6 <_ungetc_r+0x28>
    63b0:	6da0      	ldr	r0, [r4, #88]	; 0x58
    63b2:	f7ff f860 	bl	5476 <__retarget_lock_acquire_recursive>
    63b6:	f9b4 300c 	ldrsh.w	r3, [r4, #12]
    63ba:	f023 0220 	bic.w	r2, r3, #32
    63be:	0758      	lsls	r0, r3, #29
    63c0:	81a2      	strh	r2, [r4, #12]
    63c2:	d422      	bmi.n	640a <_ungetc_r+0x7c>
    63c4:	06d9      	lsls	r1, r3, #27
    63c6:	d40a      	bmi.n	63de <_ungetc_r+0x50>
    63c8:	6e62      	ldr	r2, [r4, #100]	; 0x64
    63ca:	07d2      	lsls	r2, r2, #31
    63cc:	d404      	bmi.n	63d8 <_ungetc_r+0x4a>
    63ce:	0599      	lsls	r1, r3, #22
    63d0:	d402      	bmi.n	63d8 <_ungetc_r+0x4a>
    63d2:	6da0      	ldr	r0, [r4, #88]	; 0x58
    63d4:	f7ff f850 	bl	5478 <__retarget_lock_release_recursive>
    63d8:	f04f 35ff 	mov.w	r5, #4294967295
    63dc:	e046      	b.n	646c <_ungetc_r+0xde>
    63de:	071b      	lsls	r3, r3, #28
    63e0:	d50f      	bpl.n	6402 <_ungetc_r+0x74>
    63e2:	4621      	mov	r1, r4
    63e4:	4630      	mov	r0, r6
    63e6:	f7fe fd4d 	bl	4e84 <_fflush_r>
    63ea:	b120      	cbz	r0, 63f6 <_ungetc_r+0x68>
    63ec:	6e63      	ldr	r3, [r4, #100]	; 0x64
    63ee:	07d8      	lsls	r0, r3, #31
    63f0:	d4f2      	bmi.n	63d8 <_ungetc_r+0x4a>
    63f2:	89a3      	ldrh	r3, [r4, #12]
    63f4:	e7eb      	b.n	63ce <_ungetc_r+0x40>
    63f6:	89a3      	ldrh	r3, [r4, #12]
    63f8:	60a0      	str	r0, [r4, #8]
    63fa:	f023 0308 	bic.w	r3, r3, #8
    63fe:	81a3      	strh	r3, [r4, #12]
    6400:	61a0      	str	r0, [r4, #24]
    6402:	89a3      	ldrh	r3, [r4, #12]
    6404:	f043 0304 	orr.w	r3, r3, #4
    6408:	81a3      	strh	r3, [r4, #12]
    640a:	6b63      	ldr	r3, [r4, #52]	; 0x34
    640c:	6862      	ldr	r2, [r4, #4]
    640e:	b2ed      	uxtb	r5, r5
    6410:	b1d3      	cbz	r3, 6448 <_ungetc_r+0xba>
    6412:	6ba3      	ldr	r3, [r4, #56]	; 0x38
    6414:	4293      	cmp	r3, r2
    6416:	dc05      	bgt.n	6424 <_ungetc_r+0x96>
    6418:	4621      	mov	r1, r4
    641a:	4630      	mov	r0, r6
    641c:	f7ff ff7d 	bl	631a <__submore>
    6420:	2800      	cmp	r0, #0
    6422:	d1e3      	bne.n	63ec <_ungetc_r+0x5e>
    6424:	6823      	ldr	r3, [r4, #0]
    6426:	1e5a      	subs	r2, r3, #1
    6428:	6022      	str	r2, [r4, #0]
    642a:	f803 5c01 	strb.w	r5, [r3, #-1]
    642e:	6863      	ldr	r3, [r4, #4]
    6430:	3301      	adds	r3, #1
    6432:	6063      	str	r3, [r4, #4]
    6434:	6e63      	ldr	r3, [r4, #100]	; 0x64
    6436:	07da      	lsls	r2, r3, #31
    6438:	d418      	bmi.n	646c <_ungetc_r+0xde>
    643a:	89a3      	ldrh	r3, [r4, #12]
    643c:	059b      	lsls	r3, r3, #22
    643e:	d415      	bmi.n	646c <_ungetc_r+0xde>
    6440:	6da0      	ldr	r0, [r4, #88]	; 0x58
    6442:	f7ff f819 	bl	5478 <__retarget_lock_release_recursive>
    6446:	e011      	b.n	646c <_ungetc_r+0xde>
    6448:	6e61      	ldr	r1, [r4, #100]	; 0x64
    644a:	6920      	ldr	r0, [r4, #16]
    644c:	6823      	ldr	r3, [r4, #0]
    644e:	f001 0101 	and.w	r1, r1, #1
    6452:	b168      	cbz	r0, 6470 <_ungetc_r+0xe2>
    6454:	4298      	cmp	r0, r3
    6456:	d20b      	bcs.n	6470 <_ungetc_r+0xe2>
    6458:	f813 0c01 	ldrb.w	r0, [r3, #-1]
    645c:	42a8      	cmp	r0, r5
    645e:	d107      	bne.n	6470 <_ungetc_r+0xe2>
    6460:	3b01      	subs	r3, #1
    6462:	3201      	adds	r2, #1
    6464:	6023      	str	r3, [r4, #0]
    6466:	6062      	str	r2, [r4, #4]
    6468:	2900      	cmp	r1, #0
    646a:	d0e6      	beq.n	643a <_ungetc_r+0xac>
    646c:	4628      	mov	r0, r5
    646e:	bd70      	pop	{r4, r5, r6, pc}
    6470:	e9c4 320f 	strd	r3, r2, [r4, #60]	; 0x3c
    6474:	f104 0344 	add.w	r3, r4, #68	; 0x44
    6478:	6363      	str	r3, [r4, #52]	; 0x34
    647a:	2303      	movs	r3, #3
    647c:	63a3      	str	r3, [r4, #56]	; 0x38
    647e:	4623      	mov	r3, r4
    6480:	f803 5f46 	strb.w	r5, [r3, #70]!
    6484:	6023      	str	r3, [r4, #0]
    6486:	2301      	movs	r3, #1
    6488:	6063      	str	r3, [r4, #4]
    648a:	e7ed      	b.n	6468 <_ungetc_r+0xda>

0000648c <__swbuf_r>:
    648c:	b5f8      	push	{r3, r4, r5, r6, r7, lr}
    648e:	460e      	mov	r6, r1
    6490:	4614      	mov	r4, r2
    6492:	4605      	mov	r5, r0
    6494:	b118      	cbz	r0, 649e <__swbuf_r+0x12>
    6496:	6a03      	ldr	r3, [r0, #32]
    6498:	b90b      	cbnz	r3, 649e <__swbuf_r+0x12>
    649a:	f7fe fdbb 	bl	5014 <__sinit>
    649e:	69a3      	ldr	r3, [r4, #24]
    64a0:	60a3      	str	r3, [r4, #8]
    64a2:	89a3      	ldrh	r3, [r4, #12]
    64a4:	071a      	lsls	r2, r3, #28
    64a6:	d501      	bpl.n	64ac <__swbuf_r+0x20>
    64a8:	6923      	ldr	r3, [r4, #16]
    64aa:	b943      	cbnz	r3, 64be <__swbuf_r+0x32>
    64ac:	4621      	mov	r1, r4
    64ae:	4628      	mov	r0, r5
    64b0:	f000 f82a 	bl	6508 <__swsetup_r>
    64b4:	b118      	cbz	r0, 64be <__swbuf_r+0x32>
    64b6:	f04f 37ff 	mov.w	r7, #4294967295
    64ba:	4638      	mov	r0, r7
    64bc:	bdf8      	pop	{r3, r4, r5, r6, r7, pc}
    64be:	6823      	ldr	r3, [r4, #0]
    64c0:	6922      	ldr	r2, [r4, #16]
    64c2:	1a98      	subs	r0, r3, r2
    64c4:	6963      	ldr	r3, [r4, #20]
    64c6:	b2f6      	uxtb	r6, r6
    64c8:	4283      	cmp	r3, r0
    64ca:	4637      	mov	r7, r6
    64cc:	dc05      	bgt.n	64da <__swbuf_r+0x4e>
    64ce:	4621      	mov	r1, r4
    64d0:	4628      	mov	r0, r5
    64d2:	f7fe fcd7 	bl	4e84 <_fflush_r>
    64d6:	2800      	cmp	r0, #0
    64d8:	d1ed      	bne.n	64b6 <__swbuf_r+0x2a>
    64da:	68a3      	ldr	r3, [r4, #8]
    64dc:	3b01      	subs	r3, #1
    64de:	60a3      	str	r3, [r4, #8]
    64e0:	6823      	ldr	r3, [r4, #0]
    64e2:	1c5a      	adds	r2, r3, #1
    64e4:	6022      	str	r2, [r4, #0]
    64e6:	701e      	strb	r6, [r3, #0]
    64e8:	6962      	ldr	r2, [r4, #20]
    64ea:	1c43      	adds	r3, r0, #1
    64ec:	429a      	cmp	r2, r3
    64ee:	d004      	beq.n	64fa <__swbuf_r+0x6e>
    64f0:	89a3      	ldrh	r3, [r4, #12]
    64f2:	07db      	lsls	r3, r3, #31
    64f4:	d5e1      	bpl.n	64ba <__swbuf_r+0x2e>
    64f6:	2e0a      	cmp	r6, #10
    64f8:	d1df      	bne.n	64ba <__swbuf_r+0x2e>
    64fa:	4621      	mov	r1, r4
    64fc:	4628      	mov	r0, r5
    64fe:	f7fe fcc1 	bl	4e84 <_fflush_r>
    6502:	2800      	cmp	r0, #0
    6504:	d0d9      	beq.n	64ba <__swbuf_r+0x2e>
    6506:	e7d6      	b.n	64b6 <__swbuf_r+0x2a>

00006508 <__swsetup_r>:
    6508:	b538      	push	{r3, r4, r5, lr}
    650a:	4b29      	ldr	r3, [pc, #164]	; (65b0 <__swsetup_r+0xa8>)
    650c:	4605      	mov	r5, r0
    650e:	6818      	ldr	r0, [r3, #0]
    6510:	460c      	mov	r4, r1
    6512:	b118      	cbz	r0, 651c <__swsetup_r+0x14>
    6514:	6a03      	ldr	r3, [r0, #32]
    6516:	b90b      	cbnz	r3, 651c <__swsetup_r+0x14>
    6518:	f7fe fd7c 	bl	5014 <__sinit>
    651c:	f9b4 300c 	ldrsh.w	r3, [r4, #12]
    6520:	0719      	lsls	r1, r3, #28
    6522:	d422      	bmi.n	656a <__swsetup_r+0x62>
    6524:	06da      	lsls	r2, r3, #27
    6526:	d407      	bmi.n	6538 <__swsetup_r+0x30>
    6528:	2209      	movs	r2, #9
    652a:	602a      	str	r2, [r5, #0]
    652c:	f043 0340 	orr.w	r3, r3, #64	; 0x40
    6530:	81a3      	strh	r3, [r4, #12]
    6532:	f04f 30ff 	mov.w	r0, #4294967295
    6536:	e033      	b.n	65a0 <__swsetup_r+0x98>
    6538:	0758      	lsls	r0, r3, #29
    653a:	d512      	bpl.n	6562 <__swsetup_r+0x5a>
    653c:	6b61      	ldr	r1, [r4, #52]	; 0x34
    653e:	b141      	cbz	r1, 6552 <__swsetup_r+0x4a>
    6540:	f104 0344 	add.w	r3, r4, #68	; 0x44
    6544:	4299      	cmp	r1, r3
    6546:	d002      	beq.n	654e <__swsetup_r+0x46>
    6548:	4628      	mov	r0, r5
    654a:	f7fe ff97 	bl	547c <_free_r>
    654e:	2300      	movs	r3, #0
    6550:	6363      	str	r3, [r4, #52]	; 0x34
    6552:	89a3      	ldrh	r3, [r4, #12]
    6554:	f023 0324 	bic.w	r3, r3, #36	; 0x24
    6558:	81a3      	strh	r3, [r4, #12]
    655a:	2300      	movs	r3, #0
    655c:	6063      	str	r3, [r4, #4]
    655e:	6923      	ldr	r3, [r4, #16]
    6560:	6023      	str	r3, [r4, #0]
    6562:	89a3      	ldrh	r3, [r4, #12]
    6564:	f043 0308 	orr.w	r3, r3, #8
    6568:	81a3      	strh	r3, [r4, #12]
    656a:	6923      	ldr	r3, [r4, #16]
    656c:	b94b      	cbnz	r3, 6582 <__swsetup_r+0x7a>
    656e:	89a3      	ldrh	r3, [r4, #12]
    6570:	f403 7320 	and.w	r3, r3, #640	; 0x280
    6574:	f5b3 7f00 	cmp.w	r3, #512	; 0x200
    6578:	d003      	beq.n	6582 <__swsetup_r+0x7a>
    657a:	4621      	mov	r1, r4
    657c:	4628      	mov	r0, r5
    657e:	f7ff fdd5 	bl	612c <__smakebuf_r>
    6582:	f9b4 300c 	ldrsh.w	r3, [r4, #12]
    6586:	f013 0201 	ands.w	r2, r3, #1
    658a:	d00a      	beq.n	65a2 <__swsetup_r+0x9a>
    658c:	2200      	movs	r2, #0
    658e:	60a2      	str	r2, [r4, #8]
    6590:	6962      	ldr	r2, [r4, #20]
    6592:	4252      	negs	r2, r2
    6594:	61a2      	str	r2, [r4, #24]
    6596:	6922      	ldr	r2, [r4, #16]
    6598:	b942      	cbnz	r2, 65ac <__swsetup_r+0xa4>
    659a:	f013 0080 	ands.w	r0, r3, #128	; 0x80
    659e:	d1c5      	bne.n	652c <__swsetup_r+0x24>
    65a0:	bd38      	pop	{r3, r4, r5, pc}
    65a2:	0799      	lsls	r1, r3, #30
    65a4:	bf58      	it	pl
    65a6:	6962      	ldrpl	r2, [r4, #20]
    65a8:	60a2      	str	r2, [r4, #8]
    65aa:	e7f4      	b.n	6596 <__swsetup_r+0x8e>
    65ac:	2000      	movs	r0, #0
    65ae:	e7f7      	b.n	65a0 <__swsetup_r+0x98>
    65b0:	20000048 	.word	0x20000048

000065b4 <_fstat_r>:
    65b4:	b538      	push	{r3, r4, r5, lr}
    65b6:	4d07      	ldr	r5, [pc, #28]	; (65d4 <_fstat_r+0x20>)
    65b8:	2300      	movs	r3, #0
    65ba:	4604      	mov	r4, r0
    65bc:	4608      	mov	r0, r1
    65be:	4611      	mov	r1, r2
    65c0:	602b      	str	r3, [r5, #0]
    65c2:	f7fc fd9b 	bl	30fc <_fstat>
    65c6:	1c43      	adds	r3, r0, #1
    65c8:	d102      	bne.n	65d0 <_fstat_r+0x1c>
    65ca:	682b      	ldr	r3, [r5, #0]
    65cc:	b103      	cbz	r3, 65d0 <_fstat_r+0x1c>
    65ce:	6023      	str	r3, [r4, #0]
    65d0:	bd38      	pop	{r3, r4, r5, pc}
    65d2:	bf00      	nop
    65d4:	200007ec 	.word	0x200007ec

000065d8 <_isatty_r>:
    65d8:	b538      	push	{r3, r4, r5, lr}
    65da:	4d06      	ldr	r5, [pc, #24]	; (65f4 <_isatty_r+0x1c>)
    65dc:	2300      	movs	r3, #0
    65de:	4604      	mov	r4, r0
    65e0:	4608      	mov	r0, r1
    65e2:	602b      	str	r3, [r5, #0]
    65e4:	f7fc fdac 	bl	3140 <_isatty>
    65e8:	1c43      	adds	r3, r0, #1
    65ea:	d102      	bne.n	65f2 <_isatty_r+0x1a>
    65ec:	682b      	ldr	r3, [r5, #0]
    65ee:	b103      	cbz	r3, 65f2 <_isatty_r+0x1a>
    65f0:	6023      	str	r3, [r4, #0]
    65f2:	bd38      	pop	{r3, r4, r5, pc}
    65f4:	200007ec 	.word	0x200007ec

000065f8 <memcpy>:
    65f8:	440a      	add	r2, r1
    65fa:	4291      	cmp	r1, r2
    65fc:	f100 33ff 	add.w	r3, r0, #4294967295
    6600:	d100      	bne.n	6604 <memcpy+0xc>
    6602:	4770      	bx	lr
    6604:	b510      	push	{r4, lr}
    6606:	f811 4b01 	ldrb.w	r4, [r1], #1
    660a:	f803 4f01 	strb.w	r4, [r3, #1]!
    660e:	4291      	cmp	r1, r2
    6610:	d1f9      	bne.n	6606 <memcpy+0xe>
    6612:	bd10      	pop	{r4, pc}

00006614 <_realloc_r>:
    6614:	e92d 41f0 	stmdb	sp!, {r4, r5, r6, r7, r8, lr}
    6618:	4680      	mov	r8, r0
    661a:	4615      	mov	r5, r2
    661c:	460c      	mov	r4, r1
    661e:	b921      	cbnz	r1, 662a <_realloc_r+0x16>
    6620:	e8bd 41f0 	ldmia.w	sp!, {r4, r5, r6, r7, r8, lr}
    6624:	4611      	mov	r1, r2
    6626:	f7fe bb17 	b.w	4c58 <_malloc_r>
    662a:	b92a      	cbnz	r2, 6638 <_realloc_r+0x24>
    662c:	f7fe ff26 	bl	547c <_free_r>
    6630:	2400      	movs	r4, #0
    6632:	4620      	mov	r0, r4
    6634:	e8bd 81f0 	ldmia.w	sp!, {r4, r5, r6, r7, r8, pc}
    6638:	f000 f90e 	bl	6858 <_malloc_usable_size_r>
    663c:	4285      	cmp	r5, r0
    663e:	4606      	mov	r6, r0
    6640:	d802      	bhi.n	6648 <_realloc_r+0x34>
    6642:	ebb5 0f50 	cmp.w	r5, r0, lsr #1
    6646:	d8f4      	bhi.n	6632 <_realloc_r+0x1e>
    6648:	4629      	mov	r1, r5
    664a:	4640      	mov	r0, r8
    664c:	f7fe fb04 	bl	4c58 <_malloc_r>
    6650:	4607      	mov	r7, r0
    6652:	2800      	cmp	r0, #0
    6654:	d0ec      	beq.n	6630 <_realloc_r+0x1c>
    6656:	42b5      	cmp	r5, r6
    6658:	462a      	mov	r2, r5
    665a:	4621      	mov	r1, r4
    665c:	bf28      	it	cs
    665e:	4632      	movcs	r2, r6
    6660:	f7ff ffca 	bl	65f8 <memcpy>
    6664:	4621      	mov	r1, r4
    6666:	4640      	mov	r0, r8
    6668:	f7fe ff08 	bl	547c <_free_r>
    666c:	463c      	mov	r4, r7
    666e:	e7e0      	b.n	6632 <_realloc_r+0x1e>

00006670 <_strtol_l.constprop.0>:
    6670:	2b24      	cmp	r3, #36	; 0x24
    6672:	e92d 47f0 	stmdb	sp!, {r4, r5, r6, r7, r8, r9, sl, lr}
    6676:	4686      	mov	lr, r0
    6678:	4690      	mov	r8, r2
    667a:	d801      	bhi.n	6680 <_strtol_l.constprop.0+0x10>
    667c:	2b01      	cmp	r3, #1
    667e:	d106      	bne.n	668e <_strtol_l.constprop.0+0x1e>
    6680:	f7fe fece 	bl	5420 <__errno>
    6684:	2316      	movs	r3, #22
    6686:	6003      	str	r3, [r0, #0]
    6688:	2000      	movs	r0, #0
    668a:	e8bd 87f0 	ldmia.w	sp!, {r4, r5, r6, r7, r8, r9, sl, pc}
    668e:	4836      	ldr	r0, [pc, #216]	; (6768 <_strtol_l.constprop.0+0xf8>)
    6690:	460d      	mov	r5, r1
    6692:	462a      	mov	r2, r5
    6694:	f815 4b01 	ldrb.w	r4, [r5], #1
    6698:	5d06      	ldrb	r6, [r0, r4]
    669a:	f016 0608 	ands.w	r6, r6, #8
    669e:	d1f8      	bne.n	6692 <_strtol_l.constprop.0+0x22>
    66a0:	2c2d      	cmp	r4, #45	; 0x2d
    66a2:	d124      	bne.n	66ee <_strtol_l.constprop.0+0x7e>
    66a4:	782c      	ldrb	r4, [r5, #0]
    66a6:	2601      	movs	r6, #1
    66a8:	1c95      	adds	r5, r2, #2
    66aa:	bb2b      	cbnz	r3, 66f8 <_strtol_l.constprop.0+0x88>
    66ac:	2c30      	cmp	r4, #48	; 0x30
    66ae:	d030      	beq.n	6712 <_strtol_l.constprop.0+0xa2>
    66b0:	230a      	movs	r3, #10
    66b2:	f106 4c00 	add.w	ip, r6, #2147483648	; 0x80000000
    66b6:	f10c 3cff 	add.w	ip, ip, #4294967295
    66ba:	2200      	movs	r2, #0
    66bc:	fbbc f9f3 	udiv	r9, ip, r3
    66c0:	4610      	mov	r0, r2
    66c2:	fb03 ca19 	mls	sl, r3, r9, ip
    66c6:	f1a4 0730 	sub.w	r7, r4, #48	; 0x30
    66ca:	2f09      	cmp	r7, #9
    66cc:	d828      	bhi.n	6720 <_strtol_l.constprop.0+0xb0>
    66ce:	463c      	mov	r4, r7
    66d0:	42a3      	cmp	r3, r4
    66d2:	dd34      	ble.n	673e <_strtol_l.constprop.0+0xce>
    66d4:	1c57      	adds	r7, r2, #1
    66d6:	d007      	beq.n	66e8 <_strtol_l.constprop.0+0x78>
    66d8:	4581      	cmp	r9, r0
    66da:	d32d      	bcc.n	6738 <_strtol_l.constprop.0+0xc8>
    66dc:	d101      	bne.n	66e2 <_strtol_l.constprop.0+0x72>
    66de:	45a2      	cmp	sl, r4
    66e0:	db2a      	blt.n	6738 <_strtol_l.constprop.0+0xc8>
    66e2:	fb00 4003 	mla	r0, r0, r3, r4
    66e6:	2201      	movs	r2, #1
    66e8:	f815 4b01 	ldrb.w	r4, [r5], #1
    66ec:	e7eb      	b.n	66c6 <_strtol_l.constprop.0+0x56>
    66ee:	2c2b      	cmp	r4, #43	; 0x2b
    66f0:	bf04      	itt	eq
    66f2:	782c      	ldrbeq	r4, [r5, #0]
    66f4:	1c95      	addeq	r5, r2, #2
    66f6:	e7d8      	b.n	66aa <_strtol_l.constprop.0+0x3a>
    66f8:	2b10      	cmp	r3, #16
    66fa:	d1da      	bne.n	66b2 <_strtol_l.constprop.0+0x42>
    66fc:	2c30      	cmp	r4, #48	; 0x30
    66fe:	d1d8      	bne.n	66b2 <_strtol_l.constprop.0+0x42>
    6700:	782a      	ldrb	r2, [r5, #0]
    6702:	f002 02df 	and.w	r2, r2, #223	; 0xdf
    6706:	2a58      	cmp	r2, #88	; 0x58
    6708:	d1d3      	bne.n	66b2 <_strtol_l.constprop.0+0x42>
    670a:	786c      	ldrb	r4, [r5, #1]
    670c:	2310      	movs	r3, #16
    670e:	3502      	adds	r5, #2
    6710:	e7cf      	b.n	66b2 <_strtol_l.constprop.0+0x42>
    6712:	782b      	ldrb	r3, [r5, #0]
    6714:	f003 03df 	and.w	r3, r3, #223	; 0xdf
    6718:	2b58      	cmp	r3, #88	; 0x58
    671a:	d0f6      	beq.n	670a <_strtol_l.constprop.0+0x9a>
    671c:	2308      	movs	r3, #8
    671e:	e7c8      	b.n	66b2 <_strtol_l.constprop.0+0x42>
    6720:	f1a4 0741 	sub.w	r7, r4, #65	; 0x41
    6724:	2f19      	cmp	r7, #25
    6726:	d801      	bhi.n	672c <_strtol_l.constprop.0+0xbc>
    6728:	3c37      	subs	r4, #55	; 0x37
    672a:	e7d1      	b.n	66d0 <_strtol_l.constprop.0+0x60>
    672c:	f1a4 0761 	sub.w	r7, r4, #97	; 0x61
    6730:	2f19      	cmp	r7, #25
    6732:	d804      	bhi.n	673e <_strtol_l.constprop.0+0xce>
    6734:	3c57      	subs	r4, #87	; 0x57
    6736:	e7cb      	b.n	66d0 <_strtol_l.constprop.0+0x60>
    6738:	f04f 32ff 	mov.w	r2, #4294967295
    673c:	e7d4      	b.n	66e8 <_strtol_l.constprop.0+0x78>
    673e:	1c53      	adds	r3, r2, #1
    6740:	d108      	bne.n	6754 <_strtol_l.constprop.0+0xe4>
    6742:	2322      	movs	r3, #34	; 0x22
    6744:	f8ce 3000 	str.w	r3, [lr]
    6748:	4660      	mov	r0, ip
    674a:	f1b8 0f00 	cmp.w	r8, #0
    674e:	d09c      	beq.n	668a <_strtol_l.constprop.0+0x1a>
    6750:	1e69      	subs	r1, r5, #1
    6752:	e006      	b.n	6762 <_strtol_l.constprop.0+0xf2>
    6754:	b106      	cbz	r6, 6758 <_strtol_l.constprop.0+0xe8>
    6756:	4240      	negs	r0, r0
    6758:	f1b8 0f00 	cmp.w	r8, #0
    675c:	d095      	beq.n	668a <_strtol_l.constprop.0+0x1a>
    675e:	2a00      	cmp	r2, #0
    6760:	d1f6      	bne.n	6750 <_strtol_l.constprop.0+0xe0>
    6762:	f8c8 1000 	str.w	r1, [r8]
    6766:	e790      	b.n	668a <_strtol_l.constprop.0+0x1a>
    6768:	0000f7af 	.word	0x0000f7af

0000676c <_strtol_r>:
    676c:	f7ff bf80 	b.w	6670 <_strtol_l.constprop.0>

00006770 <_strtoul_l.constprop.0>:
    6770:	e92d 43f0 	stmdb	sp!, {r4, r5, r6, r7, r8, r9, lr}
    6774:	4e36      	ldr	r6, [pc, #216]	; (6850 <_strtoul_l.constprop.0+0xe0>)
    6776:	4686      	mov	lr, r0
    6778:	460d      	mov	r5, r1
    677a:	4628      	mov	r0, r5
    677c:	f815 4b01 	ldrb.w	r4, [r5], #1
    6780:	5d37      	ldrb	r7, [r6, r4]
    6782:	f017 0708 	ands.w	r7, r7, #8
    6786:	d1f8      	bne.n	677a <_strtoul_l.constprop.0+0xa>
    6788:	2c2d      	cmp	r4, #45	; 0x2d
    678a:	d126      	bne.n	67da <_strtoul_l.constprop.0+0x6a>
    678c:	782c      	ldrb	r4, [r5, #0]
    678e:	2701      	movs	r7, #1
    6790:	1c85      	adds	r5, r0, #2
    6792:	bb3b      	cbnz	r3, 67e4 <_strtoul_l.constprop.0+0x74>
    6794:	2c30      	cmp	r4, #48	; 0x30
    6796:	d032      	beq.n	67fe <_strtoul_l.constprop.0+0x8e>
    6798:	230a      	movs	r3, #10
    679a:	f04f 38ff 	mov.w	r8, #4294967295
    679e:	2600      	movs	r6, #0
    67a0:	fbb8 f8f3 	udiv	r8, r8, r3
    67a4:	fb03 f908 	mul.w	r9, r3, r8
    67a8:	ea6f 0909 	mvn.w	r9, r9
    67ac:	4630      	mov	r0, r6
    67ae:	f1a4 0c30 	sub.w	ip, r4, #48	; 0x30
    67b2:	f1bc 0f09 	cmp.w	ip, #9
    67b6:	d829      	bhi.n	680c <_strtoul_l.constprop.0+0x9c>
    67b8:	4664      	mov	r4, ip
    67ba:	42a3      	cmp	r3, r4
    67bc:	dd37      	ble.n	682e <_strtoul_l.constprop.0+0xbe>
    67be:	f1b6 3fff 	cmp.w	r6, #4294967295
    67c2:	d007      	beq.n	67d4 <_strtoul_l.constprop.0+0x64>
    67c4:	4580      	cmp	r8, r0
    67c6:	d32f      	bcc.n	6828 <_strtoul_l.constprop.0+0xb8>
    67c8:	d101      	bne.n	67ce <_strtoul_l.constprop.0+0x5e>
    67ca:	45a1      	cmp	r9, r4
    67cc:	db2c      	blt.n	6828 <_strtoul_l.constprop.0+0xb8>
    67ce:	fb00 4003 	mla	r0, r0, r3, r4
    67d2:	2601      	movs	r6, #1
    67d4:	f815 4b01 	ldrb.w	r4, [r5], #1
    67d8:	e7e9      	b.n	67ae <_strtoul_l.constprop.0+0x3e>
    67da:	2c2b      	cmp	r4, #43	; 0x2b
    67dc:	bf04      	itt	eq
    67de:	782c      	ldrbeq	r4, [r5, #0]
    67e0:	1c85      	addeq	r5, r0, #2
    67e2:	e7d6      	b.n	6792 <_strtoul_l.constprop.0+0x22>
    67e4:	2b10      	cmp	r3, #16
    67e6:	d1d8      	bne.n	679a <_strtoul_l.constprop.0+0x2a>
    67e8:	2c30      	cmp	r4, #48	; 0x30
    67ea:	d1d6      	bne.n	679a <_strtoul_l.constprop.0+0x2a>
    67ec:	7828      	ldrb	r0, [r5, #0]
    67ee:	f000 00df 	and.w	r0, r0, #223	; 0xdf
    67f2:	2858      	cmp	r0, #88	; 0x58
    67f4:	d1d1      	bne.n	679a <_strtoul_l.constprop.0+0x2a>
    67f6:	786c      	ldrb	r4, [r5, #1]
    67f8:	2310      	movs	r3, #16
    67fa:	3502      	adds	r5, #2
    67fc:	e7cd      	b.n	679a <_strtoul_l.constprop.0+0x2a>
    67fe:	782b      	ldrb	r3, [r5, #0]
    6800:	f003 03df 	and.w	r3, r3, #223	; 0xdf
    6804:	2b58      	cmp	r3, #88	; 0x58
    6806:	d0f6      	beq.n	67f6 <_strtoul_l.constprop.0+0x86>
    6808:	2308      	movs	r3, #8
    680a:	e7c6      	b.n	679a <_strtoul_l.constprop.0+0x2a>
    680c:	f1a4 0c41 	sub.w	ip, r4, #65	; 0x41
    6810:	f1bc 0f19 	cmp.w	ip, #25
    6814:	d801      	bhi.n	681a <_strtoul_l.constprop.0+0xaa>
    6816:	3c37      	subs	r4, #55	; 0x37
    6818:	e7cf      	b.n	67ba <_strtoul_l.constprop.0+0x4a>
    681a:	f1a4 0c61 	sub.w	ip, r4, #97	; 0x61
    681e:	f1bc 0f19 	cmp.w	ip, #25
    6822:	d804      	bhi.n	682e <_strtoul_l.constprop.0+0xbe>
    6824:	3c57      	subs	r4, #87	; 0x57
    6826:	e7c8      	b.n	67ba <_strtoul_l.constprop.0+0x4a>
    6828:	f04f 36ff 	mov.w	r6, #4294967295
    682c:	e7d2      	b.n	67d4 <_strtoul_l.constprop.0+0x64>
    682e:	1c73      	adds	r3, r6, #1
    6830:	d106      	bne.n	6840 <_strtoul_l.constprop.0+0xd0>
    6832:	2322      	movs	r3, #34	; 0x22
    6834:	f8ce 3000 	str.w	r3, [lr]
    6838:	4630      	mov	r0, r6
    683a:	b932      	cbnz	r2, 684a <_strtoul_l.constprop.0+0xda>
    683c:	e8bd 83f0 	ldmia.w	sp!, {r4, r5, r6, r7, r8, r9, pc}
    6840:	b107      	cbz	r7, 6844 <_strtoul_l.constprop.0+0xd4>
    6842:	4240      	negs	r0, r0
    6844:	2a00      	cmp	r2, #0
    6846:	d0f9      	beq.n	683c <_strtoul_l.constprop.0+0xcc>
    6848:	b106      	cbz	r6, 684c <_strtoul_l.constprop.0+0xdc>
    684a:	1e69      	subs	r1, r5, #1
    684c:	6011      	str	r1, [r2, #0]
    684e:	e7f5      	b.n	683c <_strtoul_l.constprop.0+0xcc>
    6850:	0000f7af 	.word	0x0000f7af

00006854 <_strtoul_r>:
    6854:	f7ff bf8c 	b.w	6770 <_strtoul_l.constprop.0>

00006858 <_malloc_usable_size_r>:
    6858:	f851 3c04 	ldr.w	r3, [r1, #-4]
    685c:	1f18      	subs	r0, r3, #4
    685e:	2b00      	cmp	r3, #0
    6860:	bfbc      	itt	lt
    6862:	580b      	ldrlt	r3, [r1, r0]
    6864:	18c0      	addlt	r0, r0, r3
    6866:	4770      	bx	lr

00006868 <_sbrk>:
    6868:	4a04      	ldr	r2, [pc, #16]	; (687c <_sbrk+0x14>)
    686a:	4905      	ldr	r1, [pc, #20]	; (6880 <_sbrk+0x18>)
    686c:	6813      	ldr	r3, [r2, #0]
    686e:	2b00      	cmp	r3, #0
    6870:	bf08      	it	eq
    6872:	460b      	moveq	r3, r1
    6874:	4418      	add	r0, r3
    6876:	6010      	str	r0, [r2, #0]
    6878:	4618      	mov	r0, r3
    687a:	4770      	bx	lr
    687c:	200007f0 	.word	0x200007f0
    6880:	20000810 	.word	0x20000810

00006884 <_exit>:
    6884:	e7fe      	b.n	6884 <_exit>
    6886:	bf00      	nop

00006888 <_init>:
    6888:	b5f8      	push	{r3, r4, r5, r6, r7, lr}
    688a:	bf00      	nop
    688c:	bcf8      	pop	{r3, r4, r5, r6, r7}
    688e:	bc08      	pop	{r3}
    6890:	469e      	mov	lr, r3
    6892:	4770      	bx	lr

00006894 <_fini>:
    6894:	b5f8      	push	{r3, r4, r5, r6, r7, lr}
    6896:	bf00      	nop
    6898:	bcf8      	pop	{r3, r4, r5, r6, r7}
    689a:	bc08      	pop	{r3}
    689c:	469e      	mov	lr, r3
    689e:	4770      	bx	lr

000068a0 <__frame_dummy_init_array_entry>:
    68a0:	014d 0000 10a1 0000 1481 0000 1d01 0000     M...............
    68b0:	2351 0000 289d 0000 2f27 0000 31d9 0000     Q#...(..'/...1..

000068c0 <__do_global_dtors_aux_fini_array_entry>:
    68c0:	0125 0000                                   %...

000068c4 <_stack_init>:
    68c4:	f5a3 3a80 	sub.w	sl, r3, #65536	; 0x10000
    68c8:	4770      	bx	lr
    68ca:	bf00      	nop

000068cc <_mainCRTStartup>:
    68cc:	4b17      	ldr	r3, [pc, #92]	; (692c <_mainCRTStartup+0x60>)
    68ce:	2b00      	cmp	r3, #0
    68d0:	bf08      	it	eq
    68d2:	4b13      	ldreq	r3, [pc, #76]	; (6920 <_mainCRTStartup+0x54>)
    68d4:	469d      	mov	sp, r3
    68d6:	f7ff fff5 	bl	68c4 <_stack_init>
    68da:	2100      	movs	r1, #0
    68dc:	468b      	mov	fp, r1
    68de:	460f      	mov	r7, r1
    68e0:	4813      	ldr	r0, [pc, #76]	; (6930 <_mainCRTStartup+0x64>)
    68e2:	4a14      	ldr	r2, [pc, #80]	; (6934 <_mainCRTStartup+0x68>)
    68e4:	1a12      	subs	r2, r2, r0
    68e6:	f7fe fce6 	bl	52b6 <memset>
    68ea:	4b0e      	ldr	r3, [pc, #56]	; (6924 <_mainCRTStartup+0x58>)
    68ec:	2b00      	cmp	r3, #0
    68ee:	d000      	beq.n	68f2 <_mainCRTStartup+0x26>
    68f0:	4798      	blx	r3
    68f2:	4b0d      	ldr	r3, [pc, #52]	; (6928 <_mainCRTStartup+0x5c>)
    68f4:	2b00      	cmp	r3, #0
    68f6:	d000      	beq.n	68fa <_mainCRTStartup+0x2e>
    68f8:	4798      	blx	r3
    68fa:	2000      	movs	r0, #0
    68fc:	2100      	movs	r1, #0
    68fe:	0004      	movs	r4, r0
    6900:	000d      	movs	r5, r1
    6902:	480d      	ldr	r0, [pc, #52]	; (6938 <_mainCRTStartup+0x6c>)
    6904:	2800      	cmp	r0, #0
    6906:	d002      	beq.n	690e <_mainCRTStartup+0x42>
    6908:	480c      	ldr	r0, [pc, #48]	; (693c <_mainCRTStartup+0x70>)
    690a:	f3af 8000 	nop.w
    690e:	f7fe fd8d 	bl	542c <__libc_init_array>
    6912:	0020      	movs	r0, r4
    6914:	0029      	movs	r1, r5
    6916:	f7f9 fc5b 	bl	1d0 <main>
    691a:	f7fe f959 	bl	4bd0 <exit>
    691e:	bf00      	nop
    6920:	00080000 	.word	0x00080000
	...
    692c:	20010000 	.word	0x20010000
    6930:	20000098 	.word	0x20000098
    6934:	20000810 	.word	0x20000810
	...

00006940 <memchr>:
    6940:	f001 01ff 	and.w	r1, r1, #255	; 0xff
    6944:	2a10      	cmp	r2, #16
    6946:	db2b      	blt.n	69a0 <memchr+0x60>
    6948:	f010 0f07 	tst.w	r0, #7
    694c:	d008      	beq.n	6960 <memchr+0x20>
    694e:	f810 3b01 	ldrb.w	r3, [r0], #1
    6952:	3a01      	subs	r2, #1
    6954:	428b      	cmp	r3, r1
    6956:	d02d      	beq.n	69b4 <memchr+0x74>
    6958:	f010 0f07 	tst.w	r0, #7
    695c:	b342      	cbz	r2, 69b0 <memchr+0x70>
    695e:	d1f6      	bne.n	694e <memchr+0xe>
    6960:	b4f0      	push	{r4, r5, r6, r7}
    6962:	ea41 2101 	orr.w	r1, r1, r1, lsl #8
    6966:	ea41 4101 	orr.w	r1, r1, r1, lsl #16
    696a:	f022 0407 	bic.w	r4, r2, #7
    696e:	f07f 0700 	mvns.w	r7, #0
    6972:	2300      	movs	r3, #0
    6974:	e8f0 5602 	ldrd	r5, r6, [r0], #8
    6978:	3c08      	subs	r4, #8
    697a:	ea85 0501 	eor.w	r5, r5, r1
    697e:	ea86 0601 	eor.w	r6, r6, r1
    6982:	fa85 f547 	uadd8	r5, r5, r7
    6986:	faa3 f587 	sel	r5, r3, r7
    698a:	fa86 f647 	uadd8	r6, r6, r7
    698e:	faa5 f687 	sel	r6, r5, r7
    6992:	b98e      	cbnz	r6, 69b8 <memchr+0x78>
    6994:	d1ee      	bne.n	6974 <memchr+0x34>
    6996:	bcf0      	pop	{r4, r5, r6, r7}
    6998:	f001 01ff 	and.w	r1, r1, #255	; 0xff
    699c:	f002 0207 	and.w	r2, r2, #7
    69a0:	b132      	cbz	r2, 69b0 <memchr+0x70>
    69a2:	f810 3b01 	ldrb.w	r3, [r0], #1
    69a6:	3a01      	subs	r2, #1
    69a8:	ea83 0301 	eor.w	r3, r3, r1
    69ac:	b113      	cbz	r3, 69b4 <memchr+0x74>
    69ae:	d1f8      	bne.n	69a2 <memchr+0x62>
    69b0:	2000      	movs	r0, #0
    69b2:	4770      	bx	lr
    69b4:	3801      	subs	r0, #1
    69b6:	4770      	bx	lr
    69b8:	2d00      	cmp	r5, #0
    69ba:	bf06      	itte	eq
    69bc:	4635      	moveq	r5, r6
    69be:	3803      	subeq	r0, #3
    69c0:	3807      	subne	r0, #7
    69c2:	f015 0f01 	tst.w	r5, #1
    69c6:	d107      	bne.n	69d8 <memchr+0x98>
    69c8:	3001      	adds	r0, #1
    69ca:	f415 7f80 	tst.w	r5, #256	; 0x100
    69ce:	bf02      	ittt	eq
    69d0:	3001      	addeq	r0, #1
    69d2:	f415 3fc0 	tsteq.w	r5, #98304	; 0x18000
    69d6:	3001      	addeq	r0, #1
    69d8:	bcf0      	pop	{r4, r5, r6, r7}
    69da:	3801      	subs	r0, #1
    69dc:	4770      	bx	lr
    69de:	bf00      	nop
