
C:/Users/di461643/MicroControllTechnik/YAHAL/examples/msp432-launchpad/P00_projekt/build/ski.elf:     file format elf32-littlearm

Sections:
Idx Name          Size      VMA       LMA       File off  Algn
  0 .text         000069e0  00000000  00000000  00010000  2**4
                  CONTENTS, ALLOC, LOAD, READONLY, CODE
  1 .ARM.extab    00000000  000069e0  000069e0  000169e0  2**0
                  CONTENTS, ALLOC, LOAD, READONLY, DATA
  2 .ARM.exidx    00000008  000069e0  000069e0  000169e0  2**2
                  CONTENTS, ALLOC, LOAD, READONLY, DATA
  3 .rodata       00008ec7  000069e8  000069e8  000169e8  2**2
                  CONTENTS, ALLOC, LOAD, READONLY, DATA
  4 .copy.table   0000000d  0000f8af  0000f8af  0001f8af  2**0
                  CONTENTS, ALLOC, LOAD, DATA
  5 .zero.table   0000000c  0000f8bc  0000f8bc  0001f8bc  2**0
                  CONTENTS, ALLOC, LOAD, DATA
  6 .data         00000098  20000000  0000f8c8  00020000  2**2
                  CONTENTS, ALLOC, LOAD, DATA
  7 .bss          00000778  20000098  0000f960  00020098  2**3
                  ALLOC
  8 .ARM.attributes 00000030  00000000  00000000  00020098  2**0
                  CONTENTS, READONLY
  9 .comment      00000045  00000000  00000000  000200c8  2**0
                  CONTENTS, READONLY
 10 .debug_line_str 000001c4  00000000  00000000  0002010d  2**0
                  CONTENTS, READONLY, DEBUGGING, OCTETS
 11 .debug_info   00021c00  00000000  00000000  000202d1  2**0
                  CONTENTS, READONLY, DEBUGGING, OCTETS
 12 .debug_abbrev 00004ecb  00000000  00000000  00041ed1  2**0
                  CONTENTS, READONLY, DEBUGGING, OCTETS
 13 .debug_loc    0000a85a  00000000  00000000  00046d9c  2**0
                  CONTENTS, READONLY, DEBUGGING, OCTETS
 14 .debug_aranges 00000cf0  00000000  00000000  000515f6  2**0
                  CONTENTS, READONLY, DEBUGGING, OCTETS
 15 .debug_ranges 00001580  00000000  00000000  000522e6  2**0
                  CONTENTS, READONLY, DEBUGGING, OCTETS
 16 .debug_line   0000c8ba  00000000  00000000  00053866  2**0
                  CONTENTS, READONLY, DEBUGGING, OCTETS
 17 .debug_str    00007fc8  00000000  00000000  00060120  2**0
                  CONTENTS, READONLY, DEBUGGING, OCTETS
 18 .debug_frame  00003298  00000000  00000000  000680e8  2**2
                  CONTENTS, READONLY, DEBUGGING, OCTETS

C:/Users/di461643/MicroControllTechnik/YAHAL/examples/msp432-launchpad/P00_projekt/build/ski.elf:     file format elf32-littlearm


Disassembly of section .text:

00000000 <isr_vector>:
       0:	00 00 01 20 61 23 00 00 5f 23 00 00 5f 23 00 00     ... a#.._#.._#..
      10:	5f 23 00 00 5f 23 00 00 5f 23 00 00 00 00 00 00     _#.._#.._#......
	...
      2c:	79 34 00 00 5f 23 00 00 00 00 00 00 0d 34 00 00     y4.._#.......4..
      3c:	05 34 00 00 5f 23 00 00 5f 23 00 00 5f 23 00 00     .4.._#.._#.._#..
      4c:	5f 23 00 00 5f 23 00 00 5f 23 00 00 5f 23 00 00     _#.._#.._#.._#..
      5c:	5f 23 00 00 5f 23 00 00 5f 23 00 00 5f 23 00 00     _#.._#.._#.._#..
      6c:	5f 23 00 00 5f 23 00 00 5f 23 00 00 5f 23 00 00     _#.._#.._#.._#..
      7c:	5f 23 00 00 ed 31 00 00 09 32 00 00 25 32 00 00     _#...1...2..%2..
      8c:	41 32 00 00 5d 32 00 00 7d 32 00 00 9d 32 00 00     A2..]2..}2...2..
      9c:	bd 32 00 00 69 14 00 00 5f 23 00 00 5f 23 00 00     .2..i..._#.._#..
      ac:	5f 23 00 00 5f 23 00 00 5f 23 00 00 5f 23 00 00     _#.._#.._#.._#..
      bc:	5f 23 00 00 5f 23 00 00 5f 23 00 00 5f 23 00 00     _#.._#.._#.._#..
      cc:	c9 1a 00 00 ed 1a 00 00 11 1b 00 00 35 1b 00 00     ............5...
      dc:	59 1b 00 00 81 1b 00 00                             Y.......

000000e4 <deregister_tm_clones>:
      e4:	4803      	ldr	r0, [pc, #12]	; (f4 <deregister_tm_clones+0x10>)
      e6:	4b04      	ldr	r3, [pc, #16]	; (f8 <deregister_tm_clones+0x14>)
      e8:	4283      	cmp	r3, r0
      ea:	d002      	beq.n	f2 <deregister_tm_clones+0xe>
      ec:	4b03      	ldr	r3, [pc, #12]	; (fc <deregister_tm_clones+0x18>)
      ee:	b103      	cbz	r3, f2 <deregister_tm_clones+0xe>
      f0:	4718      	bx	r3
      f2:	4770      	bx	lr
      f4:	20000098 	.word	0x20000098
      f8:	20000098 	.word	0x20000098
      fc:	00000000 	.word	0x00000000

00000100 <register_tm_clones>:
     100:	4805      	ldr	r0, [pc, #20]	; (118 <register_tm_clones+0x18>)
     102:	4b06      	ldr	r3, [pc, #24]	; (11c <register_tm_clones+0x1c>)
     104:	1a1b      	subs	r3, r3, r0
     106:	0fd9      	lsrs	r1, r3, #31
     108:	eb01 01a3 	add.w	r1, r1, r3, asr #2
     10c:	1049      	asrs	r1, r1, #1
     10e:	d002      	beq.n	116 <register_tm_clones+0x16>
     110:	4b03      	ldr	r3, [pc, #12]	; (120 <register_tm_clones+0x20>)
     112:	b103      	cbz	r3, 116 <register_tm_clones+0x16>
     114:	4718      	bx	r3
     116:	4770      	bx	lr
     118:	20000098 	.word	0x20000098
     11c:	20000098 	.word	0x20000098
     120:	00000000 	.word	0x00000000

00000124 <__do_global_dtors_aux>:
     124:	b510      	push	{r4, lr}
     126:	4c06      	ldr	r4, [pc, #24]	; (140 <__do_global_dtors_aux+0x1c>)
     128:	7823      	ldrb	r3, [r4, #0]
     12a:	b943      	cbnz	r3, 13e <__do_global_dtors_aux+0x1a>
     12c:	f7ff ffda 	bl	e4 <deregister_tm_clones>
     130:	4b04      	ldr	r3, [pc, #16]	; (144 <__do_global_dtors_aux+0x20>)
     132:	b113      	cbz	r3, 13a <__do_global_dtors_aux+0x16>
     134:	4804      	ldr	r0, [pc, #16]	; (148 <__do_global_dtors_aux+0x24>)
     136:	f3af 8000 	nop.w
     13a:	2301      	movs	r3, #1
     13c:	7023      	strb	r3, [r4, #0]
     13e:	bd10      	pop	{r4, pc}
     140:	2000080e 	.word	0x2000080e
     144:	00000000 	.word	0x00000000
     148:	0000f8b0 	.word	0x0000f8b0

0000014c <frame_dummy>:
     14c:	b508      	push	{r3, lr}
     14e:	4b05      	ldr	r3, [pc, #20]	; (164 <frame_dummy+0x18>)
     150:	b11b      	cbz	r3, 15a <frame_dummy+0xe>
     152:	4905      	ldr	r1, [pc, #20]	; (168 <frame_dummy+0x1c>)
     154:	4805      	ldr	r0, [pc, #20]	; (16c <frame_dummy+0x20>)
     156:	f3af 8000 	nop.w
     15a:	e8bd 4008 	ldmia.w	sp!, {r3, lr}
     15e:	f7ff bfcf 	b.w	100 <register_tm_clones>
     162:	bf00      	nop
     164:	00000000 	.word	0x00000000
     168:	200007f4 	.word	0x200007f4
     16c:	0000f8b0 	.word	0x0000f8b0

00000170 <window_3_callback(uGUI::MESSAGE*)>:
     170:	4770      	bx	lr
	...

00000174 <window_1_callback(uGUI::MESSAGE*)>:
     174:	b508      	push	{r3, lr}
     176:	2101      	movs	r1, #1
     178:	4801      	ldr	r0, [pc, #4]	; (180 <window_1_callback(uGUI::MESSAGE*)+0xc>)
     17a:	f004 ff81 	bl	5080 <iprintf>
     17e:	bd08      	pop	{r3, pc}
     180:	00006a50 	.word	0x00006a50

00000184 <window_2_callback(uGUI::MESSAGE*)>:
     184:	b508      	push	{r3, lr}
     186:	2102      	movs	r1, #2
     188:	4801      	ldr	r0, [pc, #4]	; (190 <window_2_callback(uGUI::MESSAGE*)+0xc>)
     18a:	f004 ff79 	bl	5080 <iprintf>
     18e:	bd08      	pop	{r3, pc}
     190:	00006a50 	.word	0x00006a50

00000194 <setSpeed()>:
     194:	b500      	push	{lr}
     196:	b083      	sub	sp, #12
     198:	4808      	ldr	r0, [pc, #32]	; (1bc <setSpeed()+0x28>)
     19a:	f004 ff71 	bl	5080 <iprintf>
     19e:	a901      	add	r1, sp, #4
     1a0:	4807      	ldr	r0, [pc, #28]	; (1c0 <setSpeed()+0x2c>)
     1a2:	f004 ff7f 	bl	50a4 <iscanf>
     1a6:	9901      	ldr	r1, [sp, #4]
     1a8:	4b06      	ldr	r3, [pc, #24]	; (1c4 <setSpeed()+0x30>)
     1aa:	6019      	str	r1, [r3, #0]
     1ac:	4b06      	ldr	r3, [pc, #24]	; (1c8 <setSpeed()+0x34>)
     1ae:	6019      	str	r1, [r3, #0]
     1b0:	4806      	ldr	r0, [pc, #24]	; (1cc <setSpeed()+0x38>)
     1b2:	f004 ff65 	bl	5080 <iprintf>
     1b6:	b003      	add	sp, #12
     1b8:	f85d fb04 	ldr.w	pc, [sp], #4
     1bc:	00006a54 	.word	0x00006a54
     1c0:	00006a78 	.word	0x00006a78
     1c4:	20000008 	.word	0x20000008
     1c8:	20000004 	.word	0x20000004
     1cc:	00006a80 	.word	0x00006a80

000001d0 <main>:
     1d0:	e92d 43f0 	stmdb	sp!, {r4, r5, r6, r7, r8, r9, lr}
     1d4:	f2ad 6dfc 	subw	sp, sp, #1788	; 0x6fc
     1d8:	2326      	movs	r3, #38	; 0x26
     1da:	f44f 32e1 	mov.w	r2, #115200	; 0x1c200
     1de:	4972      	ldr	r1, [pc, #456]	; (3a8 <main+0x1d8>)
     1e0:	f50d 60dc 	add.w	r0, sp, #1760	; 0x6e0
     1e4:	f002 f9f6 	bl	25d4 <uart_msp432::uart_msp432(EUSCI_A_Type*, unsigned long, unsigned short)>
     1e8:	4e70      	ldr	r6, [pc, #448]	; (3ac <main+0x1dc>)
     1ea:	2201      	movs	r2, #1
     1ec:	f50d 61dc 	add.w	r1, sp, #1760	; 0x6e0
     1f0:	4630      	mov	r0, r6
     1f2:	f002 ffd5 	bl	31a0 <posix_io::register_stdout(uart_interface&, bool)>
     1f6:	2163      	movs	r1, #99	; 0x63
     1f8:	486d      	ldr	r0, [pc, #436]	; (3b0 <main+0x1e0>)
     1fa:	f004 ff41 	bl	5080 <iprintf>
     1fe:	4c6d      	ldr	r4, [pc, #436]	; (3b4 <main+0x1e4>)
     200:	f8cd 46d8 	str.w	r4, [sp, #1752]	; 0x6d8
     204:	270f      	movs	r7, #15
     206:	f88d 76dc 	strb.w	r7, [sp, #1756]	; 0x6dc
     20a:	f8cd 46d0 	str.w	r4, [sp, #1744]	; 0x6d0
     20e:	2509      	movs	r5, #9
     210:	f88d 56d4 	strb.w	r5, [sp, #1748]	; 0x6d4
     214:	6823      	ldr	r3, [r4, #0]
     216:	681b      	ldr	r3, [r3, #0]
     218:	2202      	movs	r2, #2
     21a:	4639      	mov	r1, r7
     21c:	4620      	mov	r0, r4
     21e:	4798      	blx	r3
     220:	6823      	ldr	r3, [r4, #0]
     222:	681b      	ldr	r3, [r3, #0]
     224:	2202      	movs	r2, #2
     226:	4629      	mov	r1, r5
     228:	4620      	mov	r0, r4
     22a:	4798      	blx	r3
     22c:	4c62      	ldr	r4, [pc, #392]	; (3b8 <main+0x1e8>)
     22e:	f8cd 46c8 	str.w	r4, [sp, #1736]	; 0x6c8
     232:	f240 2106 	movw	r1, #518	; 0x206
     236:	f8ad 16cc 	strh.w	r1, [sp, #1740]	; 0x6cc
     23a:	6823      	ldr	r3, [r4, #0]
     23c:	681b      	ldr	r3, [r3, #0]
     23e:	f44f 7281 	mov.w	r2, #258	; 0x102
     242:	4620      	mov	r0, r4
     244:	4798      	blx	r3
     246:	f8cd 46c0 	str.w	r4, [sp, #1728]	; 0x6c0
     24a:	f44f 63a0 	mov.w	r3, #1280	; 0x500
     24e:	f8ad 36c4 	strh.w	r3, [sp, #1732]	; 0x6c4
     252:	f24a 0380 	movw	r3, #41088	; 0xa080
     256:	9300      	str	r3, [sp, #0]
     258:	2301      	movs	r3, #1
     25a:	f50d 62d8 	add.w	r2, sp, #1728	; 0x6c0
     25e:	4957      	ldr	r1, [pc, #348]	; (3bc <main+0x1ec>)
     260:	f20d 6074 	addw	r0, sp, #1652	; 0x674
     264:	f001 fdba 	bl	1ddc <spi_msp432::spi_msp432(EUSCI_B_SPI_Type*, gpio_pin&, bool, unsigned short)>
     268:	4955      	ldr	r1, [pc, #340]	; (3c0 <main+0x1f0>)
     26a:	f20d 6074 	addw	r0, sp, #1652	; 0x674
     26e:	f001 ff8f 	bl	2190 <spi_msp432::setSpeed(unsigned long)>
     272:	f8cd 466c 	str.w	r4, [sp, #1644]	; 0x66c
     276:	f240 5101 	movw	r1, #1281	; 0x501
     27a:	f8ad 1670 	strh.w	r1, [sp, #1648]	; 0x670
     27e:	6823      	ldr	r3, [r4, #0]
     280:	681b      	ldr	r3, [r3, #0]
     282:	2211      	movs	r2, #17
     284:	4620      	mov	r0, r4
     286:	4798      	blx	r3
     288:	f8cd 4664 	str.w	r4, [sp, #1636]	; 0x664
     28c:	f240 3105 	movw	r1, #773	; 0x305
     290:	f8ad 1668 	strh.w	r1, [sp, #1640]	; 0x668
     294:	6823      	ldr	r3, [r4, #0]
     296:	681b      	ldr	r3, [r3, #0]
     298:	2211      	movs	r2, #17
     29a:	4620      	mov	r0, r4
     29c:	4798      	blx	r3
     29e:	f8cd 465c 	str.w	r4, [sp, #1628]	; 0x65c
     2a2:	f44f 7180 	mov.w	r1, #256	; 0x100
     2a6:	f8ad 1660 	strh.w	r1, [sp, #1632]	; 0x660
     2aa:	6823      	ldr	r3, [r4, #0]
     2ac:	681b      	ldr	r3, [r3, #0]
     2ae:	2202      	movs	r2, #2
     2b0:	4620      	mov	r0, r4
     2b2:	4798      	blx	r3
     2b4:	f8cd 4654 	str.w	r4, [sp, #1620]	; 0x654
     2b8:	f240 5307 	movw	r3, #1287	; 0x507
     2bc:	f8ad 3658 	strh.w	r3, [sp, #1624]	; 0x658
     2c0:	f8cd 464c 	str.w	r4, [sp, #1612]	; 0x64c
     2c4:	f240 3307 	movw	r3, #775	; 0x307
     2c8:	f8ad 3650 	strh.w	r3, [sp, #1616]	; 0x650
     2cc:	2400      	movs	r4, #0
     2ce:	9401      	str	r4, [sp, #4]
     2d0:	4b3c      	ldr	r3, [pc, #240]	; (3c4 <main+0x1f4>)
     2d2:	9300      	str	r3, [sp, #0]
     2d4:	f20d 634c 	addw	r3, sp, #1612	; 0x64c
     2d8:	f20d 6254 	addw	r2, sp, #1620	; 0x654
     2dc:	f20d 6174 	addw	r1, sp, #1652	; 0x674
     2e0:	f50d 60a6 	add.w	r0, sp, #1328	; 0x530
     2e4:	f000 fc2c 	bl	b40 <st7735s_drv::st7735s_drv(spi_interface&, gpio_pin&, gpio_pin&, st7735s_drv::config&, mutex_interface*)>
     2e8:	2201      	movs	r2, #1
     2ea:	f50d 61dc 	add.w	r1, sp, #1760	; 0x6e0
     2ee:	4630      	mov	r0, r6
     2f0:	f002 ff48 	bl	3184 <posix_io::register_stdin(uart_interface&, bool)>
     2f4:	2201      	movs	r2, #1
     2f6:	f50d 61dc 	add.w	r1, sp, #1760	; 0x6e0
     2fa:	4630      	mov	r0, r6
     2fc:	f002 ff50 	bl	31a0 <posix_io::register_stdout(uart_interface&, bool)>
     300:	2201      	movs	r2, #1
     302:	f50d 61dc 	add.w	r1, sp, #1760	; 0x6e0
     306:	4630      	mov	r0, r6
     308:	f002 ff58 	bl	31bc <posix_io::register_stderr(uart_interface&, bool)>
     30c:	f50d 61a6 	add.w	r1, sp, #1328	; 0x530
     310:	f20d 40e4 	addw	r0, sp, #1252	; 0x4e4
     314:	f003 f9d0 	bl	36b8 <uGUI::uGUI(lcd_interface&)>
     318:	4621      	mov	r1, r4
     31a:	f50d 60a6 	add.w	r0, sp, #1328	; 0x530
     31e:	f000 fe69 	bl	ff4 <st7735s_drv::clearScreen(unsigned long)>
     322:	2380      	movs	r3, #128	; 0x80
     324:	f8ad 34de 	strh.w	r3, [sp, #1246]	; 0x4de
     328:	f8ad 34dc 	strh.w	r3, [sp, #1244]	; 0x4dc
     32c:	4b26      	ldr	r3, [pc, #152]	; (3c8 <main+0x1f8>)
     32e:	f8cd 34d8 	str.w	r3, [sp, #1240]	; 0x4d8
     332:	2310      	movs	r3, #16
     334:	f88d 34e0 	strb.w	r3, [sp, #1248]	; 0x4e0
     338:	2302      	movs	r3, #2
     33a:	f88d 34e1 	strb.w	r3, [sp, #1249]	; 0x4e1
     33e:	4b23      	ldr	r3, [pc, #140]	; (3cc <main+0x1fc>)
     340:	9300      	str	r3, [sp, #0]
     342:	463b      	mov	r3, r7
     344:	2260      	movs	r2, #96	; 0x60
     346:	211e      	movs	r1, #30
     348:	f20d 40e4 	addw	r0, sp, #1252	; 0x4e4
     34c:	f003 f9e2 	bl	3714 <uGUI::DrawCircle(short, short, short, unsigned long)>
     350:	f44f 037f 	mov.w	r3, #16711680	; 0xff0000
     354:	9300      	str	r3, [sp, #0]
     356:	230d      	movs	r3, #13
     358:	2260      	movs	r2, #96	; 0x60
     35a:	211e      	movs	r1, #30
     35c:	f20d 40e4 	addw	r0, sp, #1252	; 0x4e4
     360:	f003 fabe 	bl	38e0 <uGUI::FillCircle(short, short, short, unsigned long)>
     364:	abe6      	add	r3, sp, #920	; 0x398
     366:	e00a      	b.n	37e <main+0x1ae>
     368:	2200      	movs	r2, #0
     36a:	811a      	strh	r2, [r3, #8]
     36c:	815a      	strh	r2, [r3, #10]
     36e:	819a      	strh	r2, [r3, #12]
     370:	81da      	strh	r2, [r3, #14]
     372:	821a      	strh	r2, [r3, #16]
     374:	825a      	strh	r2, [r3, #18]
     376:	829a      	strh	r2, [r3, #20]
     378:	82da      	strh	r2, [r3, #22]
     37a:	3d01      	subs	r5, #1
     37c:	3320      	adds	r3, #32
     37e:	2d00      	cmp	r5, #0
     380:	daf2      	bge.n	368 <main+0x198>
     382:	2109      	movs	r1, #9
     384:	ab96      	add	r3, sp, #600	; 0x258
     386:	e00a      	b.n	39e <main+0x1ce>
     388:	2200      	movs	r2, #0
     38a:	811a      	strh	r2, [r3, #8]
     38c:	815a      	strh	r2, [r3, #10]
     38e:	819a      	strh	r2, [r3, #12]
     390:	81da      	strh	r2, [r3, #14]
     392:	821a      	strh	r2, [r3, #16]
     394:	825a      	strh	r2, [r3, #18]
     396:	829a      	strh	r2, [r3, #20]
     398:	82da      	strh	r2, [r3, #22]
     39a:	3901      	subs	r1, #1
     39c:	3320      	adds	r3, #32
     39e:	2900      	cmp	r1, #0
     3a0:	daf2      	bge.n	388 <main+0x1b8>
     3a2:	2109      	movs	r1, #9
     3a4:	ab46      	add	r3, sp, #280	; 0x118
     3a6:	e01e      	b.n	3e6 <main+0x216>
     3a8:	40001000 	.word	0x40001000
     3ac:	2000068c 	.word	0x2000068c
     3b0:	00006a50 	.word	0x00006a50
     3b4:	200005d8 	.word	0x200005d8
     3b8:	2000016c 	.word	0x2000016c
     3bc:	40002000 	.word	0x40002000
     3c0:	016e3600 	.word	0x016e3600
     3c4:	20000588 	.word	0x20000588
     3c8:	00006ac0 	.word	0x00006ac0
     3cc:	00ffff00 	.word	0x00ffff00
     3d0:	2200      	movs	r2, #0
     3d2:	811a      	strh	r2, [r3, #8]
     3d4:	815a      	strh	r2, [r3, #10]
     3d6:	819a      	strh	r2, [r3, #12]
     3d8:	81da      	strh	r2, [r3, #14]
     3da:	821a      	strh	r2, [r3, #16]
     3dc:	825a      	strh	r2, [r3, #18]
     3de:	829a      	strh	r2, [r3, #20]
     3e0:	82da      	strh	r2, [r3, #22]
     3e2:	3901      	subs	r1, #1
     3e4:	3320      	adds	r3, #32
     3e6:	2900      	cmp	r1, #0
     3e8:	daf2      	bge.n	3d0 <main+0x200>
     3ea:	2678      	movs	r6, #120	; 0x78
     3ec:	9601      	str	r6, [sp, #4]
     3ee:	9600      	str	r6, [sp, #0]
     3f0:	2300      	movs	r3, #0
     3f2:	461a      	mov	r2, r3
     3f4:	a935      	add	r1, sp, #212	; 0xd4
     3f6:	f20d 40e4 	addw	r0, sp, #1252	; 0x4e4
     3fa:	f003 ff67 	bl	42cc <uGUI::WindowResize(uGUI::WINDOW*, short, short, short, short)>
     3fe:	4ba5      	ldr	r3, [pc, #660]	; (694 <main+0x4c4>)
     400:	9300      	str	r3, [sp, #0]
     402:	230a      	movs	r3, #10
     404:	aae6      	add	r2, sp, #920	; 0x398
     406:	a935      	add	r1, sp, #212	; 0xd4
     408:	f20d 40e4 	addw	r0, sp, #1252	; 0x4e4
     40c:	f003 ff0c 	bl	4228 <uGUI::WindowCreate(uGUI::WINDOW*, uGUI::OBJECT*, unsigned char, void (*)(uGUI::MESSAGE*))>
     410:	4ba1      	ldr	r3, [pc, #644]	; (698 <main+0x4c8>)
     412:	931e      	str	r3, [sp, #120]	; 0x78
     414:	2328      	movs	r3, #40	; 0x28
     416:	9303      	str	r3, [sp, #12]
     418:	246e      	movs	r4, #110	; 0x6e
     41a:	9402      	str	r4, [sp, #8]
     41c:	250a      	movs	r5, #10
     41e:	9501      	str	r5, [sp, #4]
     420:	9500      	str	r5, [sp, #0]
     422:	2300      	movs	r3, #0
     424:	aa1d      	add	r2, sp, #116	; 0x74
     426:	a935      	add	r1, sp, #212	; 0xd4
     428:	f20d 40e4 	addw	r0, sp, #1252	; 0x4e4
     42c:	f004 fae8 	bl	4a00 <uGUI::ButtonCreate(uGUI::WINDOW*, uGUI::BUTTON*, unsigned char, short, short, short, short)>
     430:	2350      	movs	r3, #80	; 0x50
     432:	9303      	str	r3, [sp, #12]
     434:	9402      	str	r4, [sp, #8]
     436:	2732      	movs	r7, #50	; 0x32
     438:	9701      	str	r7, [sp, #4]
     43a:	9500      	str	r5, [sp, #0]
     43c:	2301      	movs	r3, #1
     43e:	aa16      	add	r2, sp, #88	; 0x58
     440:	a935      	add	r1, sp, #212	; 0xd4
     442:	f20d 40e4 	addw	r0, sp, #1252	; 0x4e4
     446:	f004 fadb 	bl	4a00 <uGUI::ButtonCreate(uGUI::WINDOW*, uGUI::BUTTON*, unsigned char, short, short, short, short)>
     44a:	2376      	movs	r3, #118	; 0x76
     44c:	f88d 3057 	strb.w	r3, [sp, #87]	; 0x57
     450:	f10d 0357 	add.w	r3, sp, #87	; 0x57
     454:	2200      	movs	r2, #0
     456:	a935      	add	r1, sp, #212	; 0xd4
     458:	f20d 40e4 	addw	r0, sp, #1252	; 0x4e4
     45c:	f004 fb4a 	bl	4af4 <uGUI::ButtonSetText(uGUI::WINDOW*, unsigned char, char*)>
     460:	200d      	movs	r0, #13
     462:	f004 fba1 	bl	4ba8 <operator new[](unsigned int)>
     466:	4603      	mov	r3, r0
     468:	4c8c      	ldr	r4, [pc, #560]	; (69c <main+0x4cc>)
     46a:	cc07      	ldmia	r4!, {r0, r1, r2}
     46c:	6018      	str	r0, [r3, #0]
     46e:	6059      	str	r1, [r3, #4]
     470:	609a      	str	r2, [r3, #8]
     472:	7822      	ldrb	r2, [r4, #0]
     474:	731a      	strb	r2, [r3, #12]
     476:	2200      	movs	r2, #0
     478:	a935      	add	r1, sp, #212	; 0xd4
     47a:	f20d 40e4 	addw	r0, sp, #1252	; 0x4e4
     47e:	f004 fb39 	bl	4af4 <uGUI::ButtonSetText(uGUI::WINDOW*, unsigned char, char*)>
     482:	f8df 8240 	ldr.w	r8, [pc, #576]	; 6c4 <main+0x4f4>
     486:	4643      	mov	r3, r8
     488:	2200      	movs	r2, #0
     48a:	a935      	add	r1, sp, #212	; 0xd4
     48c:	f20d 40e4 	addw	r0, sp, #1252	; 0x4e4
     490:	f004 fb50 	bl	4b34 <uGUI::ButtonSetFont(uGUI::WINDOW*, unsigned char, uGUI::FONT const*)>
     494:	2008      	movs	r0, #8
     496:	f004 fb87 	bl	4ba8 <operator new[](unsigned int)>
     49a:	4603      	mov	r3, r0
     49c:	4a80      	ldr	r2, [pc, #512]	; (6a0 <main+0x4d0>)
     49e:	ca03      	ldmia	r2!, {r0, r1}
     4a0:	6018      	str	r0, [r3, #0]
     4a2:	6059      	str	r1, [r3, #4]
     4a4:	2201      	movs	r2, #1
     4a6:	a935      	add	r1, sp, #212	; 0xd4
     4a8:	f20d 40e4 	addw	r0, sp, #1252	; 0x4e4
     4ac:	f004 fb22 	bl	4af4 <uGUI::ButtonSetText(uGUI::WINDOW*, unsigned char, char*)>
     4b0:	4643      	mov	r3, r8
     4b2:	2201      	movs	r2, #1
     4b4:	a935      	add	r1, sp, #212	; 0xd4
     4b6:	f20d 40e4 	addw	r0, sp, #1252	; 0x4e4
     4ba:	f004 fb3b 	bl	4b34 <uGUI::ButtonSetFont(uGUI::WINDOW*, unsigned char, uGUI::FONT const*)>
     4be:	200e      	movs	r0, #14
     4c0:	f004 fb72 	bl	4ba8 <operator new[](unsigned int)>
     4c4:	4603      	mov	r3, r0
     4c6:	4c77      	ldr	r4, [pc, #476]	; (6a4 <main+0x4d4>)
     4c8:	cc07      	ldmia	r4!, {r0, r1, r2}
     4ca:	6018      	str	r0, [r3, #0]
     4cc:	6059      	str	r1, [r3, #4]
     4ce:	609a      	str	r2, [r3, #8]
     4d0:	8822      	ldrh	r2, [r4, #0]
     4d2:	819a      	strh	r2, [r3, #12]
     4d4:	461a      	mov	r2, r3
     4d6:	a935      	add	r1, sp, #212	; 0xd4
     4d8:	f20d 40e4 	addw	r0, sp, #1252	; 0x4e4
     4dc:	f003 ffd8 	bl	4490 <uGUI::WindowSetTitleText(uGUI::WINDOW*, char*)>
     4e0:	4a71      	ldr	r2, [pc, #452]	; (6a8 <main+0x4d8>)
     4e2:	a935      	add	r1, sp, #212	; 0xd4
     4e4:	f20d 40e4 	addw	r0, sp, #1252	; 0x4e4
     4e8:	f003 ffc4 	bl	4474 <uGUI::WindowSetTitleColor(uGUI::WINDOW*, unsigned long)>
     4ec:	f06f 427f 	mvn.w	r2, #4278190080	; 0xff000000
     4f0:	a935      	add	r1, sp, #212	; 0xd4
     4f2:	f20d 40e4 	addw	r0, sp, #1252	; 0x4e4
     4f6:	f003 ffaf 	bl	4458 <uGUI::WindowSetTitleTextColor(uGUI::WINDOW*, unsigned long)>
     4fa:	4642      	mov	r2, r8
     4fc:	a935      	add	r1, sp, #212	; 0xd4
     4fe:	f20d 40e4 	addw	r0, sp, #1252	; 0x4e4
     502:	f003 ffd3 	bl	44ac <uGUI::WindowSetTitleTextFont(uGUI::WINDOW*, uGUI::FONT const*)>
     506:	2010      	movs	r0, #16
     508:	f004 fb4e 	bl	4ba8 <operator new[](unsigned int)>
     50c:	4604      	mov	r4, r0
     50e:	f8df c1b8 	ldr.w	ip, [pc, #440]	; 6c8 <main+0x4f8>
     512:	e8bc 000f 	ldmia.w	ip!, {r0, r1, r2, r3}
     516:	6020      	str	r0, [r4, #0]
     518:	6061      	str	r1, [r4, #4]
     51a:	60a2      	str	r2, [r4, #8]
     51c:	60e3      	str	r3, [r4, #12]
     51e:	9601      	str	r6, [sp, #4]
     520:	9600      	str	r6, [sp, #0]
     522:	2300      	movs	r3, #0
     524:	461a      	mov	r2, r3
     526:	a904      	add	r1, sp, #16
     528:	f20d 40e4 	addw	r0, sp, #1252	; 0x4e4
     52c:	f003 fece 	bl	42cc <uGUI::WindowResize(uGUI::WINDOW*, short, short, short, short)>
     530:	4b5e      	ldr	r3, [pc, #376]	; (6ac <main+0x4dc>)
     532:	9300      	str	r3, [sp, #0]
     534:	462b      	mov	r3, r5
     536:	aa46      	add	r2, sp, #280	; 0x118
     538:	a904      	add	r1, sp, #16
     53a:	f20d 40e4 	addw	r0, sp, #1252	; 0x4e4
     53e:	f003 fe73 	bl	4228 <uGUI::WindowCreate(uGUI::WINDOW*, uGUI::OBJECT*, unsigned char, void (*)(uGUI::MESSAGE*))>
     542:	4622      	mov	r2, r4
     544:	a904      	add	r1, sp, #16
     546:	f20d 40e4 	addw	r0, sp, #1252	; 0x4e4
     54a:	f003 ffa1 	bl	4490 <uGUI::WindowSetTitleText(uGUI::WINDOW*, char*)>
     54e:	f44f 027f 	mov.w	r2, #16711680	; 0xff0000
     552:	a904      	add	r1, sp, #16
     554:	f20d 40e4 	addw	r0, sp, #1252	; 0x4e4
     558:	f003 ff8c 	bl	4474 <uGUI::WindowSetTitleColor(uGUI::WINDOW*, unsigned long)>
     55c:	f06f 427f 	mvn.w	r2, #4278190080	; 0xff000000
     560:	a904      	add	r1, sp, #16
     562:	f20d 40e4 	addw	r0, sp, #1252	; 0x4e4
     566:	f003 ff77 	bl	4458 <uGUI::WindowSetTitleTextColor(uGUI::WINDOW*, unsigned long)>
     56a:	4632      	mov	r2, r6
     56c:	a904      	add	r1, sp, #16
     56e:	f20d 40e4 	addw	r0, sp, #1252	; 0x4e4
     572:	f003 ffb7 	bl	44e4 <uGUI::WindowSetTitleHeight(uGUI::WINDOW*, unsigned char)>
     576:	4642      	mov	r2, r8
     578:	a904      	add	r1, sp, #16
     57a:	f20d 40e4 	addw	r0, sp, #1252	; 0x4e4
     57e:	f003 ff95 	bl	44ac <uGUI::WindowSetTitleTextFont(uGUI::WINDOW*, uGUI::FONT const*)>
     582:	f20d 40e4 	addw	r0, sp, #1252	; 0x4e4
     586:	f004 f901 	bl	478c <uGUI::Update()>
     58a:	4949      	ldr	r1, [pc, #292]	; (6b0 <main+0x4e0>)
     58c:	f50d 60a6 	add.w	r0, sp, #1328	; 0x530
     590:	f000 fd30 	bl	ff4 <st7735s_drv::clearScreen(unsigned long)>
     594:	4b47      	ldr	r3, [pc, #284]	; (6b4 <main+0x4e4>)
     596:	9300      	str	r3, [sp, #0]
     598:	462b      	mov	r3, r5
     59a:	aa96      	add	r2, sp, #600	; 0x258
     59c:	a924      	add	r1, sp, #144	; 0x90
     59e:	f20d 40e4 	addw	r0, sp, #1252	; 0x4e4
     5a2:	f003 fe41 	bl	4228 <uGUI::WindowCreate(uGUI::WINDOW*, uGUI::OBJECT*, unsigned char, void (*)(uGUI::MESSAGE*))>
     5a6:	237e      	movs	r3, #126	; 0x7e
     5a8:	9301      	str	r3, [sp, #4]
     5aa:	2346      	movs	r3, #70	; 0x46
     5ac:	9300      	str	r3, [sp, #0]
     5ae:	236a      	movs	r3, #106	; 0x6a
     5b0:	463a      	mov	r2, r7
     5b2:	a924      	add	r1, sp, #144	; 0x90
     5b4:	f20d 40e4 	addw	r0, sp, #1252	; 0x4e4
     5b8:	f003 fe88 	bl	42cc <uGUI::WindowResize(uGUI::WINDOW*, short, short, short, short)>
     5bc:	4a3e      	ldr	r2, [pc, #248]	; (6b8 <main+0x4e8>)
     5be:	a924      	add	r1, sp, #144	; 0x90
     5c0:	f20d 40e4 	addw	r0, sp, #1252	; 0x4e4
     5c4:	f003 ff3a 	bl	443c <uGUI::WindowSetBackColor(uGUI::WINDOW*, unsigned long)>
     5c8:	a924      	add	r1, sp, #144	; 0x90
     5ca:	f20d 40e4 	addw	r0, sp, #1252	; 0x4e4
     5ce:	f003 fe6f 	bl	42b0 <uGUI::WindowShow(uGUI::WINDOW*)>
     5d2:	2200      	movs	r2, #0
     5d4:	a924      	add	r1, sp, #144	; 0x90
     5d6:	f20d 40e4 	addw	r0, sp, #1252	; 0x4e4
     5da:	f003 ff83 	bl	44e4 <uGUI::WindowSetTitleHeight(uGUI::WINDOW*, unsigned char)>
     5de:	f04f 0800 	mov.w	r8, #0
     5e2:	4647      	mov	r7, r8
     5e4:	e0a2      	b.n	72c <main+0x55c>
     5e6:	a904      	add	r1, sp, #16
     5e8:	f20d 40e4 	addw	r0, sp, #1252	; 0x4e4
     5ec:	f003 fe60 	bl	42b0 <uGUI::WindowShow(uGUI::WINDOW*)>
     5f0:	f20d 40e4 	addw	r0, sp, #1252	; 0x4e4
     5f4:	f004 f8ca 	bl	478c <uGUI::Update()>
     5f8:	f7ff fdcc 	bl	194 <setSpeed()>
     5fc:	a904      	add	r1, sp, #16
     5fe:	f20d 40e4 	addw	r0, sp, #1252	; 0x4e4
     602:	f004 f98b 	bl	491c <uGUI::WindowHide(uGUI::WINDOW*)>
     606:	f20d 40e4 	addw	r0, sp, #1252	; 0x4e4
     60a:	f004 f8bf 	bl	478c <uGUI::Update()>
     60e:	2064      	movs	r0, #100	; 0x64
     610:	f002 fb4a 	bl	2ca8 <task::sleep(unsigned long)>
     614:	e097      	b.n	746 <main+0x576>
     616:	f5b5 7fc8 	cmp.w	r5, #400	; 0x190
     61a:	da03      	bge.n	624 <main+0x454>
     61c:	4b27      	ldr	r3, [pc, #156]	; (6bc <main+0x4ec>)
     61e:	681c      	ldr	r4, [r3, #0]
     620:	4264      	negs	r4, r4
     622:	e0a2      	b.n	76a <main+0x59a>
     624:	2400      	movs	r4, #0
     626:	e0a0      	b.n	76a <main+0x59a>
     628:	f44f 437f 	mov.w	r3, #65280	; 0xff00
     62c:	2201      	movs	r2, #1
     62e:	a935      	add	r1, sp, #212	; 0xd4
     630:	f20d 40e4 	addw	r0, sp, #1252	; 0x4e4
     634:	f004 fa3e 	bl	4ab4 <uGUI::ButtonSetBackColor(uGUI::WINDOW*, unsigned char, unsigned long)>
     638:	f06f 437f 	mvn.w	r3, #4278190080	; 0xff000000
     63c:	2200      	movs	r2, #0
     63e:	a935      	add	r1, sp, #212	; 0xd4
     640:	f20d 40e4 	addw	r0, sp, #1252	; 0x4e4
     644:	f004 fa36 	bl	4ab4 <uGUI::ButtonSetBackColor(uGUI::WINDOW*, unsigned char, unsigned long)>
     648:	2064      	movs	r0, #100	; 0x64
     64a:	f002 fb2d 	bl	2ca8 <task::sleep(unsigned long)>
     64e:	f04f 0800 	mov.w	r8, #0
     652:	e093      	b.n	77c <main+0x5ac>
     654:	f5b0 7f16 	cmp.w	r0, #600	; 0x258
     658:	dd1a      	ble.n	690 <main+0x4c0>
     65a:	4b19      	ldr	r3, [pc, #100]	; (6c0 <main+0x4f0>)
     65c:	681e      	ldr	r6, [r3, #0]
     65e:	4276      	negs	r6, r6
     660:	2f00      	cmp	r7, #0
     662:	f000 808b 	beq.w	77c <main+0x5ac>
     666:	f44f 437f 	mov.w	r3, #65280	; 0xff00
     66a:	2200      	movs	r2, #0
     66c:	a935      	add	r1, sp, #212	; 0xd4
     66e:	f20d 40e4 	addw	r0, sp, #1252	; 0x4e4
     672:	f004 fa1f 	bl	4ab4 <uGUI::ButtonSetBackColor(uGUI::WINDOW*, unsigned char, unsigned long)>
     676:	f06f 437f 	mvn.w	r3, #4278190080	; 0xff000000
     67a:	2201      	movs	r2, #1
     67c:	a935      	add	r1, sp, #212	; 0xd4
     67e:	f20d 40e4 	addw	r0, sp, #1252	; 0x4e4
     682:	f004 fa17 	bl	4ab4 <uGUI::ButtonSetBackColor(uGUI::WINDOW*, unsigned char, unsigned long)>
     686:	2064      	movs	r0, #100	; 0x64
     688:	f002 fb0e 	bl	2ca8 <task::sleep(unsigned long)>
     68c:	46b8      	mov	r8, r7
     68e:	e075      	b.n	77c <main+0x5ac>
     690:	2600      	movs	r6, #0
     692:	e073      	b.n	77c <main+0x5ac>
     694:	00000175 	.word	0x00000175
     698:	00ffff00 	.word	0x00ffff00
     69c:	00006a88 	.word	0x00006a88
     6a0:	00006a98 	.word	0x00006a98
     6a4:	00006aa0 	.word	0x00006aa0
     6a8:	00bc8f8f 	.word	0x00bc8f8f
     6ac:	00000171 	.word	0x00000171
     6b0:	004682b4 	.word	0x004682b4
     6b4:	00000185 	.word	0x00000185
     6b8:	00d2691e 	.word	0x00d2691e
     6bc:	20000008 	.word	0x20000008
     6c0:	20000004 	.word	0x20000004
     6c4:	0000ef58 	.word	0x0000ef58
     6c8:	00006ab0 	.word	0x00006ab0
     6cc:	3b01      	subs	r3, #1
     6ce:	2b00      	cmp	r3, #0
     6d0:	dcfc      	bgt.n	6cc <main+0x4fc>
     6d2:	4842      	ldr	r0, [pc, #264]	; (7dc <main+0x60c>)
     6d4:	6803      	ldr	r3, [r0, #0]
     6d6:	685b      	ldr	r3, [r3, #4]
     6d8:	f240 5101 	movw	r1, #1281	; 0x501
     6dc:	4798      	blx	r3
     6de:	b960      	cbnz	r0, 6fa <main+0x52a>
     6e0:	483e      	ldr	r0, [pc, #248]	; (7dc <main+0x60c>)
     6e2:	6803      	ldr	r3, [r0, #0]
     6e4:	689b      	ldr	r3, [r3, #8]
     6e6:	2201      	movs	r2, #1
     6e8:	f44f 7180 	mov.w	r1, #256	; 0x100
     6ec:	4798      	blx	r3
     6ee:	a935      	add	r1, sp, #212	; 0xd4
     6f0:	f20d 40e4 	addw	r0, sp, #1252	; 0x4e4
     6f4:	f003 fddc 	bl	42b0 <uGUI::WindowShow(uGUI::WINDOW*)>
     6f8:	2701      	movs	r7, #1
     6fa:	4838      	ldr	r0, [pc, #224]	; (7dc <main+0x60c>)
     6fc:	6803      	ldr	r3, [r0, #0]
     6fe:	685b      	ldr	r3, [r3, #4]
     700:	f240 3105 	movw	r1, #773	; 0x305
     704:	4798      	blx	r3
     706:	4604      	mov	r4, r0
     708:	b960      	cbnz	r0, 724 <main+0x554>
     70a:	4834      	ldr	r0, [pc, #208]	; (7dc <main+0x60c>)
     70c:	6803      	ldr	r3, [r0, #0]
     70e:	689b      	ldr	r3, [r3, #8]
     710:	2200      	movs	r2, #0
     712:	f44f 7180 	mov.w	r1, #256	; 0x100
     716:	4798      	blx	r3
     718:	a935      	add	r1, sp, #212	; 0xd4
     71a:	f20d 40e4 	addw	r0, sp, #1252	; 0x4e4
     71e:	f004 f8fd 	bl	491c <uGUI::WindowHide(uGUI::WINDOW*)>
     722:	4627      	mov	r7, r4
     724:	f20d 40e4 	addw	r0, sp, #1252	; 0x4e4
     728:	f004 f830 	bl	478c <uGUI::Update()>
     72c:	f1b8 0f00 	cmp.w	r8, #0
     730:	d009      	beq.n	746 <main+0x576>
     732:	b147      	cbz	r7, 746 <main+0x576>
     734:	4829      	ldr	r0, [pc, #164]	; (7dc <main+0x60c>)
     736:	6803      	ldr	r3, [r0, #0]
     738:	685b      	ldr	r3, [r3, #4]
     73a:	f240 5101 	movw	r1, #1281	; 0x501
     73e:	4798      	blx	r3
     740:	2800      	cmp	r0, #0
     742:	f43f af50 	beq.w	5e6 <main+0x416>
     746:	4c26      	ldr	r4, [pc, #152]	; (7e0 <main+0x610>)
     748:	6823      	ldr	r3, [r4, #0]
     74a:	689b      	ldr	r3, [r3, #8]
     74c:	210f      	movs	r1, #15
     74e:	4620      	mov	r0, r4
     750:	4798      	blx	r3
     752:	4605      	mov	r5, r0
     754:	6823      	ldr	r3, [r4, #0]
     756:	689b      	ldr	r3, [r3, #8]
     758:	2109      	movs	r1, #9
     75a:	4620      	mov	r0, r4
     75c:	4798      	blx	r3
     75e:	f5b5 7f16 	cmp.w	r5, #600	; 0x258
     762:	f77f af58 	ble.w	616 <main+0x446>
     766:	4b1f      	ldr	r3, [pc, #124]	; (7e4 <main+0x614>)
     768:	681c      	ldr	r4, [r3, #0]
     76a:	f5b0 7fc8 	cmp.w	r0, #400	; 0x190
     76e:	f6bf af71 	bge.w	654 <main+0x484>
     772:	4b1d      	ldr	r3, [pc, #116]	; (7e8 <main+0x618>)
     774:	681e      	ldr	r6, [r3, #0]
     776:	2f00      	cmp	r7, #0
     778:	f47f af56 	bne.w	628 <main+0x458>
     77c:	a924      	add	r1, sp, #144	; 0x90
     77e:	f20d 40e4 	addw	r0, sp, #1252	; 0x4e4
     782:	f003 febf 	bl	4504 <uGUI::WindowGetXStart(uGUI::WINDOW*)>
     786:	b2a4      	uxth	r4, r4
     788:	fa14 f580 	uxtah	r5, r4, r0
     78c:	b2ad      	uxth	r5, r5
     78e:	a924      	add	r1, sp, #144	; 0x90
     790:	f20d 40e4 	addw	r0, sp, #1252	; 0x4e4
     794:	f003 fec0 	bl	4518 <uGUI::WindowGetYStart(uGUI::WINDOW*)>
     798:	fa1f f986 	uxth.w	r9, r6
     79c:	fa19 f680 	uxtah	r6, r9, r0
     7a0:	b2b6      	uxth	r6, r6
     7a2:	a924      	add	r1, sp, #144	; 0x90
     7a4:	f20d 40e4 	addw	r0, sp, #1252	; 0x4e4
     7a8:	f003 fec0 	bl	452c <uGUI::WindowGetXEnd(uGUI::WINDOW*)>
     7ac:	fa14 f480 	uxtah	r4, r4, r0
     7b0:	b2a4      	uxth	r4, r4
     7b2:	a924      	add	r1, sp, #144	; 0x90
     7b4:	f20d 40e4 	addw	r0, sp, #1252	; 0x4e4
     7b8:	f003 fec2 	bl	4540 <uGUI::WindowGetYEnd(uGUI::WINDOW*)>
     7bc:	fa19 f380 	uxtah	r3, r9, r0
     7c0:	b21b      	sxth	r3, r3
     7c2:	9301      	str	r3, [sp, #4]
     7c4:	b224      	sxth	r4, r4
     7c6:	9400      	str	r4, [sp, #0]
     7c8:	b233      	sxth	r3, r6
     7ca:	b22a      	sxth	r2, r5
     7cc:	a924      	add	r1, sp, #144	; 0x90
     7ce:	f20d 40e4 	addw	r0, sp, #1252	; 0x4e4
     7d2:	f003 fd7b 	bl	42cc <uGUI::WindowResize(uGUI::WINDOW*, short, short, short, short)>
     7d6:	4b05      	ldr	r3, [pc, #20]	; (7ec <main+0x61c>)
     7d8:	e779      	b.n	6ce <main+0x4fe>
     7da:	bf00      	nop
     7dc:	2000016c 	.word	0x2000016c
     7e0:	200005d8 	.word	0x200005d8
     7e4:	20000008 	.word	0x20000008
     7e8:	20000004 	.word	0x20000004
     7ec:	000186a0 	.word	0x000186a0

000007f0 <yahal_assert_func()>:
     7f0:	e7fe      	b.n	7f0 <yahal_assert_func()>

000007f2 <pixel_stream_const::getColorType()>:
     7f2:	6840      	ldr	r0, [r0, #4]
     7f4:	f000 407f 	and.w	r0, r0, #4278190080	; 0xff000000
     7f8:	4770      	bx	lr

000007fa <pixel_stream_const::getNext()>:
     7fa:	6840      	ldr	r0, [r0, #4]
     7fc:	4770      	bx	lr

000007fe <pixel_stream_const::reset()>:
     7fe:	4770      	bx	lr

00000800 <st7735s_drv::~st7735s_drv()>:
     800:	4a02      	ldr	r2, [pc, #8]	; (80c <st7735s_drv::~st7735s_drv()+0xc>)
     802:	6002      	str	r2, [r0, #0]
     804:	4a02      	ldr	r2, [pc, #8]	; (810 <st7735s_drv::~st7735s_drv()+0x10>)
     806:	6002      	str	r2, [r0, #0]
     808:	4770      	bx	lr
     80a:	bf00      	nop
     80c:	0000eb58 	.word	0x0000eb58
     810:	0000eb2c 	.word	0x0000eb2c

00000814 <st7735s_drv::getSizeX()>:
     814:	f890 3114 	ldrb.w	r3, [r0, #276]	; 0x114
     818:	2b01      	cmp	r3, #1
     81a:	d903      	bls.n	824 <st7735s_drv::getSizeX()+0x10>
     81c:	f8d0 3110 	ldr.w	r3, [r0, #272]	; 0x110
     820:	8858      	ldrh	r0, [r3, #2]
     822:	4770      	bx	lr
     824:	f8d0 3110 	ldr.w	r3, [r0, #272]	; 0x110
     828:	8818      	ldrh	r0, [r3, #0]
     82a:	4770      	bx	lr

0000082c <st7735s_drv::getSizeY()>:
     82c:	f890 3114 	ldrb.w	r3, [r0, #276]	; 0x114
     830:	2b01      	cmp	r3, #1
     832:	d903      	bls.n	83c <st7735s_drv::getSizeY()+0x10>
     834:	f8d0 3110 	ldr.w	r3, [r0, #272]	; 0x110
     838:	8818      	ldrh	r0, [r3, #0]
     83a:	4770      	bx	lr
     83c:	f8d0 3110 	ldr.w	r3, [r0, #272]	; 0x110
     840:	8858      	ldrh	r0, [r3, #2]
     842:	4770      	bx	lr

00000844 <pixel_stream_const::~pixel_stream_const()>:
     844:	4b01      	ldr	r3, [pc, #4]	; (84c <pixel_stream_const::~pixel_stream_const()+0x8>)
     846:	6003      	str	r3, [r0, #0]
     848:	4770      	bx	lr
     84a:	bf00      	nop
     84c:	0000eb84 	.word	0x0000eb84

00000850 <__static_initialization_and_destruction_0(int, int)>:
     850:	2801      	cmp	r0, #1
     852:	d000      	beq.n	856 <__static_initialization_and_destruction_0(int, int)+0x6>
     854:	4770      	bx	lr
     856:	f64f 73ff 	movw	r3, #65535	; 0xffff
     85a:	4299      	cmp	r1, r3
     85c:	d1fa      	bne.n	854 <__static_initialization_and_destruction_0(int, int)+0x4>
     85e:	4b06      	ldr	r3, [pc, #24]	; (878 <__static_initialization_and_destruction_0(int, int)+0x28>)
     860:	2280      	movs	r2, #128	; 0x80
     862:	801a      	strh	r2, [r3, #0]
     864:	805a      	strh	r2, [r3, #2]
     866:	2284      	movs	r2, #132	; 0x84
     868:	809a      	strh	r2, [r3, #4]
     86a:	80da      	strh	r2, [r3, #6]
     86c:	2202      	movs	r2, #2
     86e:	721a      	strb	r2, [r3, #8]
     870:	2201      	movs	r2, #1
     872:	725a      	strb	r2, [r3, #9]
     874:	729a      	strb	r2, [r3, #10]
     876:	e7ed      	b.n	854 <__static_initialization_and_destruction_0(int, int)+0x4>
     878:	20000588 	.word	0x20000588

0000087c <pixel_stream_const::~pixel_stream_const()>:
     87c:	b510      	push	{r4, lr}
     87e:	4604      	mov	r4, r0
     880:	4b03      	ldr	r3, [pc, #12]	; (890 <pixel_stream_const::~pixel_stream_const()+0x14>)
     882:	6003      	str	r3, [r0, #0]
     884:	2108      	movs	r1, #8
     886:	f004 f97a 	bl	4b7e <operator delete(void*, unsigned int)>
     88a:	4620      	mov	r0, r4
     88c:	bd10      	pop	{r4, pc}
     88e:	bf00      	nop
     890:	0000eb84 	.word	0x0000eb84

00000894 <st7735s_drv::~st7735s_drv()>:
     894:	b510      	push	{r4, lr}
     896:	4604      	mov	r4, r0
     898:	f7ff ffb2 	bl	800 <st7735s_drv::~st7735s_drv()>
     89c:	f44f 718e 	mov.w	r1, #284	; 0x11c
     8a0:	4620      	mov	r0, r4
     8a2:	f004 f96c 	bl	4b7e <operator delete(void*, unsigned int)>
     8a6:	4620      	mov	r0, r4
     8a8:	bd10      	pop	{r4, pc}
	...

000008ac <lcd_interface::convertColor(unsigned long, unsigned long)>:
     8ac:	b508      	push	{r3, lr}
     8ae:	f001 437f 	and.w	r3, r1, #4278190080	; 0xff000000
     8b2:	4293      	cmp	r3, r2
     8b4:	d018      	beq.n	8e8 <lcd_interface::convertColor(unsigned long, unsigned long)+0x3c>
     8b6:	b97b      	cbnz	r3, 8d8 <lcd_interface::convertColor(unsigned long, unsigned long)+0x2c>
     8b8:	f1b2 7f80 	cmp.w	r2, #16777216	; 0x1000000
     8bc:	d10c      	bne.n	8d8 <lcd_interface::convertColor(unsigned long, unsigned long)+0x2c>
     8be:	0a0b      	lsrs	r3, r1, #8
     8c0:	f403 4378 	and.w	r3, r3, #63488	; 0xf800
     8c4:	094a      	lsrs	r2, r1, #5
     8c6:	f402 62fc 	and.w	r2, r2, #2016	; 0x7e0
     8ca:	4313      	orrs	r3, r2
     8cc:	f3c1 01c4 	ubfx	r1, r1, #3, #5
     8d0:	430b      	orrs	r3, r1
     8d2:	f043 7080 	orr.w	r0, r3, #16777216	; 0x1000000
     8d6:	bd08      	pop	{r3, pc}
     8d8:	4b04      	ldr	r3, [pc, #16]	; (8ec <lcd_interface::convertColor(unsigned long, unsigned long)+0x40>)
     8da:	4a05      	ldr	r2, [pc, #20]	; (8f0 <lcd_interface::convertColor(unsigned long, unsigned long)+0x44>)
     8dc:	601a      	str	r2, [r3, #0]
     8de:	4b05      	ldr	r3, [pc, #20]	; (8f4 <lcd_interface::convertColor(unsigned long, unsigned long)+0x48>)
     8e0:	2254      	movs	r2, #84	; 0x54
     8e2:	601a      	str	r2, [r3, #0]
     8e4:	f7ff ff84 	bl	7f0 <yahal_assert_func()>
     8e8:	4608      	mov	r0, r1
     8ea:	e7f4      	b.n	8d6 <lcd_interface::convertColor(unsigned long, unsigned long)+0x2a>
     8ec:	200000b0 	.word	0x200000b0
     8f0:	0000eac0 	.word	0x0000eac0
     8f4:	200000cc 	.word	0x200000cc

000008f8 <st7735s_drv::fillArea(unsigned short, unsigned short, unsigned short, unsigned short, unsigned long)>:
     8f8:	e92d 43f0 	stmdb	sp!, {r4, r5, r6, r7, r8, r9, lr}
     8fc:	b085      	sub	sp, #20
     8fe:	4604      	mov	r4, r0
     900:	460d      	mov	r5, r1
     902:	4616      	mov	r6, r2
     904:	461f      	mov	r7, r3
     906:	f04f 7280 	mov.w	r2, #16777216	; 0x1000000
     90a:	990d      	ldr	r1, [sp, #52]	; 0x34
     90c:	f7ff ffce 	bl	8ac <lcd_interface::convertColor(unsigned long, unsigned long)>
     910:	4b0c      	ldr	r3, [pc, #48]	; (944 <st7735s_drv::fillArea(unsigned short, unsigned short, unsigned short, unsigned short, unsigned long)+0x4c>)
     912:	9302      	str	r3, [sp, #8]
     914:	f8df 8030 	ldr.w	r8, [pc, #48]	; 948 <st7735s_drv::fillArea(unsigned short, unsigned short, unsigned short, unsigned short, unsigned long)+0x50>
     918:	f8cd 8008 	str.w	r8, [sp, #8]
     91c:	9003      	str	r0, [sp, #12]
     91e:	6823      	ldr	r3, [r4, #0]
     920:	aa02      	add	r2, sp, #8
     922:	9201      	str	r2, [sp, #4]
     924:	f8bd 2030 	ldrh.w	r2, [sp, #48]	; 0x30
     928:	9200      	str	r2, [sp, #0]
     92a:	f8d3 9014 	ldr.w	r9, [r3, #20]
     92e:	463b      	mov	r3, r7
     930:	4632      	mov	r2, r6
     932:	4629      	mov	r1, r5
     934:	4620      	mov	r0, r4
     936:	47c8      	blx	r9
     938:	f8cd 8008 	str.w	r8, [sp, #8]
     93c:	b005      	add	sp, #20
     93e:	e8bd 83f0 	ldmia.w	sp!, {r4, r5, r6, r7, r8, r9, pc}
     942:	bf00      	nop
     944:	0000eb18 	.word	0x0000eb18
     948:	0000eb84 	.word	0x0000eb84

0000094c <st7735s_drv::change(unsigned short&, unsigned short&)>:
     94c:	b510      	push	{r4, lr}
     94e:	f890 3114 	ldrb.w	r3, [r0, #276]	; 0x114
     952:	2b03      	cmp	r3, #3
     954:	d815      	bhi.n	982 <st7735s_drv::change(unsigned short&, unsigned short&)+0x36>
     956:	e8df f003 	tbb	[pc, r3]
     95a:	2702      	.short	0x2702
     95c:	412e      	.short	0x412e
     95e:	f8b2 e000 	ldrh.w	lr, [r2]
     962:	f8d0 4110 	ldr.w	r4, [r0, #272]	; 0x110
     966:	8863      	ldrh	r3, [r4, #2]
     968:	7a64      	ldrb	r4, [r4, #9]
     96a:	4423      	add	r3, r4
     96c:	b29b      	uxth	r3, r3
     96e:	f990 c115 	ldrsb.w	ip, [r0, #277]	; 0x115
     972:	fa1f fc8c 	uxth.w	ip, ip
     976:	eba3 030c 	sub.w	r3, r3, ip
     97a:	fa1e f383 	uxtah	r3, lr, r3
     97e:	3b01      	subs	r3, #1
     980:	8013      	strh	r3, [r2, #0]
     982:	8813      	ldrh	r3, [r2, #0]
     984:	f8d0 4110 	ldr.w	r4, [r0, #272]	; 0x110
     988:	f8b4 c002 	ldrh.w	ip, [r4, #2]
     98c:	4563      	cmp	r3, ip
     98e:	d302      	bcc.n	996 <st7735s_drv::change(unsigned short&, unsigned short&)+0x4a>
     990:	eba3 030c 	sub.w	r3, r3, ip
     994:	8013      	strh	r3, [r2, #0]
     996:	880b      	ldrh	r3, [r1, #0]
     998:	f8d0 2110 	ldr.w	r2, [r0, #272]	; 0x110
     99c:	8852      	ldrh	r2, [r2, #2]
     99e:	4293      	cmp	r3, r2
     9a0:	d301      	bcc.n	9a6 <st7735s_drv::change(unsigned short&, unsigned short&)+0x5a>
     9a2:	1a9b      	subs	r3, r3, r2
     9a4:	800b      	strh	r3, [r1, #0]
     9a6:	bd10      	pop	{r4, pc}
     9a8:	8814      	ldrh	r4, [r2, #0]
     9aa:	f990 3115 	ldrsb.w	r3, [r0, #277]	; 0x115
     9ae:	fa14 f383 	uxtah	r3, r4, r3
     9b2:	8013      	strh	r3, [r2, #0]
     9b4:	e7e5      	b.n	982 <st7735s_drv::change(unsigned short&, unsigned short&)+0x36>
     9b6:	f8b1 e000 	ldrh.w	lr, [r1]
     9ba:	f8d0 4110 	ldr.w	r4, [r0, #272]	; 0x110
     9be:	8863      	ldrh	r3, [r4, #2]
     9c0:	7a64      	ldrb	r4, [r4, #9]
     9c2:	4423      	add	r3, r4
     9c4:	b29b      	uxth	r3, r3
     9c6:	f990 c115 	ldrsb.w	ip, [r0, #277]	; 0x115
     9ca:	fa1f fc8c 	uxth.w	ip, ip
     9ce:	eba3 030c 	sub.w	r3, r3, ip
     9d2:	fa1e f383 	uxtah	r3, lr, r3
     9d6:	3b01      	subs	r3, #1
     9d8:	800b      	strh	r3, [r1, #0]
     9da:	e7d2      	b.n	982 <st7735s_drv::change(unsigned short&, unsigned short&)+0x36>
     9dc:	880c      	ldrh	r4, [r1, #0]
     9de:	f990 3115 	ldrsb.w	r3, [r0, #277]	; 0x115
     9e2:	fa14 f383 	uxtah	r3, r4, r3
     9e6:	800b      	strh	r3, [r1, #0]
     9e8:	e7cb      	b.n	982 <st7735s_drv::change(unsigned short&, unsigned short&)+0x36>

000009ea <st7735s_drv::writeData(unsigned char)>:
     9ea:	b500      	push	{lr}
     9ec:	b083      	sub	sp, #12
     9ee:	f88d 1007 	strb.w	r1, [sp, #7]
     9f2:	f8d0 0104 	ldr.w	r0, [r0, #260]	; 0x104
     9f6:	6803      	ldr	r3, [r0, #0]
     9f8:	685b      	ldr	r3, [r3, #4]
     9fa:	2201      	movs	r2, #1
     9fc:	f10d 0107 	add.w	r1, sp, #7
     a00:	4798      	blx	r3
     a02:	b003      	add	sp, #12
     a04:	f85d fb04 	ldr.w	pc, [sp], #4

00000a08 <st7735s_drv::writeDataBuffer(int)>:
     a08:	b510      	push	{r4, lr}
     a0a:	4603      	mov	r3, r0
     a0c:	f8d0 0104 	ldr.w	r0, [r0, #260]	; 0x104
     a10:	6802      	ldr	r2, [r0, #0]
     a12:	6854      	ldr	r4, [r2, #4]
     a14:	b28a      	uxth	r2, r1
     a16:	1d19      	adds	r1, r3, #4
     a18:	47a0      	blx	r4
     a1a:	bd10      	pop	{r4, pc}

00000a1c <st7735s_drv::writeCommand(unsigned char)>:
     a1c:	b530      	push	{r4, r5, lr}
     a1e:	b085      	sub	sp, #20
     a20:	4604      	mov	r4, r0
     a22:	f88d 1007 	strb.w	r1, [sp, #7]
     a26:	f8d0 310c 	ldr.w	r3, [r0, #268]	; 0x10c
     a2a:	6818      	ldr	r0, [r3, #0]
     a2c:	6802      	ldr	r2, [r0, #0]
     a2e:	6895      	ldr	r5, [r2, #8]
     a30:	2200      	movs	r2, #0
     a32:	8899      	ldrh	r1, [r3, #4]
     a34:	47a8      	blx	r5
     a36:	f8d4 0104 	ldr.w	r0, [r4, #260]	; 0x104
     a3a:	6803      	ldr	r3, [r0, #0]
     a3c:	681d      	ldr	r5, [r3, #0]
     a3e:	2301      	movs	r3, #1
     a40:	f10d 020f 	add.w	r2, sp, #15
     a44:	f10d 0107 	add.w	r1, sp, #7
     a48:	47a8      	blx	r5
     a4a:	f8d4 310c 	ldr.w	r3, [r4, #268]	; 0x10c
     a4e:	6818      	ldr	r0, [r3, #0]
     a50:	6802      	ldr	r2, [r0, #0]
     a52:	6894      	ldr	r4, [r2, #8]
     a54:	2201      	movs	r2, #1
     a56:	8899      	ldrh	r1, [r3, #4]
     a58:	47a0      	blx	r4
     a5a:	b005      	add	sp, #20
     a5c:	bd30      	pop	{r4, r5, pc}

00000a5e <st7735s_drv::setOrientation(st7735s_drv::Orientation)>:
     a5e:	b570      	push	{r4, r5, r6, lr}
     a60:	4604      	mov	r4, r0
     a62:	460d      	mov	r5, r1
     a64:	f880 1114 	strb.w	r1, [r0, #276]	; 0x114
     a68:	f8d0 3110 	ldr.w	r3, [r0, #272]	; 0x110
     a6c:	7a99      	ldrb	r1, [r3, #10]
     a6e:	00c9      	lsls	r1, r1, #3
     a70:	f001 0608 	and.w	r6, r1, #8
     a74:	f8d0 0118 	ldr.w	r0, [r0, #280]	; 0x118
     a78:	b110      	cbz	r0, a80 <st7735s_drv::setOrientation(st7735s_drv::Orientation)+0x22>
     a7a:	6803      	ldr	r3, [r0, #0]
     a7c:	681b      	ldr	r3, [r3, #0]
     a7e:	4798      	blx	r3
     a80:	2136      	movs	r1, #54	; 0x36
     a82:	4620      	mov	r0, r4
     a84:	f7ff ffca 	bl	a1c <st7735s_drv::writeCommand(unsigned char)>
     a88:	2d03      	cmp	r5, #3
     a8a:	d808      	bhi.n	a9e <st7735s_drv::setOrientation(st7735s_drv::Orientation)+0x40>
     a8c:	e8df f005 	tbb	[pc, r5]
     a90:	19130e02 	.word	0x19130e02
     a94:	f046 01c0 	orr.w	r1, r6, #192	; 0xc0
     a98:	4620      	mov	r0, r4
     a9a:	f7ff ffa6 	bl	9ea <st7735s_drv::writeData(unsigned char)>
     a9e:	f8d4 0118 	ldr.w	r0, [r4, #280]	; 0x118
     aa2:	b110      	cbz	r0, aaa <st7735s_drv::setOrientation(st7735s_drv::Orientation)+0x4c>
     aa4:	6803      	ldr	r3, [r0, #0]
     aa6:	685b      	ldr	r3, [r3, #4]
     aa8:	4798      	blx	r3
     aaa:	bd70      	pop	{r4, r5, r6, pc}
     aac:	4631      	mov	r1, r6
     aae:	4620      	mov	r0, r4
     ab0:	f7ff ff9b 	bl	9ea <st7735s_drv::writeData(unsigned char)>
     ab4:	e7f3      	b.n	a9e <st7735s_drv::setOrientation(st7735s_drv::Orientation)+0x40>
     ab6:	f046 01a0 	orr.w	r1, r6, #160	; 0xa0
     aba:	4620      	mov	r0, r4
     abc:	f7ff ff95 	bl	9ea <st7735s_drv::writeData(unsigned char)>
     ac0:	e7ed      	b.n	a9e <st7735s_drv::setOrientation(st7735s_drv::Orientation)+0x40>
     ac2:	f046 0160 	orr.w	r1, r6, #96	; 0x60
     ac6:	4620      	mov	r0, r4
     ac8:	f7ff ff8f 	bl	9ea <st7735s_drv::writeData(unsigned char)>
     acc:	e7e7      	b.n	a9e <st7735s_drv::setOrientation(st7735s_drv::Orientation)+0x40>

00000ace <st7735s_drv::scroll(short)>:
     ace:	b510      	push	{r4, lr}
     ad0:	4604      	mov	r4, r0
     ad2:	f890 3115 	ldrb.w	r3, [r0, #277]	; 0x115
     ad6:	4419      	add	r1, r3
     ad8:	b2cb      	uxtb	r3, r1
     ada:	b249      	sxtb	r1, r1
     adc:	f880 1115 	strb.w	r1, [r0, #277]	; 0x115
     ae0:	2900      	cmp	r1, #0
     ae2:	db08      	blt.n	af6 <st7735s_drv::scroll(short)+0x28>
     ae4:	f8d0 2110 	ldr.w	r2, [r0, #272]	; 0x110
     ae8:	8852      	ldrh	r2, [r2, #2]
     aea:	4291      	cmp	r1, r2
     aec:	db09      	blt.n	b02 <st7735s_drv::scroll(short)+0x34>
     aee:	1a9b      	subs	r3, r3, r2
     af0:	f880 3115 	strb.w	r3, [r0, #277]	; 0x115
     af4:	e005      	b.n	b02 <st7735s_drv::scroll(short)+0x34>
     af6:	f8d0 2110 	ldr.w	r2, [r0, #272]	; 0x110
     afa:	8852      	ldrh	r2, [r2, #2]
     afc:	4413      	add	r3, r2
     afe:	f880 3115 	strb.w	r3, [r0, #277]	; 0x115
     b02:	f8d4 0118 	ldr.w	r0, [r4, #280]	; 0x118
     b06:	b110      	cbz	r0, b0e <st7735s_drv::scroll(short)+0x40>
     b08:	6803      	ldr	r3, [r0, #0]
     b0a:	681b      	ldr	r3, [r3, #0]
     b0c:	4798      	blx	r3
     b0e:	2137      	movs	r1, #55	; 0x37
     b10:	4620      	mov	r0, r4
     b12:	f7ff ff83 	bl	a1c <st7735s_drv::writeCommand(unsigned char)>
     b16:	2100      	movs	r1, #0
     b18:	4620      	mov	r0, r4
     b1a:	f7ff ff66 	bl	9ea <st7735s_drv::writeData(unsigned char)>
     b1e:	f8d4 3110 	ldr.w	r3, [r4, #272]	; 0x110
     b22:	7a59      	ldrb	r1, [r3, #9]
     b24:	f894 3115 	ldrb.w	r3, [r4, #277]	; 0x115
     b28:	4419      	add	r1, r3
     b2a:	b2c9      	uxtb	r1, r1
     b2c:	4620      	mov	r0, r4
     b2e:	f7ff ff5c 	bl	9ea <st7735s_drv::writeData(unsigned char)>
     b32:	f8d4 0118 	ldr.w	r0, [r4, #280]	; 0x118
     b36:	b110      	cbz	r0, b3e <st7735s_drv::scroll(short)+0x70>
     b38:	6803      	ldr	r3, [r0, #0]
     b3a:	685b      	ldr	r3, [r3, #4]
     b3c:	4798      	blx	r3
     b3e:	bd10      	pop	{r4, pc}

00000b40 <st7735s_drv::st7735s_drv(spi_interface&, gpio_pin&, gpio_pin&, st7735s_drv::config&, mutex_interface*)>:
     b40:	b538      	push	{r3, r4, r5, lr}
     b42:	4604      	mov	r4, r0
     b44:	4615      	mov	r5, r2
     b46:	4a43      	ldr	r2, [pc, #268]	; (c54 <st7735s_drv::st7735s_drv(spi_interface&, gpio_pin&, gpio_pin&, st7735s_drv::config&, mutex_interface*)+0x114>)
     b48:	6002      	str	r2, [r0, #0]
     b4a:	4a43      	ldr	r2, [pc, #268]	; (c58 <st7735s_drv::st7735s_drv(spi_interface&, gpio_pin&, gpio_pin&, st7735s_drv::config&, mutex_interface*)+0x118>)
     b4c:	6002      	str	r2, [r0, #0]
     b4e:	f8c0 1104 	str.w	r1, [r0, #260]	; 0x104
     b52:	f8c0 5108 	str.w	r5, [r0, #264]	; 0x108
     b56:	f8c0 310c 	str.w	r3, [r0, #268]	; 0x10c
     b5a:	9b04      	ldr	r3, [sp, #16]
     b5c:	f8c0 3110 	str.w	r3, [r0, #272]	; 0x110
     b60:	9b05      	ldr	r3, [sp, #20]
     b62:	f8c0 3118 	str.w	r3, [r0, #280]	; 0x118
     b66:	6828      	ldr	r0, [r5, #0]
     b68:	6803      	ldr	r3, [r0, #0]
     b6a:	681b      	ldr	r3, [r3, #0]
     b6c:	f44f 7281 	mov.w	r2, #258	; 0x102
     b70:	88a9      	ldrh	r1, [r5, #4]
     b72:	4798      	blx	r3
     b74:	f8d4 310c 	ldr.w	r3, [r4, #268]	; 0x10c
     b78:	6818      	ldr	r0, [r3, #0]
     b7a:	6802      	ldr	r2, [r0, #0]
     b7c:	6815      	ldr	r5, [r2, #0]
     b7e:	f44f 7281 	mov.w	r2, #258	; 0x102
     b82:	8899      	ldrh	r1, [r3, #4]
     b84:	47a8      	blx	r5
     b86:	f8d4 3108 	ldr.w	r3, [r4, #264]	; 0x108
     b8a:	6818      	ldr	r0, [r3, #0]
     b8c:	6802      	ldr	r2, [r0, #0]
     b8e:	6895      	ldr	r5, [r2, #8]
     b90:	2200      	movs	r2, #0
     b92:	8899      	ldrh	r1, [r3, #4]
     b94:	47a8      	blx	r5
     b96:	200a      	movs	r0, #10
     b98:	f002 f886 	bl	2ca8 <task::sleep(unsigned long)>
     b9c:	f8d4 3108 	ldr.w	r3, [r4, #264]	; 0x108
     ba0:	6818      	ldr	r0, [r3, #0]
     ba2:	6802      	ldr	r2, [r0, #0]
     ba4:	6895      	ldr	r5, [r2, #8]
     ba6:	2201      	movs	r2, #1
     ba8:	8899      	ldrh	r1, [r3, #4]
     baa:	47a8      	blx	r5
     bac:	f44f 7096 	mov.w	r0, #300	; 0x12c
     bb0:	f002 f87a 	bl	2ca8 <task::sleep(unsigned long)>
     bb4:	2111      	movs	r1, #17
     bb6:	4620      	mov	r0, r4
     bb8:	f7ff ff30 	bl	a1c <st7735s_drv::writeCommand(unsigned char)>
     bbc:	2096      	movs	r0, #150	; 0x96
     bbe:	f002 f873 	bl	2ca8 <task::sleep(unsigned long)>
     bc2:	2126      	movs	r1, #38	; 0x26
     bc4:	4620      	mov	r0, r4
     bc6:	f7ff ff29 	bl	a1c <st7735s_drv::writeCommand(unsigned char)>
     bca:	2103      	movs	r1, #3
     bcc:	4620      	mov	r0, r4
     bce:	f7ff ff0c 	bl	9ea <st7735s_drv::writeData(unsigned char)>
     bd2:	213a      	movs	r1, #58	; 0x3a
     bd4:	4620      	mov	r0, r4
     bd6:	f7ff ff21 	bl	a1c <st7735s_drv::writeCommand(unsigned char)>
     bda:	2105      	movs	r1, #5
     bdc:	4620      	mov	r0, r4
     bde:	f7ff ff04 	bl	9ea <st7735s_drv::writeData(unsigned char)>
     be2:	2133      	movs	r1, #51	; 0x33
     be4:	4620      	mov	r0, r4
     be6:	f7ff ff19 	bl	a1c <st7735s_drv::writeCommand(unsigned char)>
     bea:	2100      	movs	r1, #0
     bec:	4620      	mov	r0, r4
     bee:	f7ff fefc 	bl	9ea <st7735s_drv::writeData(unsigned char)>
     bf2:	f8d4 3110 	ldr.w	r3, [r4, #272]	; 0x110
     bf6:	7a59      	ldrb	r1, [r3, #9]
     bf8:	4620      	mov	r0, r4
     bfa:	f7ff fef6 	bl	9ea <st7735s_drv::writeData(unsigned char)>
     bfe:	2100      	movs	r1, #0
     c00:	4620      	mov	r0, r4
     c02:	f7ff fef2 	bl	9ea <st7735s_drv::writeData(unsigned char)>
     c06:	f8d4 3110 	ldr.w	r3, [r4, #272]	; 0x110
     c0a:	7899      	ldrb	r1, [r3, #2]
     c0c:	4620      	mov	r0, r4
     c0e:	f7ff feec 	bl	9ea <st7735s_drv::writeData(unsigned char)>
     c12:	2100      	movs	r1, #0
     c14:	4620      	mov	r0, r4
     c16:	f7ff fee8 	bl	9ea <st7735s_drv::writeData(unsigned char)>
     c1a:	f8d4 3110 	ldr.w	r3, [r4, #272]	; 0x110
     c1e:	88d9      	ldrh	r1, [r3, #6]
     c20:	885a      	ldrh	r2, [r3, #2]
     c22:	1a89      	subs	r1, r1, r2
     c24:	b2c9      	uxtb	r1, r1
     c26:	7a5b      	ldrb	r3, [r3, #9]
     c28:	1ac9      	subs	r1, r1, r3
     c2a:	b2c9      	uxtb	r1, r1
     c2c:	4620      	mov	r0, r4
     c2e:	f7ff fedc 	bl	9ea <st7735s_drv::writeData(unsigned char)>
     c32:	2100      	movs	r1, #0
     c34:	4620      	mov	r0, r4
     c36:	f7ff ff12 	bl	a5e <st7735s_drv::setOrientation(st7735s_drv::Orientation)>
     c3a:	2100      	movs	r1, #0
     c3c:	f884 1115 	strb.w	r1, [r4, #277]	; 0x115
     c40:	4620      	mov	r0, r4
     c42:	f7ff ff44 	bl	ace <st7735s_drv::scroll(short)>
     c46:	2129      	movs	r1, #41	; 0x29
     c48:	4620      	mov	r0, r4
     c4a:	f7ff fee7 	bl	a1c <st7735s_drv::writeCommand(unsigned char)>
     c4e:	4620      	mov	r0, r4
     c50:	bd38      	pop	{r3, r4, r5, pc}
     c52:	bf00      	nop
     c54:	0000eb2c 	.word	0x0000eb2c
     c58:	0000eb58 	.word	0x0000eb58

00000c5c <st7735s_drv::setFrame(unsigned short, unsigned short, unsigned short, unsigned short)>:
     c5c:	e92d 43f8 	stmdb	sp!, {r3, r4, r5, r6, r7, r8, r9, lr}
     c60:	4604      	mov	r4, r0
     c62:	460e      	mov	r6, r1
     c64:	4615      	mov	r5, r2
     c66:	461f      	mov	r7, r3
     c68:	f8bd 9020 	ldrh.w	r9, [sp, #32]
     c6c:	f890 3114 	ldrb.w	r3, [r0, #276]	; 0x114
     c70:	2b03      	cmp	r3, #3
     c72:	d81c      	bhi.n	cae <st7735s_drv::setFrame(unsigned short, unsigned short, unsigned short, unsigned short)+0x52>
     c74:	e8df f003 	tbb	[pc, r3]
     c78:	5e4a3c02 	.word	0x5e4a3c02
     c7c:	f8d0 1110 	ldr.w	r1, [r0, #272]	; 0x110
     c80:	888a      	ldrh	r2, [r1, #4]
     c82:	880b      	ldrh	r3, [r1, #0]
     c84:	1ad2      	subs	r2, r2, r3
     c86:	b292      	uxth	r2, r2
     c88:	7a0b      	ldrb	r3, [r1, #8]
     c8a:	1ad2      	subs	r2, r2, r3
     c8c:	b292      	uxth	r2, r2
     c8e:	4416      	add	r6, r2
     c90:	b2b6      	uxth	r6, r6
     c92:	88cb      	ldrh	r3, [r1, #6]
     c94:	8848      	ldrh	r0, [r1, #2]
     c96:	1a1b      	subs	r3, r3, r0
     c98:	b29b      	uxth	r3, r3
     c9a:	7a49      	ldrb	r1, [r1, #9]
     c9c:	1a5b      	subs	r3, r3, r1
     c9e:	b29b      	uxth	r3, r3
     ca0:	441d      	add	r5, r3
     ca2:	b2ad      	uxth	r5, r5
     ca4:	443a      	add	r2, r7
     ca6:	b297      	uxth	r7, r2
     ca8:	444b      	add	r3, r9
     caa:	fa1f f983 	uxth.w	r9, r3
     cae:	212a      	movs	r1, #42	; 0x2a
     cb0:	4620      	mov	r0, r4
     cb2:	f7ff feb3 	bl	a1c <st7735s_drv::writeCommand(unsigned char)>
     cb6:	f04f 0800 	mov.w	r8, #0
     cba:	f884 8004 	strb.w	r8, [r4, #4]
     cbe:	7166      	strb	r6, [r4, #5]
     cc0:	f884 8006 	strb.w	r8, [r4, #6]
     cc4:	71e7      	strb	r7, [r4, #7]
     cc6:	2104      	movs	r1, #4
     cc8:	4620      	mov	r0, r4
     cca:	f7ff fe9d 	bl	a08 <st7735s_drv::writeDataBuffer(int)>
     cce:	212b      	movs	r1, #43	; 0x2b
     cd0:	4620      	mov	r0, r4
     cd2:	f7ff fea3 	bl	a1c <st7735s_drv::writeCommand(unsigned char)>
     cd6:	f884 8004 	strb.w	r8, [r4, #4]
     cda:	7165      	strb	r5, [r4, #5]
     cdc:	f884 8006 	strb.w	r8, [r4, #6]
     ce0:	f884 9007 	strb.w	r9, [r4, #7]
     ce4:	2104      	movs	r1, #4
     ce6:	4620      	mov	r0, r4
     ce8:	f7ff fe8e 	bl	a08 <st7735s_drv::writeDataBuffer(int)>
     cec:	e8bd 83f8 	ldmia.w	sp!, {r3, r4, r5, r6, r7, r8, r9, pc}
     cf0:	f8d0 3110 	ldr.w	r3, [r0, #272]	; 0x110
     cf4:	7a1a      	ldrb	r2, [r3, #8]
     cf6:	4416      	add	r6, r2
     cf8:	b2b6      	uxth	r6, r6
     cfa:	7a5b      	ldrb	r3, [r3, #9]
     cfc:	441d      	add	r5, r3
     cfe:	b2ad      	uxth	r5, r5
     d00:	443a      	add	r2, r7
     d02:	b297      	uxth	r7, r2
     d04:	444b      	add	r3, r9
     d06:	fa1f f983 	uxth.w	r9, r3
     d0a:	e7d0      	b.n	cae <st7735s_drv::setFrame(unsigned short, unsigned short, unsigned short, unsigned short)+0x52>
     d0c:	f8d0 2110 	ldr.w	r2, [r0, #272]	; 0x110
     d10:	88d3      	ldrh	r3, [r2, #6]
     d12:	8851      	ldrh	r1, [r2, #2]
     d14:	1a5b      	subs	r3, r3, r1
     d16:	b29b      	uxth	r3, r3
     d18:	7a51      	ldrb	r1, [r2, #9]
     d1a:	1a5b      	subs	r3, r3, r1
     d1c:	b29b      	uxth	r3, r3
     d1e:	441e      	add	r6, r3
     d20:	b2b6      	uxth	r6, r6
     d22:	7a12      	ldrb	r2, [r2, #8]
     d24:	4415      	add	r5, r2
     d26:	b2ad      	uxth	r5, r5
     d28:	443b      	add	r3, r7
     d2a:	b29f      	uxth	r7, r3
     d2c:	444a      	add	r2, r9
     d2e:	fa1f f982 	uxth.w	r9, r2
     d32:	e7bc      	b.n	cae <st7735s_drv::setFrame(unsigned short, unsigned short, unsigned short, unsigned short)+0x52>
     d34:	f8d0 1110 	ldr.w	r1, [r0, #272]	; 0x110
     d38:	7a4a      	ldrb	r2, [r1, #9]
     d3a:	4416      	add	r6, r2
     d3c:	b2b6      	uxth	r6, r6
     d3e:	888b      	ldrh	r3, [r1, #4]
     d40:	8808      	ldrh	r0, [r1, #0]
     d42:	1a1b      	subs	r3, r3, r0
     d44:	b29b      	uxth	r3, r3
     d46:	7a09      	ldrb	r1, [r1, #8]
     d48:	1a5b      	subs	r3, r3, r1
     d4a:	b29b      	uxth	r3, r3
     d4c:	441d      	add	r5, r3
     d4e:	b2ad      	uxth	r5, r5
     d50:	443a      	add	r2, r7
     d52:	b297      	uxth	r7, r2
     d54:	444b      	add	r3, r9
     d56:	fa1f f983 	uxth.w	r9, r3
     d5a:	e7a8      	b.n	cae <st7735s_drv::setFrame(unsigned short, unsigned short, unsigned short, unsigned short)+0x52>

00000d5c <st7735s_drv::drawPixel(unsigned short, unsigned short, unsigned long)>:
     d5c:	b530      	push	{r4, r5, lr}
     d5e:	b085      	sub	sp, #20
     d60:	4604      	mov	r4, r0
     d62:	f8ad 100e 	strh.w	r1, [sp, #14]
     d66:	f8ad 200c 	strh.w	r2, [sp, #12]
     d6a:	f04f 7280 	mov.w	r2, #16777216	; 0x1000000
     d6e:	4619      	mov	r1, r3
     d70:	f7ff fd9c 	bl	8ac <lcd_interface::convertColor(unsigned long, unsigned long)>
     d74:	4605      	mov	r5, r0
     d76:	aa03      	add	r2, sp, #12
     d78:	f10d 010e 	add.w	r1, sp, #14
     d7c:	4620      	mov	r0, r4
     d7e:	f7ff fde5 	bl	94c <st7735s_drv::change(unsigned short&, unsigned short&)>
     d82:	f8d4 0118 	ldr.w	r0, [r4, #280]	; 0x118
     d86:	b110      	cbz	r0, d8e <st7735s_drv::drawPixel(unsigned short, unsigned short, unsigned long)+0x32>
     d88:	6803      	ldr	r3, [r0, #0]
     d8a:	681b      	ldr	r3, [r3, #0]
     d8c:	4798      	blx	r3
     d8e:	f8bd 100e 	ldrh.w	r1, [sp, #14]
     d92:	f8bd 200c 	ldrh.w	r2, [sp, #12]
     d96:	9200      	str	r2, [sp, #0]
     d98:	460b      	mov	r3, r1
     d9a:	4620      	mov	r0, r4
     d9c:	f7ff ff5e 	bl	c5c <st7735s_drv::setFrame(unsigned short, unsigned short, unsigned short, unsigned short)>
     da0:	212c      	movs	r1, #44	; 0x2c
     da2:	4620      	mov	r0, r4
     da4:	f7ff fe3a 	bl	a1c <st7735s_drv::writeCommand(unsigned char)>
     da8:	0a2b      	lsrs	r3, r5, #8
     daa:	7123      	strb	r3, [r4, #4]
     dac:	7165      	strb	r5, [r4, #5]
     dae:	2102      	movs	r1, #2
     db0:	4620      	mov	r0, r4
     db2:	f7ff fe29 	bl	a08 <st7735s_drv::writeDataBuffer(int)>
     db6:	f8d4 0118 	ldr.w	r0, [r4, #280]	; 0x118
     dba:	b110      	cbz	r0, dc2 <st7735s_drv::drawPixel(unsigned short, unsigned short, unsigned long)+0x66>
     dbc:	6803      	ldr	r3, [r0, #0]
     dbe:	685b      	ldr	r3, [r3, #4]
     dc0:	4798      	blx	r3
     dc2:	b005      	add	sp, #20
     dc4:	bd30      	pop	{r4, r5, pc}

00000dc6 <st7735s_drv::drawHLine(unsigned short, unsigned short, unsigned short, unsigned long)>:
     dc6:	b530      	push	{r4, r5, lr}
     dc8:	b087      	sub	sp, #28
     dca:	4604      	mov	r4, r0
     dcc:	f8ad 100e 	strh.w	r1, [sp, #14]
     dd0:	f8ad 200c 	strh.w	r2, [sp, #12]
     dd4:	f8ad 300a 	strh.w	r3, [sp, #10]
     dd8:	f04f 7280 	mov.w	r2, #16777216	; 0x1000000
     ddc:	990a      	ldr	r1, [sp, #40]	; 0x28
     dde:	f7ff fd65 	bl	8ac <lcd_interface::convertColor(unsigned long, unsigned long)>
     de2:	4605      	mov	r5, r0
     de4:	aa03      	add	r2, sp, #12
     de6:	f10d 010e 	add.w	r1, sp, #14
     dea:	4620      	mov	r0, r4
     dec:	f7ff fdae 	bl	94c <st7735s_drv::change(unsigned short&, unsigned short&)>
     df0:	f10d 0216 	add.w	r2, sp, #22
     df4:	f10d 010a 	add.w	r1, sp, #10
     df8:	4620      	mov	r0, r4
     dfa:	f7ff fda7 	bl	94c <st7735s_drv::change(unsigned short&, unsigned short&)>
     dfe:	f8d4 0118 	ldr.w	r0, [r4, #280]	; 0x118
     e02:	b110      	cbz	r0, e0a <st7735s_drv::drawHLine(unsigned short, unsigned short, unsigned short, unsigned long)+0x44>
     e04:	6803      	ldr	r3, [r0, #0]
     e06:	681b      	ldr	r3, [r3, #0]
     e08:	4798      	blx	r3
     e0a:	f8bd 200c 	ldrh.w	r2, [sp, #12]
     e0e:	9200      	str	r2, [sp, #0]
     e10:	f8bd 300a 	ldrh.w	r3, [sp, #10]
     e14:	f8bd 100e 	ldrh.w	r1, [sp, #14]
     e18:	4620      	mov	r0, r4
     e1a:	f7ff ff1f 	bl	c5c <st7735s_drv::setFrame(unsigned short, unsigned short, unsigned short, unsigned short)>
     e1e:	212c      	movs	r1, #44	; 0x2c
     e20:	4620      	mov	r0, r4
     e22:	f7ff fdfb 	bl	a1c <st7735s_drv::writeCommand(unsigned char)>
     e26:	f8bd 000e 	ldrh.w	r0, [sp, #14]
     e2a:	2100      	movs	r1, #0
     e2c:	e009      	b.n	e42 <st7735s_drv::drawHLine(unsigned short, unsigned short, unsigned short, unsigned long)+0x7c>
     e2e:	0a2a      	lsrs	r2, r5, #8
     e30:	1c4b      	adds	r3, r1, #1
     e32:	eb04 0c01 	add.w	ip, r4, r1
     e36:	f88c 2004 	strb.w	r2, [ip, #4]
     e3a:	4423      	add	r3, r4
     e3c:	3102      	adds	r1, #2
     e3e:	711d      	strb	r5, [r3, #4]
     e40:	3001      	adds	r0, #1
     e42:	f8bd 300a 	ldrh.w	r3, [sp, #10]
     e46:	4283      	cmp	r3, r0
     e48:	daf1      	bge.n	e2e <st7735s_drv::drawHLine(unsigned short, unsigned short, unsigned short, unsigned long)+0x68>
     e4a:	4620      	mov	r0, r4
     e4c:	f7ff fddc 	bl	a08 <st7735s_drv::writeDataBuffer(int)>
     e50:	f8d4 0118 	ldr.w	r0, [r4, #280]	; 0x118
     e54:	b110      	cbz	r0, e5c <st7735s_drv::drawHLine(unsigned short, unsigned short, unsigned short, unsigned long)+0x96>
     e56:	6803      	ldr	r3, [r0, #0]
     e58:	685b      	ldr	r3, [r3, #4]
     e5a:	4798      	blx	r3
     e5c:	b007      	add	sp, #28
     e5e:	bd30      	pop	{r4, r5, pc}

00000e60 <st7735s_drv::drawVLine(unsigned short, unsigned short, unsigned short, unsigned long)>:
     e60:	b530      	push	{r4, r5, lr}
     e62:	b087      	sub	sp, #28
     e64:	4604      	mov	r4, r0
     e66:	f8ad 100e 	strh.w	r1, [sp, #14]
     e6a:	f8ad 200c 	strh.w	r2, [sp, #12]
     e6e:	f8ad 300a 	strh.w	r3, [sp, #10]
     e72:	f04f 7280 	mov.w	r2, #16777216	; 0x1000000
     e76:	990a      	ldr	r1, [sp, #40]	; 0x28
     e78:	f7ff fd18 	bl	8ac <lcd_interface::convertColor(unsigned long, unsigned long)>
     e7c:	4605      	mov	r5, r0
     e7e:	aa03      	add	r2, sp, #12
     e80:	f10d 010e 	add.w	r1, sp, #14
     e84:	4620      	mov	r0, r4
     e86:	f7ff fd61 	bl	94c <st7735s_drv::change(unsigned short&, unsigned short&)>
     e8a:	f10d 020a 	add.w	r2, sp, #10
     e8e:	f10d 0116 	add.w	r1, sp, #22
     e92:	4620      	mov	r0, r4
     e94:	f7ff fd5a 	bl	94c <st7735s_drv::change(unsigned short&, unsigned short&)>
     e98:	f8d4 0118 	ldr.w	r0, [r4, #280]	; 0x118
     e9c:	b110      	cbz	r0, ea4 <st7735s_drv::drawVLine(unsigned short, unsigned short, unsigned short, unsigned long)+0x44>
     e9e:	6803      	ldr	r3, [r0, #0]
     ea0:	681b      	ldr	r3, [r3, #0]
     ea2:	4798      	blx	r3
     ea4:	f8bd 100e 	ldrh.w	r1, [sp, #14]
     ea8:	f8bd 300a 	ldrh.w	r3, [sp, #10]
     eac:	9300      	str	r3, [sp, #0]
     eae:	460b      	mov	r3, r1
     eb0:	f8bd 200c 	ldrh.w	r2, [sp, #12]
     eb4:	4620      	mov	r0, r4
     eb6:	f7ff fed1 	bl	c5c <st7735s_drv::setFrame(unsigned short, unsigned short, unsigned short, unsigned short)>
     eba:	212c      	movs	r1, #44	; 0x2c
     ebc:	4620      	mov	r0, r4
     ebe:	f7ff fdad 	bl	a1c <st7735s_drv::writeCommand(unsigned char)>
     ec2:	f8bd 000c 	ldrh.w	r0, [sp, #12]
     ec6:	2100      	movs	r1, #0
     ec8:	e009      	b.n	ede <st7735s_drv::drawVLine(unsigned short, unsigned short, unsigned short, unsigned long)+0x7e>
     eca:	0a2a      	lsrs	r2, r5, #8
     ecc:	1c4b      	adds	r3, r1, #1
     ece:	eb04 0c01 	add.w	ip, r4, r1
     ed2:	f88c 2004 	strb.w	r2, [ip, #4]
     ed6:	4423      	add	r3, r4
     ed8:	3102      	adds	r1, #2
     eda:	711d      	strb	r5, [r3, #4]
     edc:	3001      	adds	r0, #1
     ede:	f8bd 300a 	ldrh.w	r3, [sp, #10]
     ee2:	4283      	cmp	r3, r0
     ee4:	daf1      	bge.n	eca <st7735s_drv::drawVLine(unsigned short, unsigned short, unsigned short, unsigned long)+0x6a>
     ee6:	4620      	mov	r0, r4
     ee8:	f7ff fd8e 	bl	a08 <st7735s_drv::writeDataBuffer(int)>
     eec:	f8d4 0118 	ldr.w	r0, [r4, #280]	; 0x118
     ef0:	b110      	cbz	r0, ef8 <st7735s_drv::drawVLine(unsigned short, unsigned short, unsigned short, unsigned long)+0x98>
     ef2:	6803      	ldr	r3, [r0, #0]
     ef4:	685b      	ldr	r3, [r3, #4]
     ef6:	4798      	blx	r3
     ef8:	b007      	add	sp, #28
     efa:	bd30      	pop	{r4, r5, pc}

00000efc <st7735s_drv::drawArea(unsigned short, unsigned short, unsigned short, unsigned short, pixel_stream&)>:
     efc:	e92d 43f0 	stmdb	sp!, {r4, r5, r6, r7, r8, r9, lr}
     f00:	b085      	sub	sp, #20
     f02:	4605      	mov	r5, r0
     f04:	9f0d      	ldr	r7, [sp, #52]	; 0x34
     f06:	f8ad 100e 	strh.w	r1, [sp, #14]
     f0a:	f8ad 200c 	strh.w	r2, [sp, #12]
     f0e:	f8ad 300a 	strh.w	r3, [sp, #10]
     f12:	683b      	ldr	r3, [r7, #0]
     f14:	681b      	ldr	r3, [r3, #0]
     f16:	4638      	mov	r0, r7
     f18:	4798      	blx	r3
     f1a:	4681      	mov	r9, r0
     f1c:	683b      	ldr	r3, [r7, #0]
     f1e:	689b      	ldr	r3, [r3, #8]
     f20:	4638      	mov	r0, r7
     f22:	4798      	blx	r3
     f24:	aa03      	add	r2, sp, #12
     f26:	f10d 010e 	add.w	r1, sp, #14
     f2a:	4628      	mov	r0, r5
     f2c:	f7ff fd0e 	bl	94c <st7735s_drv::change(unsigned short&, unsigned short&)>
     f30:	aa0c      	add	r2, sp, #48	; 0x30
     f32:	f10d 010a 	add.w	r1, sp, #10
     f36:	4628      	mov	r0, r5
     f38:	f7ff fd08 	bl	94c <st7735s_drv::change(unsigned short&, unsigned short&)>
     f3c:	f8d5 0118 	ldr.w	r0, [r5, #280]	; 0x118
     f40:	b110      	cbz	r0, f48 <st7735s_drv::drawArea(unsigned short, unsigned short, unsigned short, unsigned short, pixel_stream&)+0x4c>
     f42:	6803      	ldr	r3, [r0, #0]
     f44:	681b      	ldr	r3, [r3, #0]
     f46:	4798      	blx	r3
     f48:	f8bd 3030 	ldrh.w	r3, [sp, #48]	; 0x30
     f4c:	9300      	str	r3, [sp, #0]
     f4e:	f8bd 300a 	ldrh.w	r3, [sp, #10]
     f52:	f8bd 200c 	ldrh.w	r2, [sp, #12]
     f56:	f8bd 100e 	ldrh.w	r1, [sp, #14]
     f5a:	4628      	mov	r0, r5
     f5c:	f7ff fe7e 	bl	c5c <st7735s_drv::setFrame(unsigned short, unsigned short, unsigned short, unsigned short)>
     f60:	f8bd 800a 	ldrh.w	r8, [sp, #10]
     f64:	f8bd 300e 	ldrh.w	r3, [sp, #14]
     f68:	eba8 0803 	sub.w	r8, r8, r3
     f6c:	f108 0801 	add.w	r8, r8, #1
     f70:	f8bd 3030 	ldrh.w	r3, [sp, #48]	; 0x30
     f74:	f8bd 200c 	ldrh.w	r2, [sp, #12]
     f78:	1a9b      	subs	r3, r3, r2
     f7a:	3301      	adds	r3, #1
     f7c:	fb18 f803 	smulbb	r8, r8, r3
     f80:	fa0f f888 	sxth.w	r8, r8
     f84:	212c      	movs	r1, #44	; 0x2c
     f86:	4628      	mov	r0, r5
     f88:	f7ff fd48 	bl	a1c <st7735s_drv::writeCommand(unsigned char)>
     f8c:	2600      	movs	r6, #0
     f8e:	4634      	mov	r4, r6
     f90:	e00a      	b.n	fa8 <st7735s_drv::drawArea(unsigned short, unsigned short, unsigned short, unsigned short, pixel_stream&)+0xac>
     f92:	0a08      	lsrs	r0, r1, #8
     f94:	1c63      	adds	r3, r4, #1
     f96:	192a      	adds	r2, r5, r4
     f98:	7110      	strb	r0, [r2, #4]
     f9a:	3402      	adds	r4, #2
     f9c:	442b      	add	r3, r5
     f9e:	7119      	strb	r1, [r3, #4]
     fa0:	f5b4 7f80 	cmp.w	r4, #256	; 0x100
     fa4:	d011      	beq.n	fca <st7735s_drv::drawArea(unsigned short, unsigned short, unsigned short, unsigned short, pixel_stream&)+0xce>
     fa6:	3601      	adds	r6, #1
     fa8:	45b0      	cmp	r8, r6
     faa:	dd14      	ble.n	fd6 <st7735s_drv::drawArea(unsigned short, unsigned short, unsigned short, unsigned short, pixel_stream&)+0xda>
     fac:	683b      	ldr	r3, [r7, #0]
     fae:	685b      	ldr	r3, [r3, #4]
     fb0:	4638      	mov	r0, r7
     fb2:	4798      	blx	r3
     fb4:	4601      	mov	r1, r0
     fb6:	f1b9 7f80 	cmp.w	r9, #16777216	; 0x1000000
     fba:	d0ea      	beq.n	f92 <st7735s_drv::drawArea(unsigned short, unsigned short, unsigned short, unsigned short, pixel_stream&)+0x96>
     fbc:	f04f 7280 	mov.w	r2, #16777216	; 0x1000000
     fc0:	4628      	mov	r0, r5
     fc2:	f7ff fc73 	bl	8ac <lcd_interface::convertColor(unsigned long, unsigned long)>
     fc6:	4601      	mov	r1, r0
     fc8:	e7e3      	b.n	f92 <st7735s_drv::drawArea(unsigned short, unsigned short, unsigned short, unsigned short, pixel_stream&)+0x96>
     fca:	4621      	mov	r1, r4
     fcc:	4628      	mov	r0, r5
     fce:	f7ff fd1b 	bl	a08 <st7735s_drv::writeDataBuffer(int)>
     fd2:	2400      	movs	r4, #0
     fd4:	e7e7      	b.n	fa6 <st7735s_drv::drawArea(unsigned short, unsigned short, unsigned short, unsigned short, pixel_stream&)+0xaa>
     fd6:	b944      	cbnz	r4, fea <st7735s_drv::drawArea(unsigned short, unsigned short, unsigned short, unsigned short, pixel_stream&)+0xee>
     fd8:	f8d5 0118 	ldr.w	r0, [r5, #280]	; 0x118
     fdc:	b110      	cbz	r0, fe4 <st7735s_drv::drawArea(unsigned short, unsigned short, unsigned short, unsigned short, pixel_stream&)+0xe8>
     fde:	6803      	ldr	r3, [r0, #0]
     fe0:	685b      	ldr	r3, [r3, #4]
     fe2:	4798      	blx	r3
     fe4:	b005      	add	sp, #20
     fe6:	e8bd 83f0 	ldmia.w	sp!, {r4, r5, r6, r7, r8, r9, pc}
     fea:	4621      	mov	r1, r4
     fec:	4628      	mov	r0, r5
     fee:	f7ff fd0b 	bl	a08 <st7735s_drv::writeDataBuffer(int)>
     ff2:	e7f1      	b.n	fd8 <st7735s_drv::drawArea(unsigned short, unsigned short, unsigned short, unsigned short, pixel_stream&)+0xdc>

00000ff4 <st7735s_drv::clearScreen(unsigned long)>:
     ff4:	e92d 41f0 	stmdb	sp!, {r4, r5, r6, r7, r8, lr}
     ff8:	b082      	sub	sp, #8
     ffa:	4604      	mov	r4, r0
     ffc:	f04f 7280 	mov.w	r2, #16777216	; 0x1000000
    1000:	f7ff fc54 	bl	8ac <lcd_interface::convertColor(unsigned long, unsigned long)>
    1004:	4606      	mov	r6, r0
    1006:	f994 1115 	ldrsb.w	r1, [r4, #277]	; 0x115
    100a:	b289      	uxth	r1, r1
    100c:	4249      	negs	r1, r1
    100e:	b209      	sxth	r1, r1
    1010:	4620      	mov	r0, r4
    1012:	f7ff fd5c 	bl	ace <st7735s_drv::scroll(short)>
    1016:	f8d4 0118 	ldr.w	r0, [r4, #280]	; 0x118
    101a:	b110      	cbz	r0, 1022 <st7735s_drv::clearScreen(unsigned long)+0x2e>
    101c:	6803      	ldr	r3, [r0, #0]
    101e:	681b      	ldr	r3, [r3, #0]
    1020:	4798      	blx	r3
    1022:	f8d4 2110 	ldr.w	r2, [r4, #272]	; 0x110
    1026:	8813      	ldrh	r3, [r2, #0]
    1028:	8852      	ldrh	r2, [r2, #2]
    102a:	3b01      	subs	r3, #1
    102c:	3a01      	subs	r2, #1
    102e:	b292      	uxth	r2, r2
    1030:	9200      	str	r2, [sp, #0]
    1032:	b29b      	uxth	r3, r3
    1034:	2200      	movs	r2, #0
    1036:	4611      	mov	r1, r2
    1038:	4620      	mov	r0, r4
    103a:	f7ff fe0f 	bl	c5c <st7735s_drv::setFrame(unsigned short, unsigned short, unsigned short, unsigned short)>
    103e:	f8d4 3110 	ldr.w	r3, [r4, #272]	; 0x110
    1042:	881f      	ldrh	r7, [r3, #0]
    1044:	885b      	ldrh	r3, [r3, #2]
    1046:	fb17 f703 	smulbb	r7, r7, r3
    104a:	b23f      	sxth	r7, r7
    104c:	212c      	movs	r1, #44	; 0x2c
    104e:	4620      	mov	r0, r4
    1050:	f7ff fce4 	bl	a1c <st7735s_drv::writeCommand(unsigned char)>
    1054:	f3c6 2807 	ubfx	r8, r6, #8, #8
    1058:	b2f6      	uxtb	r6, r6
    105a:	2500      	movs	r5, #0
    105c:	4629      	mov	r1, r5
    105e:	e000      	b.n	1062 <st7735s_drv::clearScreen(unsigned long)+0x6e>
    1060:	3501      	adds	r5, #1
    1062:	42af      	cmp	r7, r5
    1064:	db0e      	blt.n	1084 <st7735s_drv::clearScreen(unsigned long)+0x90>
    1066:	1c4b      	adds	r3, r1, #1
    1068:	1862      	adds	r2, r4, r1
    106a:	f882 8004 	strb.w	r8, [r2, #4]
    106e:	3102      	adds	r1, #2
    1070:	4423      	add	r3, r4
    1072:	711e      	strb	r6, [r3, #4]
    1074:	f5b1 7f80 	cmp.w	r1, #256	; 0x100
    1078:	d1f2      	bne.n	1060 <st7735s_drv::clearScreen(unsigned long)+0x6c>
    107a:	4620      	mov	r0, r4
    107c:	f7ff fcc4 	bl	a08 <st7735s_drv::writeDataBuffer(int)>
    1080:	2100      	movs	r1, #0
    1082:	e7ed      	b.n	1060 <st7735s_drv::clearScreen(unsigned long)+0x6c>
    1084:	b941      	cbnz	r1, 1098 <st7735s_drv::clearScreen(unsigned long)+0xa4>
    1086:	f8d4 0118 	ldr.w	r0, [r4, #280]	; 0x118
    108a:	b110      	cbz	r0, 1092 <st7735s_drv::clearScreen(unsigned long)+0x9e>
    108c:	6803      	ldr	r3, [r0, #0]
    108e:	685b      	ldr	r3, [r3, #4]
    1090:	4798      	blx	r3
    1092:	b002      	add	sp, #8
    1094:	e8bd 81f0 	ldmia.w	sp!, {r4, r5, r6, r7, r8, pc}
    1098:	4620      	mov	r0, r4
    109a:	f7ff fcb5 	bl	a08 <st7735s_drv::writeDataBuffer(int)>
    109e:	e7f2      	b.n	1086 <st7735s_drv::clearScreen(unsigned long)+0x92>

000010a0 <_GLOBAL__sub_I__ZN11st7735s_drv20Crystalfontz_128x128E>:
    10a0:	b508      	push	{r3, lr}
    10a2:	f64f 71ff 	movw	r1, #65535	; 0xffff
    10a6:	2001      	movs	r0, #1
    10a8:	f7ff fbd2 	bl	850 <__static_initialization_and_destruction_0(int, int)>
    10ac:	bd08      	pop	{r3, pc}

000010ae <yahal_assert_func()>:
    10ae:	e7fe      	b.n	10ae <yahal_assert_func()>

000010b0 <adc14_msp432::getMode(unsigned char)>:
    10b0:	2917      	cmp	r1, #23
    10b2:	d804      	bhi.n	10be <adc14_msp432::getMode(unsigned char)+0xe>
    10b4:	3134      	adds	r1, #52	; 0x34
    10b6:	eb00 0041 	add.w	r0, r0, r1, lsl #1
    10ba:	8880      	ldrh	r0, [r0, #4]
    10bc:	4770      	bx	lr
    10be:	b508      	push	{r3, lr}
    10c0:	4b03      	ldr	r3, [pc, #12]	; (10d0 <adc14_msp432::getMode(unsigned char)+0x20>)
    10c2:	4a04      	ldr	r2, [pc, #16]	; (10d4 <adc14_msp432::getMode(unsigned char)+0x24>)
    10c4:	601a      	str	r2, [r3, #0]
    10c6:	4b04      	ldr	r3, [pc, #16]	; (10d8 <adc14_msp432::getMode(unsigned char)+0x28>)
    10c8:	2240      	movs	r2, #64	; 0x40
    10ca:	601a      	str	r2, [r3, #0]
    10cc:	f7ff ffef 	bl	10ae <yahal_assert_func()>
    10d0:	200000b4 	.word	0x200000b4
    10d4:	0000eb98 	.word	0x0000eb98
    10d8:	200000d0 	.word	0x200000d0

000010dc <adc14_msp432::adcReadVoltage(unsigned char)>:
    10dc:	b570      	push	{r4, r5, r6, lr}
    10de:	4604      	mov	r4, r0
    10e0:	460d      	mov	r5, r1
    10e2:	6803      	ldr	r3, [r0, #0]
    10e4:	691e      	ldr	r6, [r3, #16]
    10e6:	689b      	ldr	r3, [r3, #8]
    10e8:	4798      	blx	r3
    10ea:	4602      	mov	r2, r0
    10ec:	4629      	mov	r1, r5
    10ee:	4620      	mov	r0, r4
    10f0:	47b0      	blx	r6
    10f2:	bd70      	pop	{r4, r5, r6, pc}

000010f4 <adc14_msp432::rawToVoltage(unsigned char, unsigned short)>:
    10f4:	b508      	push	{r3, lr}
    10f6:	ee07 2a90 	vmov	s15, r2
    10fa:	eef8 7a67 	vcvt.f32.u32	s15, s15
    10fe:	ed9f 7a16 	vldr	s14, [pc, #88]	; 1158 <adc14_msp432::rawToVoltage(unsigned char, unsigned short)+0x64>
    1102:	ee67 7a87 	vmul.f32	s15, s15, s14
    1106:	3134      	adds	r1, #52	; 0x34
    1108:	eb00 0041 	add.w	r0, r0, r1, lsl #1
    110c:	8883      	ldrh	r3, [r0, #4]
    110e:	3b01      	subs	r3, #1
    1110:	2b07      	cmp	r3, #7
    1112:	d819      	bhi.n	1148 <adc14_msp432::rawToVoltage(unsigned char, unsigned short)+0x54>
    1114:	e8df f003 	tbb	[pc, r3]
    1118:	0e180904 	.word	0x0e180904
    111c:	13181818 	.word	0x13181818
    1120:	ed9f 7a0e 	vldr	s14, [pc, #56]	; 115c <adc14_msp432::rawToVoltage(unsigned char, unsigned short)+0x68>
    1124:	ee87 0a87 	vdiv.f32	s0, s15, s14
    1128:	bd08      	pop	{r3, pc}
    112a:	ed9f 7a0d 	vldr	s14, [pc, #52]	; 1160 <adc14_msp432::rawToVoltage(unsigned char, unsigned short)+0x6c>
    112e:	ee87 0a87 	vdiv.f32	s0, s15, s14
    1132:	e7f9      	b.n	1128 <adc14_msp432::rawToVoltage(unsigned char, unsigned short)+0x34>
    1134:	ed9f 7a0b 	vldr	s14, [pc, #44]	; 1164 <adc14_msp432::rawToVoltage(unsigned char, unsigned short)+0x70>
    1138:	ee87 0a87 	vdiv.f32	s0, s15, s14
    113c:	e7f4      	b.n	1128 <adc14_msp432::rawToVoltage(unsigned char, unsigned short)+0x34>
    113e:	ed9f 7a0a 	vldr	s14, [pc, #40]	; 1168 <adc14_msp432::rawToVoltage(unsigned char, unsigned short)+0x74>
    1142:	ee87 0a87 	vdiv.f32	s0, s15, s14
    1146:	e7ef      	b.n	1128 <adc14_msp432::rawToVoltage(unsigned char, unsigned short)+0x34>
    1148:	4b08      	ldr	r3, [pc, #32]	; (116c <adc14_msp432::rawToVoltage(unsigned char, unsigned short)+0x78>)
    114a:	4a09      	ldr	r2, [pc, #36]	; (1170 <adc14_msp432::rawToVoltage(unsigned char, unsigned short)+0x7c>)
    114c:	601a      	str	r2, [r3, #0]
    114e:	4b09      	ldr	r3, [pc, #36]	; (1174 <adc14_msp432::rawToVoltage(unsigned char, unsigned short)+0x80>)
    1150:	2264      	movs	r2, #100	; 0x64
    1152:	601a      	str	r2, [r3, #0]
    1154:	f7ff ffab 	bl	10ae <yahal_assert_func()>
    1158:	40533333 	.word	0x40533333
    115c:	437f0000 	.word	0x437f0000
    1160:	447fc000 	.word	0x447fc000
    1164:	457ff000 	.word	0x457ff000
    1168:	467ffc00 	.word	0x467ffc00
    116c:	200000b4 	.word	0x200000b4
    1170:	0000eb98 	.word	0x0000eb98
    1174:	200000d0 	.word	0x200000d0

00001178 <adc14_msp432::~adc14_msp432()>:
    1178:	4a02      	ldr	r2, [pc, #8]	; (1184 <adc14_msp432::~adc14_msp432()+0xc>)
    117a:	6002      	str	r2, [r0, #0]
    117c:	4a02      	ldr	r2, [pc, #8]	; (1188 <adc14_msp432::~adc14_msp432()+0x10>)
    117e:	6002      	str	r2, [r0, #0]
    1180:	4770      	bx	lr
    1182:	bf00      	nop
    1184:	0000ec18 	.word	0x0000ec18
    1188:	0000ebf4 	.word	0x0000ebf4

0000118c <adc14_msp432::adcMode(unsigned char, unsigned short)>:
    118c:	b508      	push	{r3, lr}
    118e:	2917      	cmp	r1, #23
    1190:	d80a      	bhi.n	11a8 <adc14_msp432::adcMode(unsigned char, unsigned short)+0x1c>
    1192:	f101 0334 	add.w	r3, r1, #52	; 0x34
    1196:	eb00 0043 	add.w	r0, r0, r3, lsl #1
    119a:	8082      	strh	r2, [r0, #4]
    119c:	290d      	cmp	r1, #13
    119e:	d90b      	bls.n	11b8 <adc14_msp432::adcMode(unsigned char, unsigned short)+0x2c>
    11a0:	290f      	cmp	r1, #15
    11a2:	d816      	bhi.n	11d2 <adc14_msp432::adcMode(unsigned char, unsigned short)+0x46>
    11a4:	233f      	movs	r3, #63	; 0x3f
    11a6:	e008      	b.n	11ba <adc14_msp432::adcMode(unsigned char, unsigned short)+0x2e>
    11a8:	4b0b      	ldr	r3, [pc, #44]	; (11d8 <adc14_msp432::adcMode(unsigned char, unsigned short)+0x4c>)
    11aa:	4a0c      	ldr	r2, [pc, #48]	; (11dc <adc14_msp432::adcMode(unsigned char, unsigned short)+0x50>)
    11ac:	601a      	str	r2, [r3, #0]
    11ae:	4b0c      	ldr	r3, [pc, #48]	; (11e0 <adc14_msp432::adcMode(unsigned char, unsigned short)+0x54>)
    11b0:	222e      	movs	r2, #46	; 0x2e
    11b2:	601a      	str	r2, [r3, #0]
    11b4:	f7ff ff7b 	bl	10ae <yahal_assert_func()>
    11b8:	232d      	movs	r3, #45	; 0x2d
    11ba:	1a5b      	subs	r3, r3, r1
    11bc:	f3c3 01c7 	ubfx	r1, r3, #3, #8
    11c0:	f003 0307 	and.w	r3, r3, #7
    11c4:	2203      	movs	r2, #3
    11c6:	ea43 2101 	orr.w	r1, r3, r1, lsl #8
    11ca:	4806      	ldr	r0, [pc, #24]	; (11e4 <adc14_msp432::adcMode(unsigned char, unsigned short)+0x58>)
    11cc:	f000 fb1e 	bl	180c <gpio_msp432::setSEL(unsigned short, unsigned char)>
    11d0:	bd08      	pop	{r3, pc}
    11d2:	2359      	movs	r3, #89	; 0x59
    11d4:	e7f1      	b.n	11ba <adc14_msp432::adcMode(unsigned char, unsigned short)+0x2e>
    11d6:	bf00      	nop
    11d8:	200000b4 	.word	0x200000b4
    11dc:	0000eb98 	.word	0x0000eb98
    11e0:	200000d0 	.word	0x200000d0
    11e4:	2000016c 	.word	0x2000016c

000011e8 <adc14_msp432::~adc14_msp432()>:
    11e8:	b510      	push	{r4, lr}
    11ea:	4604      	mov	r4, r0
    11ec:	4b04      	ldr	r3, [pc, #16]	; (1200 <adc14_msp432::~adc14_msp432()+0x18>)
    11ee:	6003      	str	r3, [r0, #0]
    11f0:	4b04      	ldr	r3, [pc, #16]	; (1204 <adc14_msp432::~adc14_msp432()+0x1c>)
    11f2:	6003      	str	r3, [r0, #0]
    11f4:	21a0      	movs	r1, #160	; 0xa0
    11f6:	f003 fcc2 	bl	4b7e <operator delete(void*, unsigned int)>
    11fa:	4620      	mov	r0, r4
    11fc:	bd10      	pop	{r4, pc}
    11fe:	bf00      	nop
    1200:	0000ec18 	.word	0x0000ec18
    1204:	0000ebf4 	.word	0x0000ebf4

00001208 <adc14_msp432::adcStopScan()>:
    1208:	4b05      	ldr	r3, [pc, #20]	; (1220 <adc14_msp432::adcStopScan()+0x18>)
    120a:	791b      	ldrb	r3, [r3, #4]
    120c:	b13b      	cbz	r3, 121e <adc14_msp432::adcStopScan()+0x16>
    120e:	2300      	movs	r3, #0
    1210:	4a03      	ldr	r2, [pc, #12]	; (1220 <adc14_msp432::adcStopScan()+0x18>)
    1212:	7113      	strb	r3, [r2, #4]
    1214:	e000      	b.n	1218 <adc14_msp432::adcStopScan()+0x10>
    1216:	3301      	adds	r3, #1
    1218:	f5b3 7f7a 	cmp.w	r3, #1000	; 0x3e8
    121c:	dbfb      	blt.n	1216 <adc14_msp432::adcStopScan()+0xe>
    121e:	4770      	bx	lr
    1220:	42240000 	.word	0x42240000

00001224 <adc14_msp432::adc14_msp432()>:
    1224:	b510      	push	{r4, lr}
    1226:	4604      	mov	r4, r0
    1228:	4b12      	ldr	r3, [pc, #72]	; (1274 <adc14_msp432::adc14_msp432()+0x50>)
    122a:	6003      	str	r3, [r0, #0]
    122c:	4b12      	ldr	r3, [pc, #72]	; (1278 <adc14_msp432::adc14_msp432()+0x54>)
    122e:	6003      	str	r3, [r0, #0]
    1230:	f7ff ffea 	bl	1208 <adc14_msp432::adcStopScan()>
    1234:	2300      	movs	r3, #0
    1236:	e009      	b.n	124c <adc14_msp432::adc14_msp432()+0x28>
    1238:	4a10      	ldr	r2, [pc, #64]	; (127c <adc14_msp432::adc14_msp432()+0x58>)
    123a:	1d99      	adds	r1, r3, #6
    123c:	f842 3021 	str.w	r3, [r2, r1, lsl #2]
    1240:	f852 0021 	ldr.w	r0, [r2, r1, lsl #2]
    1244:	f842 0021 	str.w	r0, [r2, r1, lsl #2]
    1248:	3301      	adds	r3, #1
    124a:	b2db      	uxtb	r3, r3
    124c:	2b17      	cmp	r3, #23
    124e:	d9f3      	bls.n	1238 <adc14_msp432::adc14_msp432()+0x14>
    1250:	2200      	movs	r2, #0
    1252:	f8a4 209c 	strh.w	r2, [r4, #156]	; 0x9c
    1256:	4b09      	ldr	r3, [pc, #36]	; (127c <adc14_msp432::adc14_msp432()+0x58>)
    1258:	4909      	ldr	r1, [pc, #36]	; (1280 <adc14_msp432::adc14_msp432()+0x5c>)
    125a:	6019      	str	r1, [r3, #0]
    125c:	6859      	ldr	r1, [r3, #4]
    125e:	6059      	str	r1, [r3, #4]
    1260:	f8c3 213c 	str.w	r2, [r3, #316]	; 0x13c
    1264:	f8c3 2140 	str.w	r2, [r3, #320]	; 0x140
    1268:	4b06      	ldr	r3, [pc, #24]	; (1284 <adc14_msp432::adc14_msp432()+0x60>)
    126a:	f04f 7280 	mov.w	r2, #16777216	; 0x1000000
    126e:	601a      	str	r2, [r3, #0]
    1270:	4620      	mov	r0, r4
    1272:	bd10      	pop	{r4, pc}
    1274:	0000ebf4 	.word	0x0000ebf4
    1278:	0000ec18 	.word	0x0000ec18
    127c:	40012000 	.word	0x40012000
    1280:	44204410 	.word	0x44204410
    1284:	e000e100 	.word	0xe000e100

00001288 <__static_initialization_and_destruction_0(int, int)>:
    1288:	2801      	cmp	r0, #1
    128a:	d000      	beq.n	128e <__static_initialization_and_destruction_0(int, int)+0x6>
    128c:	4770      	bx	lr
    128e:	f64f 73ff 	movw	r3, #65535	; 0xffff
    1292:	4299      	cmp	r1, r3
    1294:	d1fa      	bne.n	128c <__static_initialization_and_destruction_0(int, int)+0x4>
    1296:	b510      	push	{r4, lr}
    1298:	4c04      	ldr	r4, [pc, #16]	; (12ac <__static_initialization_and_destruction_0(int, int)+0x24>)
    129a:	4620      	mov	r0, r4
    129c:	f7ff ffc2 	bl	1224 <adc14_msp432::adc14_msp432()>
    12a0:	4a03      	ldr	r2, [pc, #12]	; (12b0 <__static_initialization_and_destruction_0(int, int)+0x28>)
    12a2:	4904      	ldr	r1, [pc, #16]	; (12b4 <__static_initialization_and_destruction_0(int, int)+0x2c>)
    12a4:	4620      	mov	r0, r4
    12a6:	f003 fc65 	bl	4b74 <__aeabi_atexit>
    12aa:	bd10      	pop	{r4, pc}
    12ac:	200005d8 	.word	0x200005d8
    12b0:	20000000 	.word	0x20000000
    12b4:	00001179 	.word	0x00001179

000012b8 <adc14_msp432::set_resolution(unsigned short)>:
    12b8:	b538      	push	{r3, r4, r5, lr}
    12ba:	4605      	mov	r5, r0
    12bc:	460c      	mov	r4, r1
    12be:	f7ff ffa3 	bl	1208 <adc14_msp432::adcStopScan()>
    12c2:	4a1c      	ldr	r2, [pc, #112]	; (1334 <adc14_msp432::set_resolution(unsigned short)+0x7c>)
    12c4:	6853      	ldr	r3, [r2, #4]
    12c6:	f023 0330 	bic.w	r3, r3, #48	; 0x30
    12ca:	6053      	str	r3, [r2, #4]
    12cc:	1e61      	subs	r1, r4, #1
    12ce:	2907      	cmp	r1, #7
    12d0:	d827      	bhi.n	1322 <adc14_msp432::set_resolution(unsigned short)+0x6a>
    12d2:	e8df f001 	tbb	[pc, r1]
    12d6:	0b04      	.short	0x0b04
    12d8:	26261426 	.word	0x26261426
    12dc:	1d26      	.short	0x1d26
    12de:	4b15      	ldr	r3, [pc, #84]	; (1334 <adc14_msp432::set_resolution(unsigned short)+0x7c>)
    12e0:	685a      	ldr	r2, [r3, #4]
    12e2:	605a      	str	r2, [r3, #4]
    12e4:	2301      	movs	r3, #1
    12e6:	f8a5 309c 	strh.w	r3, [r5, #156]	; 0x9c
    12ea:	bd38      	pop	{r3, r4, r5, pc}
    12ec:	4a11      	ldr	r2, [pc, #68]	; (1334 <adc14_msp432::set_resolution(unsigned short)+0x7c>)
    12ee:	6853      	ldr	r3, [r2, #4]
    12f0:	f043 0310 	orr.w	r3, r3, #16
    12f4:	6053      	str	r3, [r2, #4]
    12f6:	2302      	movs	r3, #2
    12f8:	f8a5 309c 	strh.w	r3, [r5, #156]	; 0x9c
    12fc:	e7f5      	b.n	12ea <adc14_msp432::set_resolution(unsigned short)+0x32>
    12fe:	4a0d      	ldr	r2, [pc, #52]	; (1334 <adc14_msp432::set_resolution(unsigned short)+0x7c>)
    1300:	6853      	ldr	r3, [r2, #4]
    1302:	f043 0320 	orr.w	r3, r3, #32
    1306:	6053      	str	r3, [r2, #4]
    1308:	2304      	movs	r3, #4
    130a:	f8a5 309c 	strh.w	r3, [r5, #156]	; 0x9c
    130e:	e7ec      	b.n	12ea <adc14_msp432::set_resolution(unsigned short)+0x32>
    1310:	4a08      	ldr	r2, [pc, #32]	; (1334 <adc14_msp432::set_resolution(unsigned short)+0x7c>)
    1312:	6853      	ldr	r3, [r2, #4]
    1314:	f043 0330 	orr.w	r3, r3, #48	; 0x30
    1318:	6053      	str	r3, [r2, #4]
    131a:	2308      	movs	r3, #8
    131c:	f8a5 309c 	strh.w	r3, [r5, #156]	; 0x9c
    1320:	e7e3      	b.n	12ea <adc14_msp432::set_resolution(unsigned short)+0x32>
    1322:	4b05      	ldr	r3, [pc, #20]	; (1338 <adc14_msp432::set_resolution(unsigned short)+0x80>)
    1324:	4a05      	ldr	r2, [pc, #20]	; (133c <adc14_msp432::set_resolution(unsigned short)+0x84>)
    1326:	601a      	str	r2, [r3, #0]
    1328:	4b05      	ldr	r3, [pc, #20]	; (1340 <adc14_msp432::set_resolution(unsigned short)+0x88>)
    132a:	22c5      	movs	r2, #197	; 0xc5
    132c:	601a      	str	r2, [r3, #0]
    132e:	f7ff febe 	bl	10ae <yahal_assert_func()>
    1332:	bf00      	nop
    1334:	40012000 	.word	0x40012000
    1338:	200000b4 	.word	0x200000b4
    133c:	0000eb98 	.word	0x0000eb98
    1340:	200000d0 	.word	0x200000d0

00001344 <adc14_msp432::adcReadRaw(unsigned char)>:
    1344:	b510      	push	{r4, lr}
    1346:	2917      	cmp	r1, #23
    1348:	d82c      	bhi.n	13a4 <adc14_msp432::adcReadRaw(unsigned char)+0x60>
    134a:	460c      	mov	r4, r1
    134c:	f8b0 209c 	ldrh.w	r2, [r0, #156]	; 0x9c
    1350:	f101 0334 	add.w	r3, r1, #52	; 0x34
    1354:	eb00 0343 	add.w	r3, r0, r3, lsl #1
    1358:	8899      	ldrh	r1, [r3, #4]
    135a:	428a      	cmp	r2, r1
    135c:	d02a      	beq.n	13b4 <adc14_msp432::adcReadRaw(unsigned char)+0x70>
    135e:	f7ff ffab 	bl	12b8 <adc14_msp432::set_resolution(unsigned short)>
    1362:	4b16      	ldr	r3, [pc, #88]	; (13bc <adc14_msp432::adcReadRaw(unsigned char)+0x78>)
    1364:	685a      	ldr	r2, [r3, #4]
    1366:	f422 12f8 	bic.w	r2, r2, #2031616	; 0x1f0000
    136a:	605a      	str	r2, [r3, #4]
    136c:	685a      	ldr	r2, [r3, #4]
    136e:	ea42 4204 	orr.w	r2, r2, r4, lsl #16
    1372:	605a      	str	r2, [r3, #4]
    1374:	681a      	ldr	r2, [r3, #0]
    1376:	f422 22c0 	bic.w	r2, r2, #393216	; 0x60000
    137a:	601a      	str	r2, [r3, #0]
    137c:	681a      	ldr	r2, [r3, #0]
    137e:	601a      	str	r2, [r3, #0]
    1380:	681a      	ldr	r2, [r3, #0]
    1382:	f042 0203 	orr.w	r2, r2, #3
    1386:	601a      	str	r2, [r3, #0]
    1388:	4b0d      	ldr	r3, [pc, #52]	; (13c0 <adc14_msp432::adcReadRaw(unsigned char)+0x7c>)
    138a:	f893 3040 	ldrb.w	r3, [r3, #64]	; 0x40
    138e:	2b00      	cmp	r3, #0
    1390:	d1fa      	bne.n	1388 <adc14_msp432::adcReadRaw(unsigned char)+0x44>
    1392:	3426      	adds	r4, #38	; 0x26
    1394:	f103 4380 	add.w	r3, r3, #1073741824	; 0x40000000
    1398:	f503 3390 	add.w	r3, r3, #73728	; 0x12000
    139c:	f853 0024 	ldr.w	r0, [r3, r4, lsl #2]
    13a0:	b280      	uxth	r0, r0
    13a2:	bd10      	pop	{r4, pc}
    13a4:	4b07      	ldr	r3, [pc, #28]	; (13c4 <adc14_msp432::adcReadRaw(unsigned char)+0x80>)
    13a6:	4a08      	ldr	r2, [pc, #32]	; (13c8 <adc14_msp432::adcReadRaw(unsigned char)+0x84>)
    13a8:	601a      	str	r2, [r3, #0]
    13aa:	4b08      	ldr	r3, [pc, #32]	; (13cc <adc14_msp432::adcReadRaw(unsigned char)+0x88>)
    13ac:	2245      	movs	r2, #69	; 0x45
    13ae:	601a      	str	r2, [r3, #0]
    13b0:	f7ff fe7d 	bl	10ae <yahal_assert_func()>
    13b4:	f7ff ff28 	bl	1208 <adc14_msp432::adcStopScan()>
    13b8:	e7d3      	b.n	1362 <adc14_msp432::adcReadRaw(unsigned char)+0x1e>
    13ba:	bf00      	nop
    13bc:	40012000 	.word	0x40012000
    13c0:	42240000 	.word	0x42240000
    13c4:	200000b4 	.word	0x200000b4
    13c8:	0000eb98 	.word	0x0000eb98
    13cc:	200000d0 	.word	0x200000d0

000013d0 <adc14_msp432::handleIrq(unsigned long)>:
    13d0:	b538      	push	{r3, r4, r5, lr}
    13d2:	4605      	mov	r5, r0
    13d4:	460c      	mov	r4, r1
    13d6:	290b      	cmp	r1, #11
    13d8:	d90e      	bls.n	13f8 <adc14_msp432::handleIrq(unsigned long)+0x28>
    13da:	084c      	lsrs	r4, r1, #1
    13dc:	3c06      	subs	r4, #6
    13de:	eb00 0084 	add.w	r0, r0, r4, lsl #2
    13e2:	6843      	ldr	r3, [r0, #4]
    13e4:	b13b      	cbz	r3, 13f6 <adc14_msp432::handleIrq(unsigned long)+0x26>
    13e6:	f104 0126 	add.w	r1, r4, #38	; 0x26
    13ea:	4a1e      	ldr	r2, [pc, #120]	; (1464 <adc14_msp432::handleIrq(unsigned long)+0x94>)
    13ec:	f852 1021 	ldr.w	r1, [r2, r1, lsl #2]
    13f0:	b289      	uxth	r1, r1
    13f2:	b2a0      	uxth	r0, r4
    13f4:	4798      	blx	r3
    13f6:	bd38      	pop	{r3, r4, r5, pc}
    13f8:	f7ff ff06 	bl	1208 <adc14_msp432::adcStopScan()>
    13fc:	f895 206a 	ldrb.w	r2, [r5, #106]	; 0x6a
    1400:	4b18      	ldr	r3, [pc, #96]	; (1464 <adc14_msp432::handleIrq(unsigned long)+0x94>)
    1402:	3206      	adds	r2, #6
    1404:	f853 1022 	ldr.w	r1, [r3, r2, lsl #2]
    1408:	f421 4180 	bic.w	r1, r1, #16384	; 0x4000
    140c:	f843 1022 	str.w	r1, [r3, r2, lsl #2]
    1410:	f8d3 2140 	ldr.w	r2, [r3, #320]	; 0x140
    1414:	f022 020e 	bic.w	r2, r2, #14
    1418:	f8c3 2140 	str.w	r2, [r3, #320]	; 0x140
    141c:	f8d3 2150 	ldr.w	r2, [r3, #336]	; 0x150
    1420:	f042 020e 	orr.w	r2, r2, #14
    1424:	f8c3 2150 	str.w	r2, [r3, #336]	; 0x150
    1428:	2c08      	cmp	r4, #8
    142a:	d016      	beq.n	145a <adc14_msp432::handleIrq(unsigned long)+0x8a>
    142c:	2c0a      	cmp	r4, #10
    142e:	d016      	beq.n	145e <adc14_msp432::handleIrq(unsigned long)+0x8e>
    1430:	2c06      	cmp	r4, #6
    1432:	d010      	beq.n	1456 <adc14_msp432::handleIrq(unsigned long)+0x86>
    1434:	2100      	movs	r1, #0
    1436:	6e6a      	ldr	r2, [r5, #100]	; 0x64
    1438:	b13a      	cbz	r2, 144a <adc14_msp432::handleIrq(unsigned long)+0x7a>
    143a:	f895 306a 	ldrb.w	r3, [r5, #106]	; 0x6a
    143e:	3326      	adds	r3, #38	; 0x26
    1440:	4808      	ldr	r0, [pc, #32]	; (1464 <adc14_msp432::handleIrq(unsigned long)+0x94>)
    1442:	f850 0023 	ldr.w	r0, [r0, r3, lsl #2]
    1446:	b280      	uxth	r0, r0
    1448:	4790      	blx	r2
    144a:	4a06      	ldr	r2, [pc, #24]	; (1464 <adc14_msp432::handleIrq(unsigned long)+0x94>)
    144c:	6813      	ldr	r3, [r2, #0]
    144e:	f043 0303 	orr.w	r3, r3, #3
    1452:	6013      	str	r3, [r2, #0]
    1454:	e7cf      	b.n	13f6 <adc14_msp432::handleIrq(unsigned long)+0x26>
    1456:	2102      	movs	r1, #2
    1458:	e7ed      	b.n	1436 <adc14_msp432::handleIrq(unsigned long)+0x66>
    145a:	2101      	movs	r1, #1
    145c:	e7eb      	b.n	1436 <adc14_msp432::handleIrq(unsigned long)+0x66>
    145e:	2104      	movs	r1, #4
    1460:	e7e9      	b.n	1436 <adc14_msp432::handleIrq(unsigned long)+0x66>
    1462:	bf00      	nop
    1464:	40012000 	.word	0x40012000

00001468 <ADC14_IRQHandler>:
    1468:	b508      	push	{r3, lr}
    146a:	4b03      	ldr	r3, [pc, #12]	; (1478 <ADC14_IRQHandler+0x10>)
    146c:	f8d3 1154 	ldr.w	r1, [r3, #340]	; 0x154
    1470:	4802      	ldr	r0, [pc, #8]	; (147c <ADC14_IRQHandler+0x14>)
    1472:	f7ff ffad 	bl	13d0 <adc14_msp432::handleIrq(unsigned long)>
    1476:	bd08      	pop	{r3, pc}
    1478:	40012000 	.word	0x40012000
    147c:	200005d8 	.word	0x200005d8

00001480 <_GLOBAL__sub_I__ZN12adc14_msp4324instE>:
    1480:	b508      	push	{r3, lr}
    1482:	f64f 71ff 	movw	r1, #65535	; 0xffff
    1486:	2001      	movs	r0, #1
    1488:	f7ff fefe 	bl	1288 <__static_initialization_and_destruction_0(int, int)>
    148c:	bd08      	pop	{r3, pc}
	...

00001490 <__NVIC_EnableIRQ>:
    1490:	2800      	cmp	r0, #0
    1492:	db07      	blt.n	14a4 <__NVIC_EnableIRQ+0x14>
    1494:	f000 021f 	and.w	r2, r0, #31
    1498:	0940      	lsrs	r0, r0, #5
    149a:	2301      	movs	r3, #1
    149c:	4093      	lsls	r3, r2
    149e:	4a02      	ldr	r2, [pc, #8]	; (14a8 <__NVIC_EnableIRQ+0x18>)
    14a0:	f842 3020 	str.w	r3, [r2, r0, lsl #2]
    14a4:	4770      	bx	lr
    14a6:	bf00      	nop
    14a8:	e000e100 	.word	0xe000e100

000014ac <yahal_assert_func()>:
    14ac:	e7fe      	b.n	14ac <yahal_assert_func()>
	...

000014b0 <gpio_msp432::gpioRead(unsigned short)>:
    14b0:	b508      	push	{r3, lr}
    14b2:	0a0b      	lsrs	r3, r1, #8
    14b4:	1e5a      	subs	r2, r3, #1
    14b6:	b2d2      	uxtb	r2, r2
    14b8:	2a09      	cmp	r2, #9
    14ba:	d80c      	bhi.n	14d6 <gpio_msp432::gpioRead(unsigned short)+0x26>
    14bc:	b2c9      	uxtb	r1, r1
    14be:	2907      	cmp	r1, #7
    14c0:	d809      	bhi.n	14d6 <gpio_msp432::gpioRead(unsigned short)+0x26>
    14c2:	3b01      	subs	r3, #1
    14c4:	4a08      	ldr	r2, [pc, #32]	; (14e8 <gpio_msp432::gpioRead(unsigned short)+0x38>)
    14c6:	f852 3023 	ldr.w	r3, [r2, r3, lsl #2]
    14ca:	f813 0021 	ldrb.w	r0, [r3, r1, lsl #2]
    14ce:	3800      	subs	r0, #0
    14d0:	bf18      	it	ne
    14d2:	2001      	movne	r0, #1
    14d4:	bd08      	pop	{r3, pc}
    14d6:	4b05      	ldr	r3, [pc, #20]	; (14ec <gpio_msp432::gpioRead(unsigned short)+0x3c>)
    14d8:	4a05      	ldr	r2, [pc, #20]	; (14f0 <gpio_msp432::gpioRead(unsigned short)+0x40>)
    14da:	601a      	str	r2, [r3, #0]
    14dc:	4b05      	ldr	r3, [pc, #20]	; (14f4 <gpio_msp432::gpioRead(unsigned short)+0x44>)
    14de:	2233      	movs	r2, #51	; 0x33
    14e0:	601a      	str	r2, [r3, #0]
    14e2:	f7ff ffe3 	bl	14ac <yahal_assert_func()>
    14e6:	bf00      	nop
    14e8:	2000000c 	.word	0x2000000c
    14ec:	200000b8 	.word	0x200000b8
    14f0:	0000ec34 	.word	0x0000ec34
    14f4:	200000d4 	.word	0x200000d4

000014f8 <gpio_msp432::gpioWrite(unsigned short, bool)>:
    14f8:	b510      	push	{r4, lr}
    14fa:	0a0b      	lsrs	r3, r1, #8
    14fc:	f103 3cff 	add.w	ip, r3, #4294967295
    1500:	fa5f fc8c 	uxtb.w	ip, ip
    1504:	f1bc 0f09 	cmp.w	ip, #9
    1508:	d82a      	bhi.n	1560 <gpio_msp432::gpioWrite(unsigned short, bool)+0x68>
    150a:	fa5f fe81 	uxtb.w	lr, r1
    150e:	f1be 0f07 	cmp.w	lr, #7
    1512:	d825      	bhi.n	1560 <gpio_msp432::gpioWrite(unsigned short, bool)+0x68>
    1514:	3b01      	subs	r3, #1
    1516:	eb00 0c03 	add.w	ip, r0, r3
    151a:	f89c c3fe 	ldrb.w	ip, [ip, #1022]	; 0x3fe
    151e:	fa4c fc01 	asr.w	ip, ip, r1
    1522:	f01c 0f01 	tst.w	ip, #1
    1526:	d040      	beq.n	15aa <gpio_msp432::gpioWrite(unsigned short, bool)+0xb2>
    1528:	4418      	add	r0, r3
    152a:	f890 0408 	ldrb.w	r0, [r0, #1032]	; 0x408
    152e:	fa40 f101 	asr.w	r1, r0, r1
    1532:	f011 0f01 	tst.w	r1, #1
    1536:	d02e      	beq.n	1596 <gpio_msp432::gpioWrite(unsigned short, bool)+0x9e>
    1538:	b1d2      	cbz	r2, 1570 <gpio_msp432::gpioWrite(unsigned short, bool)+0x78>
    153a:	4a3d      	ldr	r2, [pc, #244]	; (1630 <gpio_msp432::gpioWrite(unsigned short, bool)+0x138>)
    153c:	f852 0023 	ldr.w	r0, [r2, r3, lsl #2]
    1540:	ea4f 0e8e 	mov.w	lr, lr, lsl #2
    1544:	f10e 0180 	add.w	r1, lr, #128	; 0x80
    1548:	f04f 0c00 	mov.w	ip, #0
    154c:	f800 c001 	strb.w	ip, [r0, r1]
    1550:	f852 3023 	ldr.w	r3, [r2, r3, lsl #2]
    1554:	f10e 0e40 	add.w	lr, lr, #64	; 0x40
    1558:	2201      	movs	r2, #1
    155a:	f803 200e 	strb.w	r2, [r3, lr]
    155e:	e023      	b.n	15a8 <gpio_msp432::gpioWrite(unsigned short, bool)+0xb0>
    1560:	4b34      	ldr	r3, [pc, #208]	; (1634 <gpio_msp432::gpioWrite(unsigned short, bool)+0x13c>)
    1562:	4a35      	ldr	r2, [pc, #212]	; (1638 <gpio_msp432::gpioWrite(unsigned short, bool)+0x140>)
    1564:	601a      	str	r2, [r3, #0]
    1566:	4b35      	ldr	r3, [pc, #212]	; (163c <gpio_msp432::gpioWrite(unsigned short, bool)+0x144>)
    1568:	223a      	movs	r2, #58	; 0x3a
    156a:	601a      	str	r2, [r3, #0]
    156c:	f7ff ff9e 	bl	14ac <yahal_assert_func()>
    1570:	4a2f      	ldr	r2, [pc, #188]	; (1630 <gpio_msp432::gpioWrite(unsigned short, bool)+0x138>)
    1572:	f852 0023 	ldr.w	r0, [r2, r3, lsl #2]
    1576:	ea4f 0e8e 	mov.w	lr, lr, lsl #2
    157a:	f10e 0140 	add.w	r1, lr, #64	; 0x40
    157e:	f04f 0c00 	mov.w	ip, #0
    1582:	f800 c001 	strb.w	ip, [r0, r1]
    1586:	f852 3023 	ldr.w	r3, [r2, r3, lsl #2]
    158a:	f10e 0e80 	add.w	lr, lr, #128	; 0x80
    158e:	2201      	movs	r2, #1
    1590:	f803 200e 	strb.w	r2, [r3, lr]
    1594:	e008      	b.n	15a8 <gpio_msp432::gpioWrite(unsigned short, bool)+0xb0>
    1596:	4926      	ldr	r1, [pc, #152]	; (1630 <gpio_msp432::gpioWrite(unsigned short, bool)+0x138>)
    1598:	f851 1023 	ldr.w	r1, [r1, r3, lsl #2]
    159c:	ea4f 038e 	mov.w	r3, lr, lsl #2
    15a0:	3380      	adds	r3, #128	; 0x80
    15a2:	f082 0201 	eor.w	r2, r2, #1
    15a6:	54ca      	strb	r2, [r1, r3]
    15a8:	bd10      	pop	{r4, pc}
    15aa:	eb00 0c03 	add.w	ip, r0, r3
    15ae:	f89c c3f4 	ldrb.w	ip, [ip, #1012]	; 0x3f4
    15b2:	fa4c fc01 	asr.w	ip, ip, r1
    15b6:	f01c 0f01 	tst.w	ip, #1
    15ba:	d030      	beq.n	161e <gpio_msp432::gpioWrite(unsigned short, bool)+0x126>
    15bc:	4418      	add	r0, r3
    15be:	f890 0412 	ldrb.w	r0, [r0, #1042]	; 0x412
    15c2:	fa40 f101 	asr.w	r1, r0, r1
    15c6:	f011 0f01 	tst.w	r1, #1
    15ca:	d020      	beq.n	160e <gpio_msp432::gpioWrite(unsigned short, bool)+0x116>
    15cc:	b17a      	cbz	r2, 15ee <gpio_msp432::gpioWrite(unsigned short, bool)+0xf6>
    15ce:	4918      	ldr	r1, [pc, #96]	; (1630 <gpio_msp432::gpioWrite(unsigned short, bool)+0x138>)
    15d0:	ea4f 0e8e 	mov.w	lr, lr, lsl #2
    15d4:	f10e 0040 	add.w	r0, lr, #64	; 0x40
    15d8:	2201      	movs	r2, #1
    15da:	f851 4023 	ldr.w	r4, [r1, r3, lsl #2]
    15de:	5422      	strb	r2, [r4, r0]
    15e0:	f851 3023 	ldr.w	r3, [r1, r3, lsl #2]
    15e4:	f10e 0e80 	add.w	lr, lr, #128	; 0x80
    15e8:	f803 200e 	strb.w	r2, [r3, lr]
    15ec:	e7dc      	b.n	15a8 <gpio_msp432::gpioWrite(unsigned short, bool)+0xb0>
    15ee:	4910      	ldr	r1, [pc, #64]	; (1630 <gpio_msp432::gpioWrite(unsigned short, bool)+0x138>)
    15f0:	ea4f 0e8e 	mov.w	lr, lr, lsl #2
    15f4:	f10e 0080 	add.w	r0, lr, #128	; 0x80
    15f8:	2200      	movs	r2, #0
    15fa:	f851 4023 	ldr.w	r4, [r1, r3, lsl #2]
    15fe:	5422      	strb	r2, [r4, r0]
    1600:	f851 3023 	ldr.w	r3, [r1, r3, lsl #2]
    1604:	f10e 0e40 	add.w	lr, lr, #64	; 0x40
    1608:	f803 200e 	strb.w	r2, [r3, lr]
    160c:	e7cc      	b.n	15a8 <gpio_msp432::gpioWrite(unsigned short, bool)+0xb0>
    160e:	4908      	ldr	r1, [pc, #32]	; (1630 <gpio_msp432::gpioWrite(unsigned short, bool)+0x138>)
    1610:	f851 1023 	ldr.w	r1, [r1, r3, lsl #2]
    1614:	ea4f 038e 	mov.w	r3, lr, lsl #2
    1618:	3380      	adds	r3, #128	; 0x80
    161a:	54ca      	strb	r2, [r1, r3]
    161c:	e7c4      	b.n	15a8 <gpio_msp432::gpioWrite(unsigned short, bool)+0xb0>
    161e:	4904      	ldr	r1, [pc, #16]	; (1630 <gpio_msp432::gpioWrite(unsigned short, bool)+0x138>)
    1620:	f851 1023 	ldr.w	r1, [r1, r3, lsl #2]
    1624:	ea4f 038e 	mov.w	r3, lr, lsl #2
    1628:	3340      	adds	r3, #64	; 0x40
    162a:	54ca      	strb	r2, [r1, r3]
    162c:	e7bc      	b.n	15a8 <gpio_msp432::gpioWrite(unsigned short, bool)+0xb0>
    162e:	bf00      	nop
    1630:	2000000c 	.word	0x2000000c
    1634:	200000b8 	.word	0x200000b8
    1638:	0000ec34 	.word	0x0000ec34
    163c:	200000d4 	.word	0x200000d4

00001640 <gpio_msp432::gpioToggle(unsigned short)>:
    1640:	b508      	push	{r3, lr}
    1642:	0a0b      	lsrs	r3, r1, #8
    1644:	1e5a      	subs	r2, r3, #1
    1646:	b2d2      	uxtb	r2, r2
    1648:	2a09      	cmp	r2, #9
    164a:	d811      	bhi.n	1670 <gpio_msp432::gpioToggle(unsigned short)+0x30>
    164c:	fa5f fc81 	uxtb.w	ip, r1
    1650:	f1bc 0f07 	cmp.w	ip, #7
    1654:	d80c      	bhi.n	1670 <gpio_msp432::gpioToggle(unsigned short)+0x30>
    1656:	3b01      	subs	r3, #1
    1658:	4a09      	ldr	r2, [pc, #36]	; (1680 <gpio_msp432::gpioToggle(unsigned short)+0x40>)
    165a:	f852 3023 	ldr.w	r3, [r2, r3, lsl #2]
    165e:	f813 202c 	ldrb.w	r2, [r3, ip, lsl #2]
    1662:	6803      	ldr	r3, [r0, #0]
    1664:	689b      	ldr	r3, [r3, #8]
    1666:	fab2 f282 	clz	r2, r2
    166a:	0952      	lsrs	r2, r2, #5
    166c:	4798      	blx	r3
    166e:	bd08      	pop	{r3, pc}
    1670:	4b04      	ldr	r3, [pc, #16]	; (1684 <gpio_msp432::gpioToggle(unsigned short)+0x44>)
    1672:	4a05      	ldr	r2, [pc, #20]	; (1688 <gpio_msp432::gpioToggle(unsigned short)+0x48>)
    1674:	601a      	str	r2, [r3, #0]
    1676:	4b05      	ldr	r3, [pc, #20]	; (168c <gpio_msp432::gpioToggle(unsigned short)+0x4c>)
    1678:	225e      	movs	r2, #94	; 0x5e
    167a:	601a      	str	r2, [r3, #0]
    167c:	f7ff ff16 	bl	14ac <yahal_assert_func()>
    1680:	2000000c 	.word	0x2000000c
    1684:	200000b8 	.word	0x200000b8
    1688:	0000ec34 	.word	0x0000ec34
    168c:	200000d4 	.word	0x200000d4

00001690 <gpio_msp432::gpioEnableIrq(unsigned short)>:
    1690:	b510      	push	{r4, lr}
    1692:	0a08      	lsrs	r0, r1, #8
    1694:	1e43      	subs	r3, r0, #1
    1696:	b2db      	uxtb	r3, r3
    1698:	2b05      	cmp	r3, #5
    169a:	d818      	bhi.n	16ce <gpio_msp432::gpioEnableIrq(unsigned short)+0x3e>
    169c:	b2c9      	uxtb	r1, r1
    169e:	2907      	cmp	r1, #7
    16a0:	d815      	bhi.n	16ce <gpio_msp432::gpioEnableIrq(unsigned short)+0x3e>
    16a2:	1e42      	subs	r2, r0, #1
    16a4:	4b0e      	ldr	r3, [pc, #56]	; (16e0 <gpio_msp432::gpioEnableIrq(unsigned short)+0x50>)
    16a6:	0089      	lsls	r1, r1, #2
    16a8:	f501 7c60 	add.w	ip, r1, #896	; 0x380
    16ac:	f04f 0e00 	mov.w	lr, #0
    16b0:	f853 4022 	ldr.w	r4, [r3, r2, lsl #2]
    16b4:	f804 e00c 	strb.w	lr, [r4, ip]
    16b8:	f853 3022 	ldr.w	r3, [r3, r2, lsl #2]
    16bc:	f501 7150 	add.w	r1, r1, #832	; 0x340
    16c0:	2201      	movs	r2, #1
    16c2:	545a      	strb	r2, [r3, r1]
    16c4:	3022      	adds	r0, #34	; 0x22
    16c6:	b240      	sxtb	r0, r0
    16c8:	f7ff fee2 	bl	1490 <__NVIC_EnableIRQ>
    16cc:	bd10      	pop	{r4, pc}
    16ce:	4b05      	ldr	r3, [pc, #20]	; (16e4 <gpio_msp432::gpioEnableIrq(unsigned short)+0x54>)
    16d0:	4a05      	ldr	r2, [pc, #20]	; (16e8 <gpio_msp432::gpioEnableIrq(unsigned short)+0x58>)
    16d2:	601a      	str	r2, [r3, #0]
    16d4:	4b05      	ldr	r3, [pc, #20]	; (16ec <gpio_msp432::gpioEnableIrq(unsigned short)+0x5c>)
    16d6:	2290      	movs	r2, #144	; 0x90
    16d8:	601a      	str	r2, [r3, #0]
    16da:	f7ff fee7 	bl	14ac <yahal_assert_func()>
    16de:	bf00      	nop
    16e0:	2000000c 	.word	0x2000000c
    16e4:	200000b8 	.word	0x200000b8
    16e8:	0000ec34 	.word	0x0000ec34
    16ec:	200000d4 	.word	0x200000d4

000016f0 <gpio_msp432::gpioDisableIrq(unsigned short)>:
    16f0:	b508      	push	{r3, lr}
    16f2:	0a0b      	lsrs	r3, r1, #8
    16f4:	1e5a      	subs	r2, r3, #1
    16f6:	b2d2      	uxtb	r2, r2
    16f8:	2a05      	cmp	r2, #5
    16fa:	d80c      	bhi.n	1716 <gpio_msp432::gpioDisableIrq(unsigned short)+0x26>
    16fc:	b2c9      	uxtb	r1, r1
    16fe:	2907      	cmp	r1, #7
    1700:	d809      	bhi.n	1716 <gpio_msp432::gpioDisableIrq(unsigned short)+0x26>
    1702:	3b01      	subs	r3, #1
    1704:	4a08      	ldr	r2, [pc, #32]	; (1728 <gpio_msp432::gpioDisableIrq(unsigned short)+0x38>)
    1706:	f852 3023 	ldr.w	r3, [r2, r3, lsl #2]
    170a:	0089      	lsls	r1, r1, #2
    170c:	f501 7150 	add.w	r1, r1, #832	; 0x340
    1710:	2200      	movs	r2, #0
    1712:	545a      	strb	r2, [r3, r1]
    1714:	bd08      	pop	{r3, pc}
    1716:	4b05      	ldr	r3, [pc, #20]	; (172c <gpio_msp432::gpioDisableIrq(unsigned short)+0x3c>)
    1718:	4a05      	ldr	r2, [pc, #20]	; (1730 <gpio_msp432::gpioDisableIrq(unsigned short)+0x40>)
    171a:	601a      	str	r2, [r3, #0]
    171c:	4b05      	ldr	r3, [pc, #20]	; (1734 <gpio_msp432::gpioDisableIrq(unsigned short)+0x44>)
    171e:	229a      	movs	r2, #154	; 0x9a
    1720:	601a      	str	r2, [r3, #0]
    1722:	f7ff fec3 	bl	14ac <yahal_assert_func()>
    1726:	bf00      	nop
    1728:	2000000c 	.word	0x2000000c
    172c:	200000b8 	.word	0x200000b8
    1730:	0000ec34 	.word	0x0000ec34
    1734:	200000d4 	.word	0x200000d4

00001738 <std::_Function_base::~_Function_base()>:
    1738:	b510      	push	{r4, lr}
    173a:	4604      	mov	r4, r0
    173c:	6883      	ldr	r3, [r0, #8]
    173e:	b113      	cbz	r3, 1746 <std::_Function_base::~_Function_base()+0xe>
    1740:	2203      	movs	r2, #3
    1742:	4601      	mov	r1, r0
    1744:	4798      	blx	r3
    1746:	4620      	mov	r0, r4
    1748:	bd10      	pop	{r4, pc}
	...

0000174c <gpio_msp432::~gpio_msp432()>:
    174c:	b570      	push	{r4, r5, r6, lr}
    174e:	4606      	mov	r6, r0
    1750:	4605      	mov	r5, r0
    1752:	4b08      	ldr	r3, [pc, #32]	; (1774 <gpio_msp432::~gpio_msp432()+0x28>)
    1754:	f845 3b04 	str.w	r3, [r5], #4
    1758:	f500 7441 	add.w	r4, r0, #772	; 0x304
    175c:	e003      	b.n	1766 <gpio_msp432::~gpio_msp432()+0x1a>
    175e:	3c10      	subs	r4, #16
    1760:	4620      	mov	r0, r4
    1762:	f7ff ffe9 	bl	1738 <std::_Function_base::~_Function_base()>
    1766:	42a5      	cmp	r5, r4
    1768:	d1f9      	bne.n	175e <gpio_msp432::~gpio_msp432()+0x12>
    176a:	4b03      	ldr	r3, [pc, #12]	; (1778 <gpio_msp432::~gpio_msp432()+0x2c>)
    176c:	6033      	str	r3, [r6, #0]
    176e:	4630      	mov	r0, r6
    1770:	bd70      	pop	{r4, r5, r6, pc}
    1772:	bf00      	nop
    1774:	0000ecc0 	.word	0x0000ecc0
    1778:	0000ec90 	.word	0x0000ec90

0000177c <gpio_msp432::~gpio_msp432()>:
    177c:	b510      	push	{r4, lr}
    177e:	4604      	mov	r4, r0
    1780:	f7ff ffe4 	bl	174c <gpio_msp432::~gpio_msp432()>
    1784:	f240 411c 	movw	r1, #1052	; 0x41c
    1788:	4620      	mov	r0, r4
    178a:	f003 f9f8 	bl	4b7e <operator delete(void*, unsigned int)>
    178e:	4620      	mov	r0, r4
    1790:	bd10      	pop	{r4, pc}
	...

00001794 <gpio_msp432::gpio_msp432()>:
    1794:	b500      	push	{lr}
    1796:	4b0f      	ldr	r3, [pc, #60]	; (17d4 <gpio_msp432::gpio_msp432()+0x40>)
    1798:	6003      	str	r3, [r0, #0]
    179a:	4684      	mov	ip, r0
    179c:	4b0e      	ldr	r3, [pc, #56]	; (17d8 <gpio_msp432::gpio_msp432()+0x44>)
    179e:	f84c 3b04 	str.w	r3, [ip], #4
    17a2:	f04f 0e05 	mov.w	lr, #5
    17a6:	e00c      	b.n	17c2 <gpio_msp432::gpio_msp432()+0x2e>
    17a8:	2200      	movs	r2, #0
    17aa:	601a      	str	r2, [r3, #0]
    17ac:	605a      	str	r2, [r3, #4]
    17ae:	609a      	str	r2, [r3, #8]
    17b0:	60da      	str	r2, [r3, #12]
    17b2:	3901      	subs	r1, #1
    17b4:	3310      	adds	r3, #16
    17b6:	2900      	cmp	r1, #0
    17b8:	daf6      	bge.n	17a8 <gpio_msp432::gpio_msp432()+0x14>
    17ba:	f10e 3eff 	add.w	lr, lr, #4294967295
    17be:	f10c 0c80 	add.w	ip, ip, #128	; 0x80
    17c2:	f1be 0f00 	cmp.w	lr, #0
    17c6:	db02      	blt.n	17ce <gpio_msp432::gpio_msp432()+0x3a>
    17c8:	4663      	mov	r3, ip
    17ca:	2107      	movs	r1, #7
    17cc:	e7f3      	b.n	17b6 <gpio_msp432::gpio_msp432()+0x22>
    17ce:	f85d fb04 	ldr.w	pc, [sp], #4
    17d2:	bf00      	nop
    17d4:	0000ec90 	.word	0x0000ec90
    17d8:	0000ecc0 	.word	0x0000ecc0

000017dc <__static_initialization_and_destruction_0(int, int)>:
    17dc:	2801      	cmp	r0, #1
    17de:	d000      	beq.n	17e2 <__static_initialization_and_destruction_0(int, int)+0x6>
    17e0:	4770      	bx	lr
    17e2:	f64f 73ff 	movw	r3, #65535	; 0xffff
    17e6:	4299      	cmp	r1, r3
    17e8:	d1fa      	bne.n	17e0 <__static_initialization_and_destruction_0(int, int)+0x4>
    17ea:	b510      	push	{r4, lr}
    17ec:	4c04      	ldr	r4, [pc, #16]	; (1800 <__static_initialization_and_destruction_0(int, int)+0x24>)
    17ee:	4620      	mov	r0, r4
    17f0:	f7ff ffd0 	bl	1794 <gpio_msp432::gpio_msp432()>
    17f4:	4a03      	ldr	r2, [pc, #12]	; (1804 <__static_initialization_and_destruction_0(int, int)+0x28>)
    17f6:	4904      	ldr	r1, [pc, #16]	; (1808 <__static_initialization_and_destruction_0(int, int)+0x2c>)
    17f8:	4620      	mov	r0, r4
    17fa:	f003 f9bb 	bl	4b74 <__aeabi_atexit>
    17fe:	bd10      	pop	{r4, pc}
    1800:	2000016c 	.word	0x2000016c
    1804:	20000000 	.word	0x20000000
    1808:	0000174d 	.word	0x0000174d

0000180c <gpio_msp432::setSEL(unsigned short, unsigned char)>:
    180c:	b510      	push	{r4, lr}
    180e:	0a0b      	lsrs	r3, r1, #8
    1810:	1e58      	subs	r0, r3, #1
    1812:	b2c0      	uxtb	r0, r0
    1814:	2809      	cmp	r0, #9
    1816:	d815      	bhi.n	1844 <gpio_msp432::setSEL(unsigned short, unsigned char)+0x38>
    1818:	b2c9      	uxtb	r1, r1
    181a:	2907      	cmp	r1, #7
    181c:	d812      	bhi.n	1844 <gpio_msp432::setSEL(unsigned short, unsigned char)+0x38>
    181e:	3b01      	subs	r3, #1
    1820:	480c      	ldr	r0, [pc, #48]	; (1854 <gpio_msp432::setSEL(unsigned short, unsigned char)+0x48>)
    1822:	0089      	lsls	r1, r1, #2
    1824:	f501 7ca0 	add.w	ip, r1, #320	; 0x140
    1828:	f002 0e01 	and.w	lr, r2, #1
    182c:	f850 4023 	ldr.w	r4, [r0, r3, lsl #2]
    1830:	f804 e00c 	strb.w	lr, [r4, ip]
    1834:	f850 3023 	ldr.w	r3, [r0, r3, lsl #2]
    1838:	f501 71c0 	add.w	r1, r1, #384	; 0x180
    183c:	f3c2 0240 	ubfx	r2, r2, #1, #1
    1840:	545a      	strb	r2, [r3, r1]
    1842:	bd10      	pop	{r4, pc}
    1844:	4b04      	ldr	r3, [pc, #16]	; (1858 <gpio_msp432::setSEL(unsigned short, unsigned char)+0x4c>)
    1846:	4a05      	ldr	r2, [pc, #20]	; (185c <gpio_msp432::setSEL(unsigned short, unsigned char)+0x50>)
    1848:	601a      	str	r2, [r3, #0]
    184a:	4b05      	ldr	r3, [pc, #20]	; (1860 <gpio_msp432::setSEL(unsigned short, unsigned char)+0x54>)
    184c:	22aa      	movs	r2, #170	; 0xaa
    184e:	601a      	str	r2, [r3, #0]
    1850:	f7ff fe2c 	bl	14ac <yahal_assert_func()>
    1854:	2000000c 	.word	0x2000000c
    1858:	200000b8 	.word	0x200000b8
    185c:	0000ec34 	.word	0x0000ec34
    1860:	200000d4 	.word	0x200000d4

00001864 <gpio_msp432::setMode(unsigned short, unsigned short)>:
    1864:	e92d 43f8 	stmdb	sp!, {r3, r4, r5, r6, r7, r8, r9, lr}
    1868:	460e      	mov	r6, r1
    186a:	4614      	mov	r4, r2
    186c:	0a0b      	lsrs	r3, r1, #8
    186e:	b2ca      	uxtb	r2, r1
    1870:	1e59      	subs	r1, r3, #1
    1872:	b2c9      	uxtb	r1, r1
    1874:	2909      	cmp	r1, #9
    1876:	f200 8090 	bhi.w	199a <gpio_msp432::setMode(unsigned short, unsigned short)+0x136>
    187a:	4605      	mov	r5, r0
    187c:	2a07      	cmp	r2, #7
    187e:	f200 808c 	bhi.w	199a <gpio_msp432::setMode(unsigned short, unsigned short)+0x136>
    1882:	3b01      	subs	r3, #1
    1884:	eb00 0c03 	add.w	ip, r0, r3
    1888:	f89c 03fe 	ldrb.w	r0, [ip, #1022]	; 0x3fe
    188c:	2101      	movs	r1, #1
    188e:	40b1      	lsls	r1, r6
    1890:	ea20 0001 	bic.w	r0, r0, r1
    1894:	f88c 03fe 	strb.w	r0, [ip, #1022]	; 0x3fe
    1898:	f89c 03f4 	ldrb.w	r0, [ip, #1012]	; 0x3f4
    189c:	ea20 0001 	bic.w	r0, r0, r1
    18a0:	f88c 03f4 	strb.w	r0, [ip, #1012]	; 0x3f4
    18a4:	f89c 0408 	ldrb.w	r0, [ip, #1032]	; 0x408
    18a8:	ea20 0001 	bic.w	r0, r0, r1
    18ac:	f88c 0408 	strb.w	r0, [ip, #1032]	; 0x408
    18b0:	f89c 0412 	ldrb.w	r0, [ip, #1042]	; 0x412
    18b4:	ea20 0001 	bic.w	r0, r0, r1
    18b8:	f88c 0412 	strb.w	r0, [ip, #1042]	; 0x412
    18bc:	4f3f      	ldr	r7, [pc, #252]	; (19bc <gpio_msp432::setMode(unsigned short, unsigned short)+0x158>)
    18be:	f857 0023 	ldr.w	r0, [r7, r3, lsl #2]
    18c2:	0092      	lsls	r2, r2, #2
    18c4:	f102 0880 	add.w	r8, r2, #128	; 0x80
    18c8:	f04f 0c00 	mov.w	ip, #0
    18cc:	f800 c008 	strb.w	ip, [r0, r8]
    18d0:	f857 0023 	ldr.w	r0, [r7, r3, lsl #2]
    18d4:	f102 0ec0 	add.w	lr, r2, #192	; 0xc0
    18d8:	f800 c00e 	strb.w	ip, [r0, lr]
    18dc:	f857 0023 	ldr.w	r0, [r7, r3, lsl #2]
    18e0:	f102 0940 	add.w	r9, r2, #64	; 0x40
    18e4:	f800 c009 	strb.w	ip, [r0, r9]
    18e8:	f014 0f02 	tst.w	r4, #2
    18ec:	d004      	beq.n	18f8 <gpio_msp432::setMode(unsigned short, unsigned short)+0x94>
    18ee:	f857 0023 	ldr.w	r0, [r7, r3, lsl #2]
    18f2:	2701      	movs	r7, #1
    18f4:	f800 7008 	strb.w	r7, [r0, r8]
    18f8:	f014 0f04 	tst.w	r4, #4
    18fc:	d005      	beq.n	190a <gpio_msp432::setMode(unsigned short, unsigned short)+0xa6>
    18fe:	18ef      	adds	r7, r5, r3
    1900:	f897 03fe 	ldrb.w	r0, [r7, #1022]	; 0x3fe
    1904:	4308      	orrs	r0, r1
    1906:	f887 03fe 	strb.w	r0, [r7, #1022]	; 0x3fe
    190a:	f014 0f08 	tst.w	r4, #8
    190e:	d00b      	beq.n	1928 <gpio_msp432::setMode(unsigned short, unsigned short)+0xc4>
    1910:	18ef      	adds	r7, r5, r3
    1912:	f897 03f4 	ldrb.w	r0, [r7, #1012]	; 0x3f4
    1916:	4308      	orrs	r0, r1
    1918:	f887 03f4 	strb.w	r0, [r7, #1012]	; 0x3f4
    191c:	4827      	ldr	r0, [pc, #156]	; (19bc <gpio_msp432::setMode(unsigned short, unsigned short)+0x158>)
    191e:	f850 0023 	ldr.w	r0, [r0, r3, lsl #2]
    1922:	2701      	movs	r7, #1
    1924:	f800 7009 	strb.w	r7, [r0, r9]
    1928:	f014 0f10 	tst.w	r4, #16
    192c:	d00f      	beq.n	194e <gpio_msp432::setMode(unsigned short, unsigned short)+0xea>
    192e:	18ef      	adds	r7, r5, r3
    1930:	f897 0408 	ldrb.w	r0, [r7, #1032]	; 0x408
    1934:	4308      	orrs	r0, r1
    1936:	f887 0408 	strb.w	r0, [r7, #1032]	; 0x408
    193a:	4820      	ldr	r0, [pc, #128]	; (19bc <gpio_msp432::setMode(unsigned short, unsigned short)+0x158>)
    193c:	2701      	movs	r7, #1
    193e:	f850 2023 	ldr.w	r2, [r0, r3, lsl #2]
    1942:	f802 700e 	strb.w	r7, [r2, lr]
    1946:	f850 0023 	ldr.w	r0, [r0, r3, lsl #2]
    194a:	f800 7009 	strb.w	r7, [r0, r9]
    194e:	f014 0f20 	tst.w	r4, #32
    1952:	d00b      	beq.n	196c <gpio_msp432::setMode(unsigned short, unsigned short)+0x108>
    1954:	18e8      	adds	r0, r5, r3
    1956:	f890 2412 	ldrb.w	r2, [r0, #1042]	; 0x412
    195a:	430a      	orrs	r2, r1
    195c:	f880 2412 	strb.w	r2, [r0, #1042]	; 0x412
    1960:	4a16      	ldr	r2, [pc, #88]	; (19bc <gpio_msp432::setMode(unsigned short, unsigned short)+0x158>)
    1962:	f852 3023 	ldr.w	r3, [r2, r3, lsl #2]
    1966:	2201      	movs	r2, #1
    1968:	f803 200e 	strb.w	r2, [r3, lr]
    196c:	f014 0fc0 	tst.w	r4, #192	; 0xc0
    1970:	d11b      	bne.n	19aa <gpio_msp432::setMode(unsigned short, unsigned short)+0x146>
    1972:	f414 7f80 	tst.w	r4, #256	; 0x100
    1976:	d005      	beq.n	1984 <gpio_msp432::setMode(unsigned short, unsigned short)+0x120>
    1978:	682b      	ldr	r3, [r5, #0]
    197a:	689b      	ldr	r3, [r3, #8]
    197c:	2201      	movs	r2, #1
    197e:	4631      	mov	r1, r6
    1980:	4628      	mov	r0, r5
    1982:	4798      	blx	r3
    1984:	f414 7f00 	tst.w	r4, #512	; 0x200
    1988:	d005      	beq.n	1996 <gpio_msp432::setMode(unsigned short, unsigned short)+0x132>
    198a:	682b      	ldr	r3, [r5, #0]
    198c:	689b      	ldr	r3, [r3, #8]
    198e:	2200      	movs	r2, #0
    1990:	4631      	mov	r1, r6
    1992:	4628      	mov	r0, r5
    1994:	4798      	blx	r3
    1996:	e8bd 83f8 	ldmia.w	sp!, {r3, r4, r5, r6, r7, r8, r9, pc}
    199a:	4b09      	ldr	r3, [pc, #36]	; (19c0 <gpio_msp432::setMode(unsigned short, unsigned short)+0x15c>)
    199c:	4a09      	ldr	r2, [pc, #36]	; (19c4 <gpio_msp432::setMode(unsigned short, unsigned short)+0x160>)
    199e:	601a      	str	r2, [r3, #0]
    19a0:	4b09      	ldr	r3, [pc, #36]	; (19c8 <gpio_msp432::setMode(unsigned short, unsigned short)+0x164>)
    19a2:	22b2      	movs	r2, #178	; 0xb2
    19a4:	601a      	str	r2, [r3, #0]
    19a6:	f7ff fd81 	bl	14ac <yahal_assert_func()>
    19aa:	4b05      	ldr	r3, [pc, #20]	; (19c0 <gpio_msp432::setMode(unsigned short, unsigned short)+0x15c>)
    19ac:	4a05      	ldr	r2, [pc, #20]	; (19c4 <gpio_msp432::setMode(unsigned short, unsigned short)+0x160>)
    19ae:	601a      	str	r2, [r3, #0]
    19b0:	4b05      	ldr	r3, [pc, #20]	; (19c8 <gpio_msp432::setMode(unsigned short, unsigned short)+0x164>)
    19b2:	22d4      	movs	r2, #212	; 0xd4
    19b4:	601a      	str	r2, [r3, #0]
    19b6:	f7ff fd79 	bl	14ac <yahal_assert_func()>
    19ba:	bf00      	nop
    19bc:	2000000c 	.word	0x2000000c
    19c0:	200000b8 	.word	0x200000b8
    19c4:	0000ec34 	.word	0x0000ec34
    19c8:	200000d4 	.word	0x200000d4

000019cc <gpio_msp432::gpioMode(unsigned short, unsigned short)>:
    19cc:	b570      	push	{r4, r5, r6, lr}
    19ce:	4604      	mov	r4, r0
    19d0:	460d      	mov	r5, r1
    19d2:	4616      	mov	r6, r2
    19d4:	2200      	movs	r2, #0
    19d6:	f7ff ff19 	bl	180c <gpio_msp432::setSEL(unsigned short, unsigned char)>
    19da:	4632      	mov	r2, r6
    19dc:	4629      	mov	r1, r5
    19de:	4620      	mov	r0, r4
    19e0:	f7ff ff40 	bl	1864 <gpio_msp432::setMode(unsigned short, unsigned short)>
    19e4:	bd70      	pop	{r4, r5, r6, pc}

000019e6 <std::function<void ()>::function(std::function<void ()> const&)>:
    19e6:	b538      	push	{r3, r4, r5, lr}
    19e8:	4604      	mov	r4, r0
    19ea:	2300      	movs	r3, #0
    19ec:	6003      	str	r3, [r0, #0]
    19ee:	6043      	str	r3, [r0, #4]
    19f0:	6083      	str	r3, [r0, #8]
    19f2:	60c3      	str	r3, [r0, #12]
    19f4:	688b      	ldr	r3, [r1, #8]
    19f6:	b133      	cbz	r3, 1a06 <std::function<void ()>::function(std::function<void ()> const&)+0x20>
    19f8:	460d      	mov	r5, r1
    19fa:	2202      	movs	r2, #2
    19fc:	4798      	blx	r3
    19fe:	68eb      	ldr	r3, [r5, #12]
    1a00:	60e3      	str	r3, [r4, #12]
    1a02:	68ab      	ldr	r3, [r5, #8]
    1a04:	60a3      	str	r3, [r4, #8]
    1a06:	4620      	mov	r0, r4
    1a08:	bd38      	pop	{r3, r4, r5, pc}

00001a0a <std::function<void ()>::operator=(decltype(nullptr))>:
    1a0a:	b510      	push	{r4, lr}
    1a0c:	4604      	mov	r4, r0
    1a0e:	6883      	ldr	r3, [r0, #8]
    1a10:	b12b      	cbz	r3, 1a1e <std::function<void ()>::operator=(decltype(nullptr))+0x14>
    1a12:	2203      	movs	r2, #3
    1a14:	4601      	mov	r1, r0
    1a16:	4798      	blx	r3
    1a18:	2300      	movs	r3, #0
    1a1a:	60a3      	str	r3, [r4, #8]
    1a1c:	60e3      	str	r3, [r4, #12]
    1a1e:	4620      	mov	r0, r4
    1a20:	bd10      	pop	{r4, pc}
	...

00001a24 <gpio_msp432::gpioDetachIrq(unsigned short)>:
    1a24:	b570      	push	{r4, r5, r6, lr}
    1a26:	0a0d      	lsrs	r5, r1, #8
    1a28:	1e6b      	subs	r3, r5, #1
    1a2a:	b2db      	uxtb	r3, r3
    1a2c:	2b05      	cmp	r3, #5
    1a2e:	d810      	bhi.n	1a52 <gpio_msp432::gpioDetachIrq(unsigned short)+0x2e>
    1a30:	4604      	mov	r4, r0
    1a32:	b2ce      	uxtb	r6, r1
    1a34:	2e07      	cmp	r6, #7
    1a36:	d80c      	bhi.n	1a52 <gpio_msp432::gpioDetachIrq(unsigned short)+0x2e>
    1a38:	6803      	ldr	r3, [r0, #0]
    1a3a:	69db      	ldr	r3, [r3, #28]
    1a3c:	4798      	blx	r3
    1a3e:	3d01      	subs	r5, #1
    1a40:	eb06 06c5 	add.w	r6, r6, r5, lsl #3
    1a44:	eb04 1006 	add.w	r0, r4, r6, lsl #4
    1a48:	2100      	movs	r1, #0
    1a4a:	3004      	adds	r0, #4
    1a4c:	f7ff ffdd 	bl	1a0a <std::function<void ()>::operator=(decltype(nullptr))>
    1a50:	bd70      	pop	{r4, r5, r6, pc}
    1a52:	4b04      	ldr	r3, [pc, #16]	; (1a64 <gpio_msp432::gpioDetachIrq(unsigned short)+0x40>)
    1a54:	4a04      	ldr	r2, [pc, #16]	; (1a68 <gpio_msp432::gpioDetachIrq(unsigned short)+0x44>)
    1a56:	601a      	str	r2, [r3, #0]
    1a58:	4b04      	ldr	r3, [pc, #16]	; (1a6c <gpio_msp432::gpioDetachIrq(unsigned short)+0x48>)
    1a5a:	2288      	movs	r2, #136	; 0x88
    1a5c:	601a      	str	r2, [r3, #0]
    1a5e:	f7ff fd25 	bl	14ac <yahal_assert_func()>
    1a62:	bf00      	nop
    1a64:	200000b8 	.word	0x200000b8
    1a68:	0000ec34 	.word	0x0000ec34
    1a6c:	200000d4 	.word	0x200000d4

00001a70 <std::function<void ()>::operator()() const>:
    1a70:	b508      	push	{r3, lr}
    1a72:	6883      	ldr	r3, [r0, #8]
    1a74:	b113      	cbz	r3, 1a7c <std::function<void ()>::operator()() const+0xc>
    1a76:	68c3      	ldr	r3, [r0, #12]
    1a78:	4798      	blx	r3
    1a7a:	bd08      	pop	{r3, pc}
    1a7c:	f001 fa5a 	bl	2f34 <__yahal_bad_function_call>

00001a80 <gpio_msp432::handleIrq(unsigned char, unsigned char)>:
    1a80:	b5f8      	push	{r3, r4, r5, r6, r7, lr}
    1a82:	4604      	mov	r4, r0
    1a84:	4616      	mov	r6, r2
    1a86:	1e4d      	subs	r5, r1, #1
    1a88:	00ef      	lsls	r7, r5, #3
    1a8a:	eb02 00c5 	add.w	r0, r2, r5, lsl #3
    1a8e:	eb04 1000 	add.w	r0, r4, r0, lsl #4
    1a92:	3004      	adds	r0, #4
    1a94:	f7ff ffec 	bl	1a70 <std::function<void ()>::operator()() const>
    1a98:	443c      	add	r4, r7
    1a9a:	4434      	add	r4, r6
    1a9c:	f894 33c4 	ldrb.w	r3, [r4, #964]	; 0x3c4
    1aa0:	b17b      	cbz	r3, 1ac2 <gpio_msp432::handleIrq(unsigned char, unsigned char)+0x42>
    1aa2:	4908      	ldr	r1, [pc, #32]	; (1ac4 <gpio_msp432::handleIrq(unsigned char, unsigned char)+0x44>)
    1aa4:	f851 0025 	ldr.w	r0, [r1, r5, lsl #2]
    1aa8:	00b3      	lsls	r3, r6, #2
    1aaa:	f503 7440 	add.w	r4, r3, #768	; 0x300
    1aae:	f810 2026 	ldrb.w	r2, [r0, r6, lsl #2]
    1ab2:	b2d2      	uxtb	r2, r2
    1ab4:	5502      	strb	r2, [r0, r4]
    1ab6:	f851 2025 	ldr.w	r2, [r1, r5, lsl #2]
    1aba:	f503 7360 	add.w	r3, r3, #896	; 0x380
    1abe:	2100      	movs	r1, #0
    1ac0:	54d1      	strb	r1, [r2, r3]
    1ac2:	bdf8      	pop	{r3, r4, r5, r6, r7, pc}
    1ac4:	2000000c 	.word	0x2000000c

00001ac8 <PORT1_IRQHandler>:
    1ac8:	b508      	push	{r3, lr}
    1aca:	4b06      	ldr	r3, [pc, #24]	; (1ae4 <PORT1_IRQHandler+0x1c>)
    1acc:	89db      	ldrh	r3, [r3, #14]
    1ace:	f3c3 034e 	ubfx	r3, r3, #1, #15
    1ad2:	b903      	cbnz	r3, 1ad6 <PORT1_IRQHandler+0xe>
    1ad4:	bd08      	pop	{r3, pc}
    1ad6:	1e5a      	subs	r2, r3, #1
    1ad8:	b2d2      	uxtb	r2, r2
    1ada:	2101      	movs	r1, #1
    1adc:	4802      	ldr	r0, [pc, #8]	; (1ae8 <PORT1_IRQHandler+0x20>)
    1ade:	f7ff ffcf 	bl	1a80 <gpio_msp432::handleIrq(unsigned char, unsigned char)>
    1ae2:	e7f7      	b.n	1ad4 <PORT1_IRQHandler+0xc>
    1ae4:	40004c00 	.word	0x40004c00
    1ae8:	2000016c 	.word	0x2000016c

00001aec <PORT2_IRQHandler>:
    1aec:	b508      	push	{r3, lr}
    1aee:	4b06      	ldr	r3, [pc, #24]	; (1b08 <PORT2_IRQHandler+0x1c>)
    1af0:	8bdb      	ldrh	r3, [r3, #30]
    1af2:	f3c3 034e 	ubfx	r3, r3, #1, #15
    1af6:	b903      	cbnz	r3, 1afa <PORT2_IRQHandler+0xe>
    1af8:	bd08      	pop	{r3, pc}
    1afa:	1e5a      	subs	r2, r3, #1
    1afc:	b2d2      	uxtb	r2, r2
    1afe:	2102      	movs	r1, #2
    1b00:	4802      	ldr	r0, [pc, #8]	; (1b0c <PORT2_IRQHandler+0x20>)
    1b02:	f7ff ffbd 	bl	1a80 <gpio_msp432::handleIrq(unsigned char, unsigned char)>
    1b06:	e7f7      	b.n	1af8 <PORT2_IRQHandler+0xc>
    1b08:	40004c00 	.word	0x40004c00
    1b0c:	2000016c 	.word	0x2000016c

00001b10 <PORT3_IRQHandler>:
    1b10:	b508      	push	{r3, lr}
    1b12:	4b06      	ldr	r3, [pc, #24]	; (1b2c <PORT3_IRQHandler+0x1c>)
    1b14:	8ddb      	ldrh	r3, [r3, #46]	; 0x2e
    1b16:	f3c3 034e 	ubfx	r3, r3, #1, #15
    1b1a:	b903      	cbnz	r3, 1b1e <PORT3_IRQHandler+0xe>
    1b1c:	bd08      	pop	{r3, pc}
    1b1e:	1e5a      	subs	r2, r3, #1
    1b20:	b2d2      	uxtb	r2, r2
    1b22:	2103      	movs	r1, #3
    1b24:	4802      	ldr	r0, [pc, #8]	; (1b30 <PORT3_IRQHandler+0x20>)
    1b26:	f7ff ffab 	bl	1a80 <gpio_msp432::handleIrq(unsigned char, unsigned char)>
    1b2a:	e7f7      	b.n	1b1c <PORT3_IRQHandler+0xc>
    1b2c:	40004c00 	.word	0x40004c00
    1b30:	2000016c 	.word	0x2000016c

00001b34 <PORT4_IRQHandler>:
    1b34:	b508      	push	{r3, lr}
    1b36:	4b06      	ldr	r3, [pc, #24]	; (1b50 <PORT4_IRQHandler+0x1c>)
    1b38:	8fdb      	ldrh	r3, [r3, #62]	; 0x3e
    1b3a:	f3c3 034e 	ubfx	r3, r3, #1, #15
    1b3e:	b903      	cbnz	r3, 1b42 <PORT4_IRQHandler+0xe>
    1b40:	bd08      	pop	{r3, pc}
    1b42:	1e5a      	subs	r2, r3, #1
    1b44:	b2d2      	uxtb	r2, r2
    1b46:	2104      	movs	r1, #4
    1b48:	4802      	ldr	r0, [pc, #8]	; (1b54 <PORT4_IRQHandler+0x20>)
    1b4a:	f7ff ff99 	bl	1a80 <gpio_msp432::handleIrq(unsigned char, unsigned char)>
    1b4e:	e7f7      	b.n	1b40 <PORT4_IRQHandler+0xc>
    1b50:	40004c00 	.word	0x40004c00
    1b54:	2000016c 	.word	0x2000016c

00001b58 <PORT5_IRQHandler>:
    1b58:	b508      	push	{r3, lr}
    1b5a:	4b07      	ldr	r3, [pc, #28]	; (1b78 <PORT5_IRQHandler+0x20>)
    1b5c:	f8b3 304e 	ldrh.w	r3, [r3, #78]	; 0x4e
    1b60:	f3c3 034e 	ubfx	r3, r3, #1, #15
    1b64:	b903      	cbnz	r3, 1b68 <PORT5_IRQHandler+0x10>
    1b66:	bd08      	pop	{r3, pc}
    1b68:	1e5a      	subs	r2, r3, #1
    1b6a:	b2d2      	uxtb	r2, r2
    1b6c:	2105      	movs	r1, #5
    1b6e:	4803      	ldr	r0, [pc, #12]	; (1b7c <PORT5_IRQHandler+0x24>)
    1b70:	f7ff ff86 	bl	1a80 <gpio_msp432::handleIrq(unsigned char, unsigned char)>
    1b74:	e7f7      	b.n	1b66 <PORT5_IRQHandler+0xe>
    1b76:	bf00      	nop
    1b78:	40004c00 	.word	0x40004c00
    1b7c:	2000016c 	.word	0x2000016c

00001b80 <PORT6_IRQHandler>:
    1b80:	b508      	push	{r3, lr}
    1b82:	4b07      	ldr	r3, [pc, #28]	; (1ba0 <PORT6_IRQHandler+0x20>)
    1b84:	f8b3 305e 	ldrh.w	r3, [r3, #94]	; 0x5e
    1b88:	f3c3 034e 	ubfx	r3, r3, #1, #15
    1b8c:	b903      	cbnz	r3, 1b90 <PORT6_IRQHandler+0x10>
    1b8e:	bd08      	pop	{r3, pc}
    1b90:	1e5a      	subs	r2, r3, #1
    1b92:	b2d2      	uxtb	r2, r2
    1b94:	2106      	movs	r1, #6
    1b96:	4803      	ldr	r0, [pc, #12]	; (1ba4 <PORT6_IRQHandler+0x24>)
    1b98:	f7ff ff72 	bl	1a80 <gpio_msp432::handleIrq(unsigned char, unsigned char)>
    1b9c:	e7f7      	b.n	1b8e <PORT6_IRQHandler+0xe>
    1b9e:	bf00      	nop
    1ba0:	40004c00 	.word	0x40004c00
    1ba4:	2000016c 	.word	0x2000016c

00001ba8 <std::enable_if<std::__and_<std::__not_<std::__is_tuple_like<std::_Any_data> >, std::is_move_constructible<std::_Any_data>, std::is_move_assignable<std::_Any_data> >::value, void>::type std::swap<std::_Any_data>(std::_Any_data&, std::_Any_data&)>:
    1ba8:	b082      	sub	sp, #8
    1baa:	4602      	mov	r2, r0
    1bac:	460b      	mov	r3, r1
    1bae:	46ec      	mov	ip, sp
    1bb0:	e9d0 0100 	ldrd	r0, r1, [r0]
    1bb4:	e88c 0003 	stmia.w	ip, {r0, r1}
    1bb8:	e893 0003 	ldmia.w	r3, {r0, r1}
    1bbc:	e882 0003 	stmia.w	r2, {r0, r1}
    1bc0:	e89c 0003 	ldmia.w	ip, {r0, r1}
    1bc4:	e883 0003 	stmia.w	r3, {r0, r1}
    1bc8:	b002      	add	sp, #8
    1bca:	4770      	bx	lr

00001bcc <std::function<void ()>::swap(std::function<void ()>&)>:
    1bcc:	b538      	push	{r3, r4, r5, lr}
    1bce:	4605      	mov	r5, r0
    1bd0:	460c      	mov	r4, r1
    1bd2:	f7ff ffe9 	bl	1ba8 <std::enable_if<std::__and_<std::__not_<std::__is_tuple_like<std::_Any_data> >, std::is_move_constructible<std::_Any_data>, std::is_move_assignable<std::_Any_data> >::value, void>::type std::swap<std::_Any_data>(std::_Any_data&, std::_Any_data&)>
    1bd6:	68ab      	ldr	r3, [r5, #8]
    1bd8:	68a2      	ldr	r2, [r4, #8]
    1bda:	60aa      	str	r2, [r5, #8]
    1bdc:	60a3      	str	r3, [r4, #8]
    1bde:	68eb      	ldr	r3, [r5, #12]
    1be0:	68e2      	ldr	r2, [r4, #12]
    1be2:	60ea      	str	r2, [r5, #12]
    1be4:	60e3      	str	r3, [r4, #12]
    1be6:	bd38      	pop	{r3, r4, r5, pc}

00001be8 <std::function<void ()>::operator=(std::function<void ()> const&)>:
    1be8:	b510      	push	{r4, lr}
    1bea:	b084      	sub	sp, #16
    1bec:	4604      	mov	r4, r0
    1bee:	4668      	mov	r0, sp
    1bf0:	f7ff fef9 	bl	19e6 <std::function<void ()>::function(std::function<void ()> const&)>
    1bf4:	4621      	mov	r1, r4
    1bf6:	4668      	mov	r0, sp
    1bf8:	f7ff ffe8 	bl	1bcc <std::function<void ()>::swap(std::function<void ()>&)>
    1bfc:	4668      	mov	r0, sp
    1bfe:	f7ff fd9b 	bl	1738 <std::_Function_base::~_Function_base()>
    1c02:	4620      	mov	r0, r4
    1c04:	b004      	add	sp, #16
    1c06:	bd10      	pop	{r4, pc}

00001c08 <gpio_msp432::gpioAttachIrq(unsigned short, unsigned short, std::function<void ()>)>:
    1c08:	b5f8      	push	{r3, r4, r5, r6, r7, lr}
    1c0a:	460f      	mov	r7, r1
    1c0c:	4619      	mov	r1, r3
    1c0e:	0a3d      	lsrs	r5, r7, #8
    1c10:	1e6b      	subs	r3, r5, #1
    1c12:	b2db      	uxtb	r3, r3
    1c14:	2b05      	cmp	r3, #5
    1c16:	d811      	bhi.n	1c3c <gpio_msp432::gpioAttachIrq(unsigned short, unsigned short, std::function<void ()>)+0x34>
    1c18:	4606      	mov	r6, r0
    1c1a:	b2f8      	uxtb	r0, r7
    1c1c:	2807      	cmp	r0, #7
    1c1e:	d80d      	bhi.n	1c3c <gpio_msp432::gpioAttachIrq(unsigned short, unsigned short, std::function<void ()>)+0x34>
    1c20:	2a02      	cmp	r2, #2
    1c22:	d02c      	beq.n	1c7e <gpio_msp432::gpioAttachIrq(unsigned short, unsigned short, std::function<void ()>)+0x76>
    1c24:	2a03      	cmp	r2, #3
    1c26:	d03c      	beq.n	1ca2 <gpio_msp432::gpioAttachIrq(unsigned short, unsigned short, std::function<void ()>)+0x9a>
    1c28:	2a01      	cmp	r2, #1
    1c2a:	d00f      	beq.n	1c4c <gpio_msp432::gpioAttachIrq(unsigned short, unsigned short, std::function<void ()>)+0x44>
    1c2c:	4b30      	ldr	r3, [pc, #192]	; (1cf0 <gpio_msp432::gpioAttachIrq(unsigned short, unsigned short, std::function<void ()>)+0xe8>)
    1c2e:	4a31      	ldr	r2, [pc, #196]	; (1cf4 <gpio_msp432::gpioAttachIrq(unsigned short, unsigned short, std::function<void ()>)+0xec>)
    1c30:	601a      	str	r2, [r3, #0]
    1c32:	4b31      	ldr	r3, [pc, #196]	; (1cf8 <gpio_msp432::gpioAttachIrq(unsigned short, unsigned short, std::function<void ()>)+0xf0>)
    1c34:	2279      	movs	r2, #121	; 0x79
    1c36:	601a      	str	r2, [r3, #0]
    1c38:	f7ff fc38 	bl	14ac <yahal_assert_func()>
    1c3c:	4b2c      	ldr	r3, [pc, #176]	; (1cf0 <gpio_msp432::gpioAttachIrq(unsigned short, unsigned short, std::function<void ()>)+0xe8>)
    1c3e:	4a2d      	ldr	r2, [pc, #180]	; (1cf4 <gpio_msp432::gpioAttachIrq(unsigned short, unsigned short, std::function<void ()>)+0xec>)
    1c40:	601a      	str	r2, [r3, #0]
    1c42:	4b2d      	ldr	r3, [pc, #180]	; (1cf8 <gpio_msp432::gpioAttachIrq(unsigned short, unsigned short, std::function<void ()>)+0xf0>)
    1c44:	2267      	movs	r2, #103	; 0x67
    1c46:	601a      	str	r2, [r3, #0]
    1c48:	f7ff fc30 	bl	14ac <yahal_assert_func()>
    1c4c:	1e6b      	subs	r3, r5, #1
    1c4e:	4a2b      	ldr	r2, [pc, #172]	; (1cfc <gpio_msp432::gpioAttachIrq(unsigned short, unsigned short, std::function<void ()>)+0xf4>)
    1c50:	f852 c023 	ldr.w	ip, [r2, r3, lsl #2]
    1c54:	0082      	lsls	r2, r0, #2
    1c56:	f502 7240 	add.w	r2, r2, #768	; 0x300
    1c5a:	2400      	movs	r4, #0
    1c5c:	f80c 4002 	strb.w	r4, [ip, r2]
    1c60:	eb06 03c3 	add.w	r3, r6, r3, lsl #3
    1c64:	4403      	add	r3, r0
    1c66:	f883 43c4 	strb.w	r4, [r3, #964]	; 0x3c4
    1c6a:	3d01      	subs	r5, #1
    1c6c:	eb00 00c5 	add.w	r0, r0, r5, lsl #3
    1c70:	eb06 1000 	add.w	r0, r6, r0, lsl #4
    1c74:	3004      	adds	r0, #4
    1c76:	f7ff ffb7 	bl	1be8 <std::function<void ()>::operator=(std::function<void ()> const&)>
    1c7a:	2300      	movs	r3, #0
    1c7c:	e02f      	b.n	1cde <gpio_msp432::gpioAttachIrq(unsigned short, unsigned short, std::function<void ()>)+0xd6>
    1c7e:	1e6b      	subs	r3, r5, #1
    1c80:	4a1e      	ldr	r2, [pc, #120]	; (1cfc <gpio_msp432::gpioAttachIrq(unsigned short, unsigned short, std::function<void ()>)+0xf4>)
    1c82:	f852 4023 	ldr.w	r4, [r2, r3, lsl #2]
    1c86:	0082      	lsls	r2, r0, #2
    1c88:	f502 7240 	add.w	r2, r2, #768	; 0x300
    1c8c:	f04f 0c01 	mov.w	ip, #1
    1c90:	f804 c002 	strb.w	ip, [r4, r2]
    1c94:	eb06 03c3 	add.w	r3, r6, r3, lsl #3
    1c98:	4403      	add	r3, r0
    1c9a:	2200      	movs	r2, #0
    1c9c:	f883 23c4 	strb.w	r2, [r3, #964]	; 0x3c4
    1ca0:	e7e3      	b.n	1c6a <gpio_msp432::gpioAttachIrq(unsigned short, unsigned short, std::function<void ()>)+0x62>
    1ca2:	1e6b      	subs	r3, r5, #1
    1ca4:	4a15      	ldr	r2, [pc, #84]	; (1cfc <gpio_msp432::gpioAttachIrq(unsigned short, unsigned short, std::function<void ()>)+0xf4>)
    1ca6:	f852 c023 	ldr.w	ip, [r2, r3, lsl #2]
    1caa:	0082      	lsls	r2, r0, #2
    1cac:	f502 7240 	add.w	r2, r2, #768	; 0x300
    1cb0:	f81c 4020 	ldrb.w	r4, [ip, r0, lsl #2]
    1cb4:	b2e4      	uxtb	r4, r4
    1cb6:	f80c 4002 	strb.w	r4, [ip, r2]
    1cba:	eb06 03c3 	add.w	r3, r6, r3, lsl #3
    1cbe:	4403      	add	r3, r0
    1cc0:	2201      	movs	r2, #1
    1cc2:	f883 23c4 	strb.w	r2, [r3, #964]	; 0x3c4
    1cc6:	e7d0      	b.n	1c6a <gpio_msp432::gpioAttachIrq(unsigned short, unsigned short, std::function<void ()>)+0x62>
    1cc8:	4a0c      	ldr	r2, [pc, #48]	; (1cfc <gpio_msp432::gpioAttachIrq(unsigned short, unsigned short, std::function<void ()>)+0xf4>)
    1cca:	f852 4025 	ldr.w	r4, [r2, r5, lsl #2]
    1cce:	009a      	lsls	r2, r3, #2
    1cd0:	f502 7260 	add.w	r2, r2, #896	; 0x380
    1cd4:	f04f 0c00 	mov.w	ip, #0
    1cd8:	f804 c002 	strb.w	ip, [r4, r2]
    1cdc:	3301      	adds	r3, #1
    1cde:	2b07      	cmp	r3, #7
    1ce0:	d9f2      	bls.n	1cc8 <gpio_msp432::gpioAttachIrq(unsigned short, unsigned short, std::function<void ()>)+0xc0>
    1ce2:	6833      	ldr	r3, [r6, #0]
    1ce4:	699b      	ldr	r3, [r3, #24]
    1ce6:	4639      	mov	r1, r7
    1ce8:	4630      	mov	r0, r6
    1cea:	4798      	blx	r3
    1cec:	bdf8      	pop	{r3, r4, r5, r6, r7, pc}
    1cee:	bf00      	nop
    1cf0:	200000b8 	.word	0x200000b8
    1cf4:	0000ec34 	.word	0x0000ec34
    1cf8:	200000d4 	.word	0x200000d4
    1cfc:	2000000c 	.word	0x2000000c

00001d00 <_GLOBAL__sub_I_port_base>:
    1d00:	b508      	push	{r3, lr}
    1d02:	f64f 71ff 	movw	r1, #65535	; 0xffff
    1d06:	2001      	movs	r0, #1
    1d08:	f7ff fd68 	bl	17dc <__static_initialization_and_destruction_0(int, int)>
    1d0c:	bd08      	pop	{r3, pc}
	...

00001d10 <__NVIC_EnableIRQ>:
    1d10:	2800      	cmp	r0, #0
    1d12:	db07      	blt.n	1d24 <__NVIC_EnableIRQ+0x14>
    1d14:	f000 021f 	and.w	r2, r0, #31
    1d18:	0940      	lsrs	r0, r0, #5
    1d1a:	2301      	movs	r3, #1
    1d1c:	4093      	lsls	r3, r2
    1d1e:	4a02      	ldr	r2, [pc, #8]	; (1d28 <__NVIC_EnableIRQ+0x18>)
    1d20:	f842 3020 	str.w	r3, [r2, r0, lsl #2]
    1d24:	4770      	bx	lr
    1d26:	bf00      	nop
    1d28:	e000e100 	.word	0xe000e100

00001d2c <yahal_assert_func()>:
    1d2c:	e7fe      	b.n	1d2c <yahal_assert_func()>
	...

00001d30 <spi_msp432::~spi_msp432()>:
    1d30:	4b06      	ldr	r3, [pc, #24]	; (1d4c <spi_msp432::~spi_msp432()+0x1c>)
    1d32:	6003      	str	r3, [r0, #0]
    1d34:	6903      	ldr	r3, [r0, #16]
    1d36:	881b      	ldrh	r3, [r3, #0]
    1d38:	f013 0f01 	tst.w	r3, #1
    1d3c:	d1fa      	bne.n	1d34 <spi_msp432::~spi_msp432()+0x4>
    1d3e:	6883      	ldr	r3, [r0, #8]
    1d40:	2201      	movs	r2, #1
    1d42:	801a      	strh	r2, [r3, #0]
    1d44:	4b02      	ldr	r3, [pc, #8]	; (1d50 <spi_msp432::~spi_msp432()+0x20>)
    1d46:	6003      	str	r3, [r0, #0]
    1d48:	4770      	bx	lr
    1d4a:	bf00      	nop
    1d4c:	0000ed6c 	.word	0x0000ed6c
    1d50:	0000ed40 	.word	0x0000ed40

00001d54 <spi_msp432::~spi_msp432()>:
    1d54:	b510      	push	{r4, lr}
    1d56:	4604      	mov	r4, r0
    1d58:	f7ff ffea 	bl	1d30 <spi_msp432::~spi_msp432()>
    1d5c:	214c      	movs	r1, #76	; 0x4c
    1d5e:	4620      	mov	r0, r4
    1d60:	f002 ff0d 	bl	4b7e <operator delete(void*, unsigned int)>
    1d64:	4620      	mov	r0, r4
    1d66:	bd10      	pop	{r4, pc}

00001d68 <__static_initialization_and_destruction_0(int, int)>:
    1d68:	2801      	cmp	r0, #1
    1d6a:	d000      	beq.n	1d6e <__static_initialization_and_destruction_0(int, int)+0x6>
    1d6c:	4770      	bx	lr
    1d6e:	b508      	push	{r3, lr}
    1d70:	f64f 73ff 	movw	r3, #65535	; 0xffff
    1d74:	4299      	cmp	r1, r3
    1d76:	d000      	beq.n	1d7a <__static_initialization_and_destruction_0(int, int)+0x12>
    1d78:	bd08      	pop	{r3, pc}
    1d7a:	4b0b      	ldr	r3, [pc, #44]	; (1da8 <__static_initialization_and_destruction_0(int, int)+0x40>)
    1d7c:	681a      	ldr	r2, [r3, #0]
    1d7e:	4b0b      	ldr	r3, [pc, #44]	; (1dac <__static_initialization_and_destruction_0(int, int)+0x44>)
    1d80:	601a      	str	r2, [r3, #0]
    1d82:	2107      	movs	r1, #7
    1d84:	4b0a      	ldr	r3, [pc, #40]	; (1db0 <__static_initialization_and_destruction_0(int, int)+0x48>)
    1d86:	e006      	b.n	1d96 <__static_initialization_and_destruction_0(int, int)+0x2e>
    1d88:	2200      	movs	r2, #0
    1d8a:	601a      	str	r2, [r3, #0]
    1d8c:	605a      	str	r2, [r3, #4]
    1d8e:	609a      	str	r2, [r3, #8]
    1d90:	60da      	str	r2, [r3, #12]
    1d92:	3901      	subs	r1, #1
    1d94:	3310      	adds	r3, #16
    1d96:	2900      	cmp	r1, #0
    1d98:	daf6      	bge.n	1d88 <__static_initialization_and_destruction_0(int, int)+0x20>
    1d9a:	4a06      	ldr	r2, [pc, #24]	; (1db4 <__static_initialization_and_destruction_0(int, int)+0x4c>)
    1d9c:	4906      	ldr	r1, [pc, #24]	; (1db8 <__static_initialization_and_destruction_0(int, int)+0x50>)
    1d9e:	2000      	movs	r0, #0
    1da0:	f002 fee8 	bl	4b74 <__aeabi_atexit>
    1da4:	e7e8      	b.n	1d78 <__static_initialization_and_destruction_0(int, int)+0x10>
    1da6:	bf00      	nop
    1da8:	20000038 	.word	0x20000038
    1dac:	200000a8 	.word	0x200000a8
    1db0:	200000ec 	.word	0x200000ec
    1db4:	20000000 	.word	0x20000000
    1db8:	00001dbd 	.word	0x00001dbd

00001dbc <__tcf_0>:
    1dbc:	b510      	push	{r4, lr}
    1dbe:	4c05      	ldr	r4, [pc, #20]	; (1dd4 <__tcf_0+0x18>)
    1dc0:	e003      	b.n	1dca <__tcf_0+0xe>
    1dc2:	3c10      	subs	r4, #16
    1dc4:	4620      	mov	r0, r4
    1dc6:	f7ff fcb7 	bl	1738 <std::_Function_base::~_Function_base()>
    1dca:	4b03      	ldr	r3, [pc, #12]	; (1dd8 <__tcf_0+0x1c>)
    1dcc:	429c      	cmp	r4, r3
    1dce:	d1f8      	bne.n	1dc2 <__tcf_0+0x6>
    1dd0:	bd10      	pop	{r4, pc}
    1dd2:	bf00      	nop
    1dd4:	2000016c 	.word	0x2000016c
    1dd8:	200000ec 	.word	0x200000ec

00001ddc <spi_msp432::spi_msp432(EUSCI_B_SPI_Type*, gpio_pin&, bool, unsigned short)>:
    1ddc:	b510      	push	{r4, lr}
    1dde:	4c3b      	ldr	r4, [pc, #236]	; (1ecc <spi_msp432::spi_msp432(EUSCI_B_SPI_Type*, gpio_pin&, bool, unsigned short)+0xf0>)
    1de0:	6004      	str	r4, [r0, #0]
    1de2:	4c3b      	ldr	r4, [pc, #236]	; (1ed0 <spi_msp432::spi_msp432(EUSCI_B_SPI_Type*, gpio_pin&, bool, unsigned short)+0xf4>)
    1de4:	6004      	str	r4, [r0, #0]
    1de6:	f04f 0c00 	mov.w	ip, #0
    1dea:	f880 c004 	strb.w	ip, [r0, #4]
    1dee:	7143      	strb	r3, [r0, #5]
    1df0:	2301      	movs	r3, #1
    1df2:	7183      	strb	r3, [r0, #6]
    1df4:	6081      	str	r1, [r0, #8]
    1df6:	1d8b      	adds	r3, r1, #6
    1df8:	60c3      	str	r3, [r0, #12]
    1dfa:	f101 0308 	add.w	r3, r1, #8
    1dfe:	6103      	str	r3, [r0, #16]
    1e00:	f101 030c 	add.w	r3, r1, #12
    1e04:	6143      	str	r3, [r0, #20]
    1e06:	f101 030e 	add.w	r3, r1, #14
    1e0a:	6183      	str	r3, [r0, #24]
    1e0c:	f101 032a 	add.w	r3, r1, #42	; 0x2a
    1e10:	61c3      	str	r3, [r0, #28]
    1e12:	f101 032c 	add.w	r3, r1, #44	; 0x2c
    1e16:	6203      	str	r3, [r0, #32]
    1e18:	f101 032e 	add.w	r3, r1, #46	; 0x2e
    1e1c:	6243      	str	r3, [r0, #36]	; 0x24
    1e1e:	4b2d      	ldr	r3, [pc, #180]	; (1ed4 <spi_msp432::spi_msp432(EUSCI_B_SPI_Type*, gpio_pin&, bool, unsigned short)+0xf8>)
    1e20:	6283      	str	r3, [r0, #40]	; 0x28
    1e22:	f8a0 c02c 	strh.w	ip, [r0, #44]	; 0x2c
    1e26:	6303      	str	r3, [r0, #48]	; 0x30
    1e28:	f8a0 c034 	strh.w	ip, [r0, #52]	; 0x34
    1e2c:	6383      	str	r3, [r0, #56]	; 0x38
    1e2e:	f8a0 c03c 	strh.w	ip, [r0, #60]	; 0x3c
    1e32:	f8bd 3008 	ldrh.w	r3, [sp, #8]
    1e36:	f8a0 3040 	strh.w	r3, [r0, #64]	; 0x40
    1e3a:	6442      	str	r2, [r0, #68]	; 0x44
    1e3c:	4b26      	ldr	r3, [pc, #152]	; (1ed8 <spi_msp432::spi_msp432(EUSCI_B_SPI_Type*, gpio_pin&, bool, unsigned short)+0xfc>)
    1e3e:	4299      	cmp	r1, r3
    1e40:	d015      	beq.n	1e6e <spi_msp432::spi_msp432(EUSCI_B_SPI_Type*, gpio_pin&, bool, unsigned short)+0x92>
    1e42:	4b26      	ldr	r3, [pc, #152]	; (1edc <spi_msp432::spi_msp432(EUSCI_B_SPI_Type*, gpio_pin&, bool, unsigned short)+0x100>)
    1e44:	4299      	cmp	r1, r3
    1e46:	d01f      	beq.n	1e88 <spi_msp432::spi_msp432(EUSCI_B_SPI_Type*, gpio_pin&, bool, unsigned short)+0xac>
    1e48:	4b25      	ldr	r3, [pc, #148]	; (1ee0 <spi_msp432::spi_msp432(EUSCI_B_SPI_Type*, gpio_pin&, bool, unsigned short)+0x104>)
    1e4a:	4299      	cmp	r1, r3
    1e4c:	d029      	beq.n	1ea2 <spi_msp432::spi_msp432(EUSCI_B_SPI_Type*, gpio_pin&, bool, unsigned short)+0xc6>
    1e4e:	4b25      	ldr	r3, [pc, #148]	; (1ee4 <spi_msp432::spi_msp432(EUSCI_B_SPI_Type*, gpio_pin&, bool, unsigned short)+0x108>)
    1e50:	4299      	cmp	r1, r3
    1e52:	d133      	bne.n	1ebc <spi_msp432::spi_msp432(EUSCI_B_SPI_Type*, gpio_pin&, bool, unsigned short)+0xe0>
    1e54:	f640 2301 	movw	r3, #2561	; 0xa01
    1e58:	8583      	strh	r3, [r0, #44]	; 0x2c
    1e5a:	f640 2303 	movw	r3, #2563	; 0xa03
    1e5e:	8683      	strh	r3, [r0, #52]	; 0x34
    1e60:	f640 2302 	movw	r3, #2562	; 0xa02
    1e64:	8783      	strh	r3, [r0, #60]	; 0x3c
    1e66:	2317      	movs	r3, #23
    1e68:	f880 3048 	strb.w	r3, [r0, #72]	; 0x48
    1e6c:	bd10      	pop	{r4, pc}
    1e6e:	f240 1305 	movw	r3, #261	; 0x105
    1e72:	8583      	strh	r3, [r0, #44]	; 0x2c
    1e74:	f240 1307 	movw	r3, #263	; 0x107
    1e78:	8683      	strh	r3, [r0, #52]	; 0x34
    1e7a:	f44f 7383 	mov.w	r3, #262	; 0x106
    1e7e:	8783      	strh	r3, [r0, #60]	; 0x3c
    1e80:	2314      	movs	r3, #20
    1e82:	f880 3048 	strb.w	r3, [r0, #72]	; 0x48
    1e86:	e7f1      	b.n	1e6c <spi_msp432::spi_msp432(EUSCI_B_SPI_Type*, gpio_pin&, bool, unsigned short)+0x90>
    1e88:	f240 6303 	movw	r3, #1539	; 0x603
    1e8c:	8583      	strh	r3, [r0, #44]	; 0x2c
    1e8e:	f240 6305 	movw	r3, #1541	; 0x605
    1e92:	8683      	strh	r3, [r0, #52]	; 0x34
    1e94:	f240 6304 	movw	r3, #1540	; 0x604
    1e98:	8783      	strh	r3, [r0, #60]	; 0x3c
    1e9a:	2315      	movs	r3, #21
    1e9c:	f880 3048 	strb.w	r3, [r0, #72]	; 0x48
    1ea0:	e7e4      	b.n	1e6c <spi_msp432::spi_msp432(EUSCI_B_SPI_Type*, gpio_pin&, bool, unsigned short)+0x90>
    1ea2:	f240 3305 	movw	r3, #773	; 0x305
    1ea6:	8583      	strh	r3, [r0, #44]	; 0x2c
    1ea8:	f240 3307 	movw	r3, #775	; 0x307
    1eac:	8683      	strh	r3, [r0, #52]	; 0x34
    1eae:	f240 3306 	movw	r3, #774	; 0x306
    1eb2:	8783      	strh	r3, [r0, #60]	; 0x3c
    1eb4:	2316      	movs	r3, #22
    1eb6:	f880 3048 	strb.w	r3, [r0, #72]	; 0x48
    1eba:	e7d7      	b.n	1e6c <spi_msp432::spi_msp432(EUSCI_B_SPI_Type*, gpio_pin&, bool, unsigned short)+0x90>
    1ebc:	4b0a      	ldr	r3, [pc, #40]	; (1ee8 <spi_msp432::spi_msp432(EUSCI_B_SPI_Type*, gpio_pin&, bool, unsigned short)+0x10c>)
    1ebe:	4a0b      	ldr	r2, [pc, #44]	; (1eec <spi_msp432::spi_msp432(EUSCI_B_SPI_Type*, gpio_pin&, bool, unsigned short)+0x110>)
    1ec0:	601a      	str	r2, [r3, #0]
    1ec2:	4b0b      	ldr	r3, [pc, #44]	; (1ef0 <spi_msp432::spi_msp432(EUSCI_B_SPI_Type*, gpio_pin&, bool, unsigned short)+0x114>)
    1ec4:	2268      	movs	r2, #104	; 0x68
    1ec6:	601a      	str	r2, [r3, #0]
    1ec8:	f7ff ff30 	bl	1d2c <yahal_assert_func()>
    1ecc:	0000ed40 	.word	0x0000ed40
    1ed0:	0000ed6c 	.word	0x0000ed6c
    1ed4:	2000016c 	.word	0x2000016c
    1ed8:	40002000 	.word	0x40002000
    1edc:	40002400 	.word	0x40002400
    1ee0:	40002800 	.word	0x40002800
    1ee4:	40002c00 	.word	0x40002c00
    1ee8:	200000bc 	.word	0x200000bc
    1eec:	0000ece8 	.word	0x0000ece8
    1ef0:	200000d8 	.word	0x200000d8

00001ef4 <spi_msp432::initialize()>:
    1ef4:	b538      	push	{r3, r4, r5, lr}
    1ef6:	4604      	mov	r4, r0
    1ef8:	2201      	movs	r2, #1
    1efa:	8d81      	ldrh	r1, [r0, #44]	; 0x2c
    1efc:	482e      	ldr	r0, [pc, #184]	; (1fb8 <spi_msp432::initialize()+0xc4>)
    1efe:	f7ff fc85 	bl	180c <gpio_msp432::setSEL(unsigned short, unsigned char)>
    1f02:	7963      	ldrb	r3, [r4, #5]
    1f04:	2b00      	cmp	r3, #0
    1f06:	d04e      	beq.n	1fa6 <spi_msp432::initialize()+0xb2>
    1f08:	2202      	movs	r2, #2
    1f0a:	4d2b      	ldr	r5, [pc, #172]	; (1fb8 <spi_msp432::initialize()+0xc4>)
    1f0c:	8da1      	ldrh	r1, [r4, #44]	; 0x2c
    1f0e:	4628      	mov	r0, r5
    1f10:	f7ff fca8 	bl	1864 <gpio_msp432::setMode(unsigned short, unsigned short)>
    1f14:	2201      	movs	r2, #1
    1f16:	8ea1      	ldrh	r1, [r4, #52]	; 0x34
    1f18:	4628      	mov	r0, r5
    1f1a:	f7ff fc77 	bl	180c <gpio_msp432::setSEL(unsigned short, unsigned char)>
    1f1e:	7963      	ldrb	r3, [r4, #5]
    1f20:	2b00      	cmp	r3, #0
    1f22:	d042      	beq.n	1faa <spi_msp432::initialize()+0xb6>
    1f24:	2201      	movs	r2, #1
    1f26:	4d24      	ldr	r5, [pc, #144]	; (1fb8 <spi_msp432::initialize()+0xc4>)
    1f28:	8ea1      	ldrh	r1, [r4, #52]	; 0x34
    1f2a:	4628      	mov	r0, r5
    1f2c:	f7ff fc9a 	bl	1864 <gpio_msp432::setMode(unsigned short, unsigned short)>
    1f30:	2201      	movs	r2, #1
    1f32:	8fa1      	ldrh	r1, [r4, #60]	; 0x3c
    1f34:	4628      	mov	r0, r5
    1f36:	f7ff fc69 	bl	180c <gpio_msp432::setSEL(unsigned short, unsigned char)>
    1f3a:	7963      	ldrb	r3, [r4, #5]
    1f3c:	2b00      	cmp	r3, #0
    1f3e:	d036      	beq.n	1fae <spi_msp432::initialize()+0xba>
    1f40:	2202      	movs	r2, #2
    1f42:	8fa1      	ldrh	r1, [r4, #60]	; 0x3c
    1f44:	481c      	ldr	r0, [pc, #112]	; (1fb8 <spi_msp432::initialize()+0xc4>)
    1f46:	f7ff fc8d 	bl	1864 <gpio_msp432::setMode(unsigned short, unsigned short)>
    1f4a:	6c63      	ldr	r3, [r4, #68]	; 0x44
    1f4c:	7962      	ldrb	r2, [r4, #5]
    1f4e:	2a00      	cmp	r2, #0
    1f50:	d02f      	beq.n	1fb2 <spi_msp432::initialize()+0xbe>
    1f52:	f44f 7281 	mov.w	r2, #258	; 0x102
    1f56:	6818      	ldr	r0, [r3, #0]
    1f58:	6801      	ldr	r1, [r0, #0]
    1f5a:	680d      	ldr	r5, [r1, #0]
    1f5c:	8899      	ldrh	r1, [r3, #4]
    1f5e:	47a8      	blx	r5
    1f60:	68a3      	ldr	r3, [r4, #8]
    1f62:	2201      	movs	r2, #1
    1f64:	801a      	strh	r2, [r3, #0]
    1f66:	7963      	ldrb	r3, [r4, #5]
    1f68:	b12b      	cbz	r3, 1f76 <spi_msp432::initialize()+0x82>
    1f6a:	f8b4 3040 	ldrh.w	r3, [r4, #64]	; 0x40
    1f6e:	f443 6300 	orr.w	r3, r3, #2048	; 0x800
    1f72:	f8a4 3040 	strh.w	r3, [r4, #64]	; 0x40
    1f76:	f8b4 3040 	ldrh.w	r3, [r4, #64]	; 0x40
    1f7a:	f443 7381 	orr.w	r3, r3, #258	; 0x102
    1f7e:	f8a4 3040 	strh.w	r3, [r4, #64]	; 0x40
    1f82:	68a1      	ldr	r1, [r4, #8]
    1f84:	880a      	ldrh	r2, [r1, #0]
    1f86:	b292      	uxth	r2, r2
    1f88:	4313      	orrs	r3, r2
    1f8a:	800b      	strh	r3, [r1, #0]
    1f8c:	69e3      	ldr	r3, [r4, #28]
    1f8e:	2200      	movs	r2, #0
    1f90:	801a      	strh	r2, [r3, #0]
    1f92:	68a2      	ldr	r2, [r4, #8]
    1f94:	8813      	ldrh	r3, [r2, #0]
    1f96:	b29b      	uxth	r3, r3
    1f98:	f023 0301 	bic.w	r3, r3, #1
    1f9c:	b29b      	uxth	r3, r3
    1f9e:	8013      	strh	r3, [r2, #0]
    1fa0:	2301      	movs	r3, #1
    1fa2:	7123      	strb	r3, [r4, #4]
    1fa4:	bd38      	pop	{r3, r4, r5, pc}
    1fa6:	2201      	movs	r2, #1
    1fa8:	e7af      	b.n	1f0a <spi_msp432::initialize()+0x16>
    1faa:	2202      	movs	r2, #2
    1fac:	e7bb      	b.n	1f26 <spi_msp432::initialize()+0x32>
    1fae:	2201      	movs	r2, #1
    1fb0:	e7c7      	b.n	1f42 <spi_msp432::initialize()+0x4e>
    1fb2:	2201      	movs	r2, #1
    1fb4:	e7cf      	b.n	1f56 <spi_msp432::initialize()+0x62>
    1fb6:	bf00      	nop
    1fb8:	2000016c 	.word	0x2000016c

00001fbc <spi_msp432::spiTxRx(unsigned char const*, unsigned char*, unsigned short)>:
    1fbc:	e92d 41f0 	stmdb	sp!, {r4, r5, r6, r7, r8, lr}
    1fc0:	4604      	mov	r4, r0
    1fc2:	460f      	mov	r7, r1
    1fc4:	4616      	mov	r6, r2
    1fc6:	461d      	mov	r5, r3
    1fc8:	7903      	ldrb	r3, [r0, #4]
    1fca:	b163      	cbz	r3, 1fe6 <spi_msp432::spiTxRx(unsigned char const*, unsigned char*, unsigned short)+0x2a>
    1fcc:	7963      	ldrb	r3, [r4, #5]
    1fce:	b16b      	cbz	r3, 1fec <spi_msp432::spiTxRx(unsigned char const*, unsigned char*, unsigned short)+0x30>
    1fd0:	79a3      	ldrb	r3, [r4, #6]
    1fd2:	b19b      	cbz	r3, 1ffc <spi_msp432::spiTxRx(unsigned char const*, unsigned char*, unsigned short)+0x40>
    1fd4:	6c63      	ldr	r3, [r4, #68]	; 0x44
    1fd6:	6818      	ldr	r0, [r3, #0]
    1fd8:	6802      	ldr	r2, [r0, #0]
    1fda:	f8d2 8008 	ldr.w	r8, [r2, #8]
    1fde:	2200      	movs	r2, #0
    1fe0:	8899      	ldrh	r1, [r3, #4]
    1fe2:	47c0      	blx	r8
    1fe4:	e00a      	b.n	1ffc <spi_msp432::spiTxRx(unsigned char const*, unsigned char*, unsigned short)+0x40>
    1fe6:	f7ff ff85 	bl	1ef4 <spi_msp432::initialize()>
    1fea:	e7ef      	b.n	1fcc <spi_msp432::spiTxRx(unsigned char const*, unsigned char*, unsigned short)+0x10>
    1fec:	6c63      	ldr	r3, [r4, #68]	; 0x44
    1fee:	6818      	ldr	r0, [r3, #0]
    1ff0:	6802      	ldr	r2, [r0, #0]
    1ff2:	6852      	ldr	r2, [r2, #4]
    1ff4:	8899      	ldrh	r1, [r3, #4]
    1ff6:	4790      	blx	r2
    1ff8:	2800      	cmp	r0, #0
    1ffa:	d1f7      	bne.n	1fec <spi_msp432::spiTxRx(unsigned char const*, unsigned char*, unsigned short)+0x30>
    1ffc:	6a22      	ldr	r2, [r4, #32]
    1ffe:	2300      	movs	r3, #0
    2000:	8013      	strh	r3, [r2, #0]
    2002:	6922      	ldr	r2, [r4, #16]
    2004:	8013      	strh	r3, [r2, #0]
    2006:	6962      	ldr	r2, [r4, #20]
    2008:	8812      	ldrh	r2, [r2, #0]
    200a:	7032      	strb	r2, [r6, #0]
    200c:	e011      	b.n	2032 <spi_msp432::spiTxRx(unsigned char const*, unsigned char*, unsigned short)+0x76>
    200e:	461a      	mov	r2, r3
    2010:	5cf8      	ldrb	r0, [r7, r3]
    2012:	69a1      	ldr	r1, [r4, #24]
    2014:	8008      	strh	r0, [r1, #0]
    2016:	6a20      	ldr	r0, [r4, #32]
    2018:	8800      	ldrh	r0, [r0, #0]
    201a:	f010 0f01 	tst.w	r0, #1
    201e:	d0fa      	beq.n	2016 <spi_msp432::spiTxRx(unsigned char const*, unsigned char*, unsigned short)+0x5a>
    2020:	6961      	ldr	r1, [r4, #20]
    2022:	8809      	ldrh	r1, [r1, #0]
    2024:	54b1      	strb	r1, [r6, r2]
    2026:	6a20      	ldr	r0, [r4, #32]
    2028:	8800      	ldrh	r0, [r0, #0]
    202a:	f010 0f02 	tst.w	r0, #2
    202e:	d0fa      	beq.n	2026 <spi_msp432::spiTxRx(unsigned char const*, unsigned char*, unsigned short)+0x6a>
    2030:	3301      	adds	r3, #1
    2032:	429d      	cmp	r5, r3
    2034:	dceb      	bgt.n	200e <spi_msp432::spiTxRx(unsigned char const*, unsigned char*, unsigned short)+0x52>
    2036:	7963      	ldrb	r3, [r4, #5]
    2038:	b14b      	cbz	r3, 204e <spi_msp432::spiTxRx(unsigned char const*, unsigned char*, unsigned short)+0x92>
    203a:	79a3      	ldrb	r3, [r4, #6]
    203c:	b17b      	cbz	r3, 205e <spi_msp432::spiTxRx(unsigned char const*, unsigned char*, unsigned short)+0xa2>
    203e:	6c63      	ldr	r3, [r4, #68]	; 0x44
    2040:	6818      	ldr	r0, [r3, #0]
    2042:	6802      	ldr	r2, [r0, #0]
    2044:	6894      	ldr	r4, [r2, #8]
    2046:	2201      	movs	r2, #1
    2048:	8899      	ldrh	r1, [r3, #4]
    204a:	47a0      	blx	r4
    204c:	e007      	b.n	205e <spi_msp432::spiTxRx(unsigned char const*, unsigned char*, unsigned short)+0xa2>
    204e:	6c63      	ldr	r3, [r4, #68]	; 0x44
    2050:	6818      	ldr	r0, [r3, #0]
    2052:	6802      	ldr	r2, [r0, #0]
    2054:	6852      	ldr	r2, [r2, #4]
    2056:	8899      	ldrh	r1, [r3, #4]
    2058:	4790      	blx	r2
    205a:	2800      	cmp	r0, #0
    205c:	d0f7      	beq.n	204e <spi_msp432::spiTxRx(unsigned char const*, unsigned char*, unsigned short)+0x92>
    205e:	b228      	sxth	r0, r5
    2060:	e8bd 81f0 	ldmia.w	sp!, {r4, r5, r6, r7, r8, pc}

00002064 <spi_msp432::spiTx(unsigned char const*, unsigned short)>:
    2064:	b5f8      	push	{r3, r4, r5, r6, r7, lr}
    2066:	4604      	mov	r4, r0
    2068:	460e      	mov	r6, r1
    206a:	4615      	mov	r5, r2
    206c:	7903      	ldrb	r3, [r0, #4]
    206e:	b15b      	cbz	r3, 2088 <spi_msp432::spiTx(unsigned char const*, unsigned short)+0x24>
    2070:	7963      	ldrb	r3, [r4, #5]
    2072:	b163      	cbz	r3, 208e <spi_msp432::spiTx(unsigned char const*, unsigned short)+0x2a>
    2074:	79a3      	ldrb	r3, [r4, #6]
    2076:	b193      	cbz	r3, 209e <spi_msp432::spiTx(unsigned char const*, unsigned short)+0x3a>
    2078:	6c63      	ldr	r3, [r4, #68]	; 0x44
    207a:	6818      	ldr	r0, [r3, #0]
    207c:	6802      	ldr	r2, [r0, #0]
    207e:	6897      	ldr	r7, [r2, #8]
    2080:	2200      	movs	r2, #0
    2082:	8899      	ldrh	r1, [r3, #4]
    2084:	47b8      	blx	r7
    2086:	e00a      	b.n	209e <spi_msp432::spiTx(unsigned char const*, unsigned short)+0x3a>
    2088:	f7ff ff34 	bl	1ef4 <spi_msp432::initialize()>
    208c:	e7f0      	b.n	2070 <spi_msp432::spiTx(unsigned char const*, unsigned short)+0xc>
    208e:	6c63      	ldr	r3, [r4, #68]	; 0x44
    2090:	6818      	ldr	r0, [r3, #0]
    2092:	6802      	ldr	r2, [r0, #0]
    2094:	6852      	ldr	r2, [r2, #4]
    2096:	8899      	ldrh	r1, [r3, #4]
    2098:	4790      	blx	r2
    209a:	2800      	cmp	r0, #0
    209c:	d1f7      	bne.n	208e <spi_msp432::spiTx(unsigned char const*, unsigned short)+0x2a>
    209e:	6a23      	ldr	r3, [r4, #32]
    20a0:	2000      	movs	r0, #0
    20a2:	8018      	strh	r0, [r3, #0]
    20a4:	6923      	ldr	r3, [r4, #16]
    20a6:	8018      	strh	r0, [r3, #0]
    20a8:	e008      	b.n	20bc <spi_msp432::spiTx(unsigned char const*, unsigned short)+0x58>
    20aa:	5c32      	ldrb	r2, [r6, r0]
    20ac:	69a3      	ldr	r3, [r4, #24]
    20ae:	801a      	strh	r2, [r3, #0]
    20b0:	6a23      	ldr	r3, [r4, #32]
    20b2:	881b      	ldrh	r3, [r3, #0]
    20b4:	f013 0f02 	tst.w	r3, #2
    20b8:	d0fa      	beq.n	20b0 <spi_msp432::spiTx(unsigned char const*, unsigned short)+0x4c>
    20ba:	3001      	adds	r0, #1
    20bc:	4285      	cmp	r5, r0
    20be:	dcf4      	bgt.n	20aa <spi_msp432::spiTx(unsigned char const*, unsigned short)+0x46>
    20c0:	7963      	ldrb	r3, [r4, #5]
    20c2:	b14b      	cbz	r3, 20d8 <spi_msp432::spiTx(unsigned char const*, unsigned short)+0x74>
    20c4:	79a3      	ldrb	r3, [r4, #6]
    20c6:	b17b      	cbz	r3, 20e8 <spi_msp432::spiTx(unsigned char const*, unsigned short)+0x84>
    20c8:	6c63      	ldr	r3, [r4, #68]	; 0x44
    20ca:	6818      	ldr	r0, [r3, #0]
    20cc:	6802      	ldr	r2, [r0, #0]
    20ce:	6894      	ldr	r4, [r2, #8]
    20d0:	2201      	movs	r2, #1
    20d2:	8899      	ldrh	r1, [r3, #4]
    20d4:	47a0      	blx	r4
    20d6:	e007      	b.n	20e8 <spi_msp432::spiTx(unsigned char const*, unsigned short)+0x84>
    20d8:	6c63      	ldr	r3, [r4, #68]	; 0x44
    20da:	6818      	ldr	r0, [r3, #0]
    20dc:	6802      	ldr	r2, [r0, #0]
    20de:	6852      	ldr	r2, [r2, #4]
    20e0:	8899      	ldrh	r1, [r3, #4]
    20e2:	4790      	blx	r2
    20e4:	2800      	cmp	r0, #0
    20e6:	d0f7      	beq.n	20d8 <spi_msp432::spiTx(unsigned char const*, unsigned short)+0x74>
    20e8:	b228      	sxth	r0, r5
    20ea:	bdf8      	pop	{r3, r4, r5, r6, r7, pc}

000020ec <spi_msp432::spiRx(unsigned char, unsigned char*, unsigned short)>:
    20ec:	e92d 41f0 	stmdb	sp!, {r4, r5, r6, r7, r8, lr}
    20f0:	4604      	mov	r4, r0
    20f2:	460f      	mov	r7, r1
    20f4:	4616      	mov	r6, r2
    20f6:	461d      	mov	r5, r3
    20f8:	7903      	ldrb	r3, [r0, #4]
    20fa:	b163      	cbz	r3, 2116 <spi_msp432::spiRx(unsigned char, unsigned char*, unsigned short)+0x2a>
    20fc:	7963      	ldrb	r3, [r4, #5]
    20fe:	b16b      	cbz	r3, 211c <spi_msp432::spiRx(unsigned char, unsigned char*, unsigned short)+0x30>
    2100:	79a3      	ldrb	r3, [r4, #6]
    2102:	b19b      	cbz	r3, 212c <spi_msp432::spiRx(unsigned char, unsigned char*, unsigned short)+0x40>
    2104:	6c63      	ldr	r3, [r4, #68]	; 0x44
    2106:	6818      	ldr	r0, [r3, #0]
    2108:	6802      	ldr	r2, [r0, #0]
    210a:	f8d2 8008 	ldr.w	r8, [r2, #8]
    210e:	2200      	movs	r2, #0
    2110:	8899      	ldrh	r1, [r3, #4]
    2112:	47c0      	blx	r8
    2114:	e00a      	b.n	212c <spi_msp432::spiRx(unsigned char, unsigned char*, unsigned short)+0x40>
    2116:	f7ff feed 	bl	1ef4 <spi_msp432::initialize()>
    211a:	e7ef      	b.n	20fc <spi_msp432::spiRx(unsigned char, unsigned char*, unsigned short)+0x10>
    211c:	6c63      	ldr	r3, [r4, #68]	; 0x44
    211e:	6818      	ldr	r0, [r3, #0]
    2120:	6802      	ldr	r2, [r0, #0]
    2122:	6852      	ldr	r2, [r2, #4]
    2124:	8899      	ldrh	r1, [r3, #4]
    2126:	4790      	blx	r2
    2128:	2800      	cmp	r0, #0
    212a:	d1f7      	bne.n	211c <spi_msp432::spiRx(unsigned char, unsigned char*, unsigned short)+0x30>
    212c:	6a22      	ldr	r2, [r4, #32]
    212e:	2300      	movs	r3, #0
    2130:	8013      	strh	r3, [r2, #0]
    2132:	6922      	ldr	r2, [r4, #16]
    2134:	8013      	strh	r3, [r2, #0]
    2136:	6962      	ldr	r2, [r4, #20]
    2138:	8812      	ldrh	r2, [r2, #0]
    213a:	7032      	strb	r2, [r6, #0]
    213c:	e00f      	b.n	215e <spi_msp432::spiRx(unsigned char, unsigned char*, unsigned short)+0x72>
    213e:	69a2      	ldr	r2, [r4, #24]
    2140:	8017      	strh	r7, [r2, #0]
    2142:	6a20      	ldr	r0, [r4, #32]
    2144:	8800      	ldrh	r0, [r0, #0]
    2146:	f010 0f01 	tst.w	r0, #1
    214a:	d0fa      	beq.n	2142 <spi_msp432::spiRx(unsigned char, unsigned char*, unsigned short)+0x56>
    214c:	6962      	ldr	r2, [r4, #20]
    214e:	8812      	ldrh	r2, [r2, #0]
    2150:	54f2      	strb	r2, [r6, r3]
    2152:	6a20      	ldr	r0, [r4, #32]
    2154:	8800      	ldrh	r0, [r0, #0]
    2156:	f010 0f02 	tst.w	r0, #2
    215a:	d0fa      	beq.n	2152 <spi_msp432::spiRx(unsigned char, unsigned char*, unsigned short)+0x66>
    215c:	3301      	adds	r3, #1
    215e:	429d      	cmp	r5, r3
    2160:	dced      	bgt.n	213e <spi_msp432::spiRx(unsigned char, unsigned char*, unsigned short)+0x52>
    2162:	7963      	ldrb	r3, [r4, #5]
    2164:	b14b      	cbz	r3, 217a <spi_msp432::spiRx(unsigned char, unsigned char*, unsigned short)+0x8e>
    2166:	79a3      	ldrb	r3, [r4, #6]
    2168:	b17b      	cbz	r3, 218a <spi_msp432::spiRx(unsigned char, unsigned char*, unsigned short)+0x9e>
    216a:	6c63      	ldr	r3, [r4, #68]	; 0x44
    216c:	6818      	ldr	r0, [r3, #0]
    216e:	6802      	ldr	r2, [r0, #0]
    2170:	6894      	ldr	r4, [r2, #8]
    2172:	2201      	movs	r2, #1
    2174:	8899      	ldrh	r1, [r3, #4]
    2176:	47a0      	blx	r4
    2178:	e007      	b.n	218a <spi_msp432::spiRx(unsigned char, unsigned char*, unsigned short)+0x9e>
    217a:	6c63      	ldr	r3, [r4, #68]	; 0x44
    217c:	6818      	ldr	r0, [r3, #0]
    217e:	6802      	ldr	r2, [r0, #0]
    2180:	6852      	ldr	r2, [r2, #4]
    2182:	8899      	ldrh	r1, [r3, #4]
    2184:	4790      	blx	r2
    2186:	2800      	cmp	r0, #0
    2188:	d0f7      	beq.n	217a <spi_msp432::spiRx(unsigned char, unsigned char*, unsigned short)+0x8e>
    218a:	b228      	sxth	r0, r5
    218c:	e8bd 81f0 	ldmia.w	sp!, {r4, r5, r6, r7, r8, pc}

00002190 <spi_msp432::setSpeed(unsigned long)>:
    2190:	b538      	push	{r3, r4, r5, lr}
    2192:	4604      	mov	r4, r0
    2194:	460d      	mov	r5, r1
    2196:	7903      	ldrb	r3, [r0, #4]
    2198:	b13b      	cbz	r3, 21aa <spi_msp432::setSpeed(unsigned long)+0x1a>
    219a:	4b05      	ldr	r3, [pc, #20]	; (21b0 <spi_msp432::setSpeed(unsigned long)+0x20>)
    219c:	6819      	ldr	r1, [r3, #0]
    219e:	fbb1 f1f5 	udiv	r1, r1, r5
    21a2:	68e3      	ldr	r3, [r4, #12]
    21a4:	b289      	uxth	r1, r1
    21a6:	8019      	strh	r1, [r3, #0]
    21a8:	bd38      	pop	{r3, r4, r5, pc}
    21aa:	f7ff fea3 	bl	1ef4 <spi_msp432::initialize()>
    21ae:	e7f4      	b.n	219a <spi_msp432::setSpeed(unsigned long)+0xa>
    21b0:	20000034 	.word	0x20000034

000021b4 <spi_msp432::generateCS(bool)>:
    21b4:	b538      	push	{r3, r4, r5, lr}
    21b6:	4604      	mov	r4, r0
    21b8:	460d      	mov	r5, r1
    21ba:	7903      	ldrb	r3, [r0, #4]
    21bc:	b10b      	cbz	r3, 21c2 <spi_msp432::generateCS(bool)+0xe>
    21be:	71a5      	strb	r5, [r4, #6]
    21c0:	bd38      	pop	{r3, r4, r5, pc}
    21c2:	f7ff fe97 	bl	1ef4 <spi_msp432::initialize()>
    21c6:	e7fa      	b.n	21be <spi_msp432::generateCS(bool)+0xa>

000021c8 <spi_msp432::setCS(bool)>:
    21c8:	b538      	push	{r3, r4, r5, lr}
    21ca:	4604      	mov	r4, r0
    21cc:	460d      	mov	r5, r1
    21ce:	7903      	ldrb	r3, [r0, #4]
    21d0:	b13b      	cbz	r3, 21e2 <spi_msp432::setCS(bool)+0x1a>
    21d2:	6c63      	ldr	r3, [r4, #68]	; 0x44
    21d4:	6818      	ldr	r0, [r3, #0]
    21d6:	6802      	ldr	r2, [r0, #0]
    21d8:	6894      	ldr	r4, [r2, #8]
    21da:	462a      	mov	r2, r5
    21dc:	8899      	ldrh	r1, [r3, #4]
    21de:	47a0      	blx	r4
    21e0:	bd38      	pop	{r3, r4, r5, pc}
    21e2:	f7ff fe87 	bl	1ef4 <spi_msp432::initialize()>
    21e6:	e7f4      	b.n	21d2 <spi_msp432::setCS(bool)+0xa>

000021e8 <std::function<void (unsigned char)>::operator()(unsigned char) const>:
    21e8:	b500      	push	{lr}
    21ea:	b083      	sub	sp, #12
    21ec:	f88d 1007 	strb.w	r1, [sp, #7]
    21f0:	6883      	ldr	r3, [r0, #8]
    21f2:	b133      	cbz	r3, 2202 <std::function<void (unsigned char)>::operator()(unsigned char) const+0x1a>
    21f4:	68c3      	ldr	r3, [r0, #12]
    21f6:	f10d 0107 	add.w	r1, sp, #7
    21fa:	4798      	blx	r3
    21fc:	b003      	add	sp, #12
    21fe:	f85d fb04 	ldr.w	pc, [sp], #4
    2202:	f000 fe97 	bl	2f34 <__yahal_bad_function_call>
	...

00002208 <EUSCIA0_SPI_IRQHandler>:
    2208:	b508      	push	{r3, lr}
    220a:	4b03      	ldr	r3, [pc, #12]	; (2218 <EUSCIA0_SPI_IRQHandler+0x10>)
    220c:	8999      	ldrh	r1, [r3, #12]
    220e:	b2c9      	uxtb	r1, r1
    2210:	4802      	ldr	r0, [pc, #8]	; (221c <EUSCIA0_SPI_IRQHandler+0x14>)
    2212:	f7ff ffe9 	bl	21e8 <std::function<void (unsigned char)>::operator()(unsigned char) const>
    2216:	bd08      	pop	{r3, pc}
    2218:	40001000 	.word	0x40001000
    221c:	200000ec 	.word	0x200000ec

00002220 <EUSCIA1_SPI_IRQHandler>:
    2220:	b508      	push	{r3, lr}
    2222:	4b03      	ldr	r3, [pc, #12]	; (2230 <EUSCIA1_SPI_IRQHandler+0x10>)
    2224:	8999      	ldrh	r1, [r3, #12]
    2226:	b2c9      	uxtb	r1, r1
    2228:	4802      	ldr	r0, [pc, #8]	; (2234 <EUSCIA1_SPI_IRQHandler+0x14>)
    222a:	f7ff ffdd 	bl	21e8 <std::function<void (unsigned char)>::operator()(unsigned char) const>
    222e:	bd08      	pop	{r3, pc}
    2230:	40001400 	.word	0x40001400
    2234:	200000fc 	.word	0x200000fc

00002238 <EUSCIA2_SPI_IRQHandler>:
    2238:	b508      	push	{r3, lr}
    223a:	4b03      	ldr	r3, [pc, #12]	; (2248 <EUSCIA2_SPI_IRQHandler+0x10>)
    223c:	8999      	ldrh	r1, [r3, #12]
    223e:	b2c9      	uxtb	r1, r1
    2240:	4802      	ldr	r0, [pc, #8]	; (224c <EUSCIA2_SPI_IRQHandler+0x14>)
    2242:	f7ff ffd1 	bl	21e8 <std::function<void (unsigned char)>::operator()(unsigned char) const>
    2246:	bd08      	pop	{r3, pc}
    2248:	40001800 	.word	0x40001800
    224c:	2000010c 	.word	0x2000010c

00002250 <EUSCIA3_SPI_IRQHandler>:
    2250:	b508      	push	{r3, lr}
    2252:	4b03      	ldr	r3, [pc, #12]	; (2260 <EUSCIA3_SPI_IRQHandler+0x10>)
    2254:	8999      	ldrh	r1, [r3, #12]
    2256:	b2c9      	uxtb	r1, r1
    2258:	4802      	ldr	r0, [pc, #8]	; (2264 <EUSCIA3_SPI_IRQHandler+0x14>)
    225a:	f7ff ffc5 	bl	21e8 <std::function<void (unsigned char)>::operator()(unsigned char) const>
    225e:	bd08      	pop	{r3, pc}
    2260:	40001c00 	.word	0x40001c00
    2264:	2000011c 	.word	0x2000011c

00002268 <EUSCIB0_SPI_IRQHandler>:
    2268:	b508      	push	{r3, lr}
    226a:	4b03      	ldr	r3, [pc, #12]	; (2278 <EUSCIB0_SPI_IRQHandler+0x10>)
    226c:	8999      	ldrh	r1, [r3, #12]
    226e:	b2c9      	uxtb	r1, r1
    2270:	4802      	ldr	r0, [pc, #8]	; (227c <EUSCIB0_SPI_IRQHandler+0x14>)
    2272:	f7ff ffb9 	bl	21e8 <std::function<void (unsigned char)>::operator()(unsigned char) const>
    2276:	bd08      	pop	{r3, pc}
    2278:	40002000 	.word	0x40002000
    227c:	2000012c 	.word	0x2000012c

00002280 <EUSCIB1_SPI_IRQHandler>:
    2280:	b508      	push	{r3, lr}
    2282:	4b03      	ldr	r3, [pc, #12]	; (2290 <EUSCIB1_SPI_IRQHandler+0x10>)
    2284:	8999      	ldrh	r1, [r3, #12]
    2286:	b2c9      	uxtb	r1, r1
    2288:	4802      	ldr	r0, [pc, #8]	; (2294 <EUSCIB1_SPI_IRQHandler+0x14>)
    228a:	f7ff ffad 	bl	21e8 <std::function<void (unsigned char)>::operator()(unsigned char) const>
    228e:	bd08      	pop	{r3, pc}
    2290:	40002400 	.word	0x40002400
    2294:	2000013c 	.word	0x2000013c

00002298 <EUSCIB2_SPI_IRQHandler>:
    2298:	b508      	push	{r3, lr}
    229a:	4b03      	ldr	r3, [pc, #12]	; (22a8 <EUSCIB2_SPI_IRQHandler+0x10>)
    229c:	8999      	ldrh	r1, [r3, #12]
    229e:	b2c9      	uxtb	r1, r1
    22a0:	4802      	ldr	r0, [pc, #8]	; (22ac <EUSCIB2_SPI_IRQHandler+0x14>)
    22a2:	f7ff ffa1 	bl	21e8 <std::function<void (unsigned char)>::operator()(unsigned char) const>
    22a6:	bd08      	pop	{r3, pc}
    22a8:	40002800 	.word	0x40002800
    22ac:	2000014c 	.word	0x2000014c

000022b0 <EUSCIB3_SPI_IRQHandler>:
    22b0:	b508      	push	{r3, lr}
    22b2:	4b03      	ldr	r3, [pc, #12]	; (22c0 <EUSCIB3_SPI_IRQHandler+0x10>)
    22b4:	8999      	ldrh	r1, [r3, #12]
    22b6:	b2c9      	uxtb	r1, r1
    22b8:	4802      	ldr	r0, [pc, #8]	; (22c4 <EUSCIB3_SPI_IRQHandler+0x14>)
    22ba:	f7ff ff95 	bl	21e8 <std::function<void (unsigned char)>::operator()(unsigned char) const>
    22be:	bd08      	pop	{r3, pc}
    22c0:	40002c00 	.word	0x40002c00
    22c4:	2000015c 	.word	0x2000015c

000022c8 <std::function<void (unsigned char)>::function(std::function<void (unsigned char)> const&)>:
    22c8:	b538      	push	{r3, r4, r5, lr}
    22ca:	4604      	mov	r4, r0
    22cc:	2300      	movs	r3, #0
    22ce:	6003      	str	r3, [r0, #0]
    22d0:	6043      	str	r3, [r0, #4]
    22d2:	6083      	str	r3, [r0, #8]
    22d4:	60c3      	str	r3, [r0, #12]
    22d6:	688b      	ldr	r3, [r1, #8]
    22d8:	b133      	cbz	r3, 22e8 <std::function<void (unsigned char)>::function(std::function<void (unsigned char)> const&)+0x20>
    22da:	460d      	mov	r5, r1
    22dc:	2202      	movs	r2, #2
    22de:	4798      	blx	r3
    22e0:	68eb      	ldr	r3, [r5, #12]
    22e2:	60e3      	str	r3, [r4, #12]
    22e4:	68ab      	ldr	r3, [r5, #8]
    22e6:	60a3      	str	r3, [r4, #8]
    22e8:	4620      	mov	r0, r4
    22ea:	bd38      	pop	{r3, r4, r5, pc}

000022ec <std::function<void (unsigned char)>::swap(std::function<void (unsigned char)>&)>:
    22ec:	b538      	push	{r3, r4, r5, lr}
    22ee:	4605      	mov	r5, r0
    22f0:	460c      	mov	r4, r1
    22f2:	f7ff fc59 	bl	1ba8 <std::enable_if<std::__and_<std::__not_<std::__is_tuple_like<std::_Any_data> >, std::is_move_constructible<std::_Any_data>, std::is_move_assignable<std::_Any_data> >::value, void>::type std::swap<std::_Any_data>(std::_Any_data&, std::_Any_data&)>
    22f6:	68ab      	ldr	r3, [r5, #8]
    22f8:	68a2      	ldr	r2, [r4, #8]
    22fa:	60aa      	str	r2, [r5, #8]
    22fc:	60a3      	str	r3, [r4, #8]
    22fe:	68eb      	ldr	r3, [r5, #12]
    2300:	68e2      	ldr	r2, [r4, #12]
    2302:	60ea      	str	r2, [r5, #12]
    2304:	60e3      	str	r3, [r4, #12]
    2306:	bd38      	pop	{r3, r4, r5, pc}

00002308 <std::function<void (unsigned char)>::operator=(std::function<void (unsigned char)> const&)>:
    2308:	b510      	push	{r4, lr}
    230a:	b084      	sub	sp, #16
    230c:	4604      	mov	r4, r0
    230e:	4668      	mov	r0, sp
    2310:	f7ff ffda 	bl	22c8 <std::function<void (unsigned char)>::function(std::function<void (unsigned char)> const&)>
    2314:	4621      	mov	r1, r4
    2316:	4668      	mov	r0, sp
    2318:	f7ff ffe8 	bl	22ec <std::function<void (unsigned char)>::swap(std::function<void (unsigned char)>&)>
    231c:	4668      	mov	r0, sp
    231e:	f7ff fa0b 	bl	1738 <std::_Function_base::~_Function_base()>
    2322:	4620      	mov	r0, r4
    2324:	b004      	add	sp, #16
    2326:	bd10      	pop	{r4, pc}

00002328 <spi_msp432::spiAttachRxIrq(std::function<void (unsigned char)>)>:
    2328:	b510      	push	{r4, lr}
    232a:	4604      	mov	r4, r0
    232c:	f990 3048 	ldrsb.w	r3, [r0, #72]	; 0x48
    2330:	3b10      	subs	r3, #16
    2332:	4806      	ldr	r0, [pc, #24]	; (234c <spi_msp432::spiAttachRxIrq(std::function<void (unsigned char)>)+0x24>)
    2334:	eb00 1003 	add.w	r0, r0, r3, lsl #4
    2338:	f7ff ffe6 	bl	2308 <std::function<void (unsigned char)>::operator=(std::function<void (unsigned char)> const&)>
    233c:	69e3      	ldr	r3, [r4, #28]
    233e:	2201      	movs	r2, #1
    2340:	801a      	strh	r2, [r3, #0]
    2342:	f994 0048 	ldrsb.w	r0, [r4, #72]	; 0x48
    2346:	f7ff fce3 	bl	1d10 <__NVIC_EnableIRQ>
    234a:	bd10      	pop	{r4, pc}
    234c:	200000ec 	.word	0x200000ec

00002350 <_GLOBAL__sub_I_SPI_CLK>:
    2350:	b508      	push	{r3, lr}
    2352:	f64f 71ff 	movw	r1, #65535	; 0xffff
    2356:	2001      	movs	r0, #1
    2358:	f7ff fd06 	bl	1d68 <__static_initialization_and_destruction_0(int, int)>
    235c:	bd08      	pop	{r3, pc}

0000235e <AES256_IRQHandler>:
    235e:	e7fe      	b.n	235e <AES256_IRQHandler>

00002360 <Reset_Handler>:
    2360:	b508      	push	{r3, lr}
    2362:	f000 fbc1 	bl	2ae8 <SystemInit>
    2366:	4a12      	ldr	r2, [pc, #72]	; (23b0 <Reset_Handler+0x50>)
    2368:	e00a      	b.n	2380 <Reset_Handler+0x20>
    236a:	6810      	ldr	r0, [r2, #0]
    236c:	6851      	ldr	r1, [r2, #4]
    236e:	f850 0023 	ldr.w	r0, [r0, r3, lsl #2]
    2372:	f841 0023 	str.w	r0, [r1, r3, lsl #2]
    2376:	3301      	adds	r3, #1
    2378:	6891      	ldr	r1, [r2, #8]
    237a:	428b      	cmp	r3, r1
    237c:	d3f5      	bcc.n	236a <Reset_Handler+0xa>
    237e:	320c      	adds	r2, #12
    2380:	4b0c      	ldr	r3, [pc, #48]	; (23b4 <Reset_Handler+0x54>)
    2382:	429a      	cmp	r2, r3
    2384:	d201      	bcs.n	238a <Reset_Handler+0x2a>
    2386:	2300      	movs	r3, #0
    2388:	e7f6      	b.n	2378 <Reset_Handler+0x18>
    238a:	4a0b      	ldr	r2, [pc, #44]	; (23b8 <Reset_Handler+0x58>)
    238c:	e008      	b.n	23a0 <Reset_Handler+0x40>
    238e:	6811      	ldr	r1, [r2, #0]
    2390:	2000      	movs	r0, #0
    2392:	f841 0023 	str.w	r0, [r1, r3, lsl #2]
    2396:	3301      	adds	r3, #1
    2398:	6851      	ldr	r1, [r2, #4]
    239a:	428b      	cmp	r3, r1
    239c:	d3f7      	bcc.n	238e <Reset_Handler+0x2e>
    239e:	3208      	adds	r2, #8
    23a0:	4b06      	ldr	r3, [pc, #24]	; (23bc <Reset_Handler+0x5c>)
    23a2:	429a      	cmp	r2, r3
    23a4:	d201      	bcs.n	23aa <Reset_Handler+0x4a>
    23a6:	2300      	movs	r3, #0
    23a8:	e7f6      	b.n	2398 <Reset_Handler+0x38>
    23aa:	f004 fa8f 	bl	68cc <_mainCRTStartup>
    23ae:	bf00      	nop
    23b0:	0000f8b0 	.word	0x0000f8b0
    23b4:	0000f8bc 	.word	0x0000f8bc
    23b8:	0000f8c0 	.word	0x0000f8c0
    23bc:	0000f8c8 	.word	0x0000f8c8

000023c0 <__NVIC_EnableIRQ>:
    23c0:	2800      	cmp	r0, #0
    23c2:	db07      	blt.n	23d4 <__NVIC_EnableIRQ+0x14>
    23c4:	f000 021f 	and.w	r2, r0, #31
    23c8:	0940      	lsrs	r0, r0, #5
    23ca:	2301      	movs	r3, #1
    23cc:	4093      	lsls	r3, r2
    23ce:	4a02      	ldr	r2, [pc, #8]	; (23d8 <__NVIC_EnableIRQ+0x18>)
    23d0:	f842 3020 	str.w	r3, [r2, r0, lsl #2]
    23d4:	4770      	bx	lr
    23d6:	bf00      	nop
    23d8:	e000e100 	.word	0xe000e100

000023dc <__NVIC_DisableIRQ>:
    23dc:	2800      	cmp	r0, #0
    23de:	db0c      	blt.n	23fa <__NVIC_DisableIRQ+0x1e>
    23e0:	f000 021f 	and.w	r2, r0, #31
    23e4:	0940      	lsrs	r0, r0, #5
    23e6:	2301      	movs	r3, #1
    23e8:	4093      	lsls	r3, r2
    23ea:	3020      	adds	r0, #32
    23ec:	4a03      	ldr	r2, [pc, #12]	; (23fc <__NVIC_DisableIRQ+0x20>)
    23ee:	f842 3020 	str.w	r3, [r2, r0, lsl #2]
    23f2:	f3bf 8f4f 	dsb	sy
    23f6:	f3bf 8f6f 	isb	sy
    23fa:	4770      	bx	lr
    23fc:	e000e100 	.word	0xe000e100

00002400 <yahal_assert_func()>:
    2400:	e7fe      	b.n	2400 <yahal_assert_func()>

00002402 <uart_msp432::uartMode(unsigned short)>:
    2402:	8201      	strh	r1, [r0, #16]
    2404:	6882      	ldr	r2, [r0, #8]
    2406:	8813      	ldrh	r3, [r2, #0]
    2408:	b29b      	uxth	r3, r3
    240a:	f043 0301 	orr.w	r3, r3, #1
    240e:	8013      	strh	r3, [r2, #0]
    2410:	f011 0f01 	tst.w	r1, #1
    2414:	d005      	beq.n	2422 <uart_msp432::uartMode(unsigned short)+0x20>
    2416:	6882      	ldr	r2, [r0, #8]
    2418:	8813      	ldrh	r3, [r2, #0]
    241a:	b29b      	uxth	r3, r3
    241c:	f443 5380 	orr.w	r3, r3, #4096	; 0x1000
    2420:	8013      	strh	r3, [r2, #0]
    2422:	f011 0f02 	tst.w	r1, #2
    2426:	d006      	beq.n	2436 <uart_msp432::uartMode(unsigned short)+0x34>
    2428:	6882      	ldr	r2, [r0, #8]
    242a:	8813      	ldrh	r3, [r2, #0]
    242c:	b29b      	uxth	r3, r3
    242e:	f423 5380 	bic.w	r3, r3, #4096	; 0x1000
    2432:	b29b      	uxth	r3, r3
    2434:	8013      	strh	r3, [r2, #0]
    2436:	f011 0f04 	tst.w	r1, #4
    243a:	d004      	beq.n	2446 <uart_msp432::uartMode(unsigned short)+0x44>
    243c:	6882      	ldr	r2, [r0, #8]
    243e:	8813      	ldrh	r3, [r2, #0]
    2440:	f3c3 030e 	ubfx	r3, r3, #0, #15
    2444:	8013      	strh	r3, [r2, #0]
    2446:	f011 0f08 	tst.w	r1, #8
    244a:	d00d      	beq.n	2468 <uart_msp432::uartMode(unsigned short)+0x66>
    244c:	6882      	ldr	r2, [r0, #8]
    244e:	8813      	ldrh	r3, [r2, #0]
    2450:	ea6f 4343 	mvn.w	r3, r3, lsl #17
    2454:	ea6f 4353 	mvn.w	r3, r3, lsr #17
    2458:	b29b      	uxth	r3, r3
    245a:	8013      	strh	r3, [r2, #0]
    245c:	6882      	ldr	r2, [r0, #8]
    245e:	8813      	ldrh	r3, [r2, #0]
    2460:	b29b      	uxth	r3, r3
    2462:	f443 4380 	orr.w	r3, r3, #16384	; 0x4000
    2466:	8013      	strh	r3, [r2, #0]
    2468:	f011 0f10 	tst.w	r1, #16
    246c:	d00e      	beq.n	248c <uart_msp432::uartMode(unsigned short)+0x8a>
    246e:	6882      	ldr	r2, [r0, #8]
    2470:	8813      	ldrh	r3, [r2, #0]
    2472:	ea6f 4343 	mvn.w	r3, r3, lsl #17
    2476:	ea6f 4353 	mvn.w	r3, r3, lsr #17
    247a:	b29b      	uxth	r3, r3
    247c:	8013      	strh	r3, [r2, #0]
    247e:	6882      	ldr	r2, [r0, #8]
    2480:	8813      	ldrh	r3, [r2, #0]
    2482:	b29b      	uxth	r3, r3
    2484:	f423 4380 	bic.w	r3, r3, #16384	; 0x4000
    2488:	b29b      	uxth	r3, r3
    248a:	8013      	strh	r3, [r2, #0]
    248c:	f011 0f20 	tst.w	r1, #32
    2490:	d006      	beq.n	24a0 <uart_msp432::uartMode(unsigned short)+0x9e>
    2492:	6882      	ldr	r2, [r0, #8]
    2494:	8813      	ldrh	r3, [r2, #0]
    2496:	b29b      	uxth	r3, r3
    2498:	f423 6300 	bic.w	r3, r3, #2048	; 0x800
    249c:	b29b      	uxth	r3, r3
    249e:	8013      	strh	r3, [r2, #0]
    24a0:	f011 0f40 	tst.w	r1, #64	; 0x40
    24a4:	d005      	beq.n	24b2 <uart_msp432::uartMode(unsigned short)+0xb0>
    24a6:	6882      	ldr	r2, [r0, #8]
    24a8:	8813      	ldrh	r3, [r2, #0]
    24aa:	b29b      	uxth	r3, r3
    24ac:	f443 6300 	orr.w	r3, r3, #2048	; 0x800
    24b0:	8013      	strh	r3, [r2, #0]
    24b2:	6882      	ldr	r2, [r0, #8]
    24b4:	8813      	ldrh	r3, [r2, #0]
    24b6:	b29b      	uxth	r3, r3
    24b8:	f023 0301 	bic.w	r3, r3, #1
    24bc:	b29b      	uxth	r3, r3
    24be:	8013      	strh	r3, [r2, #0]
    24c0:	4770      	bx	lr
	...

000024c4 <uart_msp432::setBaudrate(unsigned long)>:
    24c4:	60c1      	str	r1, [r0, #12]
    24c6:	4b04      	ldr	r3, [pc, #16]	; (24d8 <uart_msp432::setBaudrate(unsigned long)+0x14>)
    24c8:	681b      	ldr	r3, [r3, #0]
    24ca:	fbb3 f1f1 	udiv	r1, r3, r1
    24ce:	6883      	ldr	r3, [r0, #8]
    24d0:	b289      	uxth	r1, r1
    24d2:	80d9      	strh	r1, [r3, #6]
    24d4:	4770      	bx	lr
    24d6:	bf00      	nop
    24d8:	20000034 	.word	0x20000034

000024dc <uart_msp432::uartEnableIrq()>:
    24dc:	6883      	ldr	r3, [r0, #8]
    24de:	2201      	movs	r2, #1
    24e0:	835a      	strh	r2, [r3, #26]
    24e2:	4770      	bx	lr

000024e4 <uart_msp432::uartDisableIrq()>:
    24e4:	6883      	ldr	r3, [r0, #8]
    24e6:	2200      	movs	r2, #0
    24e8:	835a      	strh	r2, [r3, #26]
    24ea:	4770      	bx	lr

000024ec <uart_msp432::~uart_msp432()>:
    24ec:	b538      	push	{r3, r4, r5, lr}
    24ee:	4604      	mov	r4, r0
    24f0:	4b11      	ldr	r3, [pc, #68]	; (2538 <uart_msp432::~uart_msp432()+0x4c>)
    24f2:	6003      	str	r3, [r0, #0]
    24f4:	7903      	ldrb	r3, [r0, #4]
    24f6:	b1db      	cbz	r3, 2530 <uart_msp432::~uart_msp432()+0x44>
    24f8:	68a3      	ldr	r3, [r4, #8]
    24fa:	895a      	ldrh	r2, [r3, #10]
    24fc:	f012 0f01 	tst.w	r2, #1
    2500:	d1fa      	bne.n	24f8 <uart_msp432::~uart_msp432()+0xc>
    2502:	2201      	movs	r2, #1
    2504:	801a      	strh	r2, [r3, #0]
    2506:	7ca1      	ldrb	r1, [r4, #18]
    2508:	7ce3      	ldrb	r3, [r4, #19]
    250a:	4d0c      	ldr	r5, [pc, #48]	; (253c <uart_msp432::~uart_msp432()+0x50>)
    250c:	2200      	movs	r2, #0
    250e:	ea43 2101 	orr.w	r1, r3, r1, lsl #8
    2512:	4628      	mov	r0, r5
    2514:	f7ff f97a 	bl	180c <gpio_msp432::setSEL(unsigned short, unsigned char)>
    2518:	7ca1      	ldrb	r1, [r4, #18]
    251a:	7d23      	ldrb	r3, [r4, #20]
    251c:	2200      	movs	r2, #0
    251e:	ea43 2101 	orr.w	r1, r3, r1, lsl #8
    2522:	4628      	mov	r0, r5
    2524:	f7ff f972 	bl	180c <gpio_msp432::setSEL(unsigned short, unsigned char)>
    2528:	4b05      	ldr	r3, [pc, #20]	; (2540 <uart_msp432::~uart_msp432()+0x54>)
    252a:	6023      	str	r3, [r4, #0]
    252c:	4620      	mov	r0, r4
    252e:	bd38      	pop	{r3, r4, r5, pc}
    2530:	4b03      	ldr	r3, [pc, #12]	; (2540 <uart_msp432::~uart_msp432()+0x54>)
    2532:	6003      	str	r3, [r0, #0]
    2534:	e7fa      	b.n	252c <uart_msp432::~uart_msp432()+0x40>
    2536:	bf00      	nop
    2538:	0000ee20 	.word	0x0000ee20
    253c:	2000016c 	.word	0x2000016c
    2540:	0000edec 	.word	0x0000edec

00002544 <uart_msp432::~uart_msp432()>:
    2544:	b510      	push	{r4, lr}
    2546:	4604      	mov	r4, r0
    2548:	f7ff ffd0 	bl	24ec <uart_msp432::~uart_msp432()>
    254c:	2118      	movs	r1, #24
    254e:	4620      	mov	r0, r4
    2550:	f002 fb15 	bl	4b7e <operator delete(void*, unsigned int)>
    2554:	4620      	mov	r0, r4
    2556:	bd10      	pop	{r4, pc}

00002558 <__static_initialization_and_destruction_0(int, int)>:
    2558:	2801      	cmp	r0, #1
    255a:	d000      	beq.n	255e <__static_initialization_and_destruction_0(int, int)+0x6>
    255c:	4770      	bx	lr
    255e:	b508      	push	{r3, lr}
    2560:	f64f 73ff 	movw	r3, #65535	; 0xffff
    2564:	4299      	cmp	r1, r3
    2566:	d000      	beq.n	256a <__static_initialization_and_destruction_0(int, int)+0x12>
    2568:	bd08      	pop	{r3, pc}
    256a:	4b0d      	ldr	r3, [pc, #52]	; (25a0 <__static_initialization_and_destruction_0(int, int)+0x48>)
    256c:	681a      	ldr	r2, [r3, #0]
    256e:	4b0d      	ldr	r3, [pc, #52]	; (25a4 <__static_initialization_and_destruction_0(int, int)+0x4c>)
    2570:	601a      	str	r2, [r3, #0]
    2572:	4b0d      	ldr	r3, [pc, #52]	; (25a8 <__static_initialization_and_destruction_0(int, int)+0x50>)
    2574:	2000      	movs	r0, #0
    2576:	6018      	str	r0, [r3, #0]
    2578:	6058      	str	r0, [r3, #4]
    257a:	6098      	str	r0, [r3, #8]
    257c:	60d8      	str	r0, [r3, #12]
    257e:	6118      	str	r0, [r3, #16]
    2580:	6158      	str	r0, [r3, #20]
    2582:	6198      	str	r0, [r3, #24]
    2584:	61d8      	str	r0, [r3, #28]
    2586:	6218      	str	r0, [r3, #32]
    2588:	6258      	str	r0, [r3, #36]	; 0x24
    258a:	6298      	str	r0, [r3, #40]	; 0x28
    258c:	62d8      	str	r0, [r3, #44]	; 0x2c
    258e:	6318      	str	r0, [r3, #48]	; 0x30
    2590:	6358      	str	r0, [r3, #52]	; 0x34
    2592:	6398      	str	r0, [r3, #56]	; 0x38
    2594:	63d8      	str	r0, [r3, #60]	; 0x3c
    2596:	4a05      	ldr	r2, [pc, #20]	; (25ac <__static_initialization_and_destruction_0(int, int)+0x54>)
    2598:	4905      	ldr	r1, [pc, #20]	; (25b0 <__static_initialization_and_destruction_0(int, int)+0x58>)
    259a:	f002 faeb 	bl	4b74 <__aeabi_atexit>
    259e:	e7e3      	b.n	2568 <__static_initialization_and_destruction_0(int, int)+0x10>
    25a0:	20000038 	.word	0x20000038
    25a4:	200000ac 	.word	0x200000ac
    25a8:	20000594 	.word	0x20000594
    25ac:	20000000 	.word	0x20000000
    25b0:	000025b5 	.word	0x000025b5

000025b4 <__tcf_0>:
    25b4:	b510      	push	{r4, lr}
    25b6:	4c05      	ldr	r4, [pc, #20]	; (25cc <__tcf_0+0x18>)
    25b8:	e003      	b.n	25c2 <__tcf_0+0xe>
    25ba:	3c10      	subs	r4, #16
    25bc:	4620      	mov	r0, r4
    25be:	f7ff f8bb 	bl	1738 <std::_Function_base::~_Function_base()>
    25c2:	4b03      	ldr	r3, [pc, #12]	; (25d0 <__tcf_0+0x1c>)
    25c4:	429c      	cmp	r4, r3
    25c6:	d1f8      	bne.n	25ba <__tcf_0+0x6>
    25c8:	bd10      	pop	{r4, pc}
    25ca:	bf00      	nop
    25cc:	200005d4 	.word	0x200005d4
    25d0:	20000594 	.word	0x20000594

000025d4 <uart_msp432::uart_msp432(EUSCI_A_Type*, unsigned long, unsigned short)>:
    25d4:	b510      	push	{r4, lr}
    25d6:	4604      	mov	r4, r0
    25d8:	4807      	ldr	r0, [pc, #28]	; (25f8 <uart_msp432::uart_msp432(EUSCI_A_Type*, unsigned long, unsigned short)+0x24>)
    25da:	6020      	str	r0, [r4, #0]
    25dc:	4807      	ldr	r0, [pc, #28]	; (25fc <uart_msp432::uart_msp432(EUSCI_A_Type*, unsigned long, unsigned short)+0x28>)
    25de:	6020      	str	r0, [r4, #0]
    25e0:	2000      	movs	r0, #0
    25e2:	7120      	strb	r0, [r4, #4]
    25e4:	60a1      	str	r1, [r4, #8]
    25e6:	60e2      	str	r2, [r4, #12]
    25e8:	8223      	strh	r3, [r4, #16]
    25ea:	74a0      	strb	r0, [r4, #18]
    25ec:	74e0      	strb	r0, [r4, #19]
    25ee:	7520      	strb	r0, [r4, #20]
    25f0:	f000 fdf9 	bl	31e6 <irq_dispatcher::link_in()>
    25f4:	4620      	mov	r0, r4
    25f6:	bd10      	pop	{r4, pc}
    25f8:	0000edec 	.word	0x0000edec
    25fc:	0000ee20 	.word	0x0000ee20

00002600 <uart_msp432::init()>:
    2600:	b538      	push	{r3, r4, r5, lr}
    2602:	4604      	mov	r4, r0
    2604:	6883      	ldr	r3, [r0, #8]
    2606:	4a2f      	ldr	r2, [pc, #188]	; (26c4 <uart_msp432::init()+0xc4>)
    2608:	4293      	cmp	r3, r2
    260a:	d040      	beq.n	268e <uart_msp432::init()+0x8e>
    260c:	4a2e      	ldr	r2, [pc, #184]	; (26c8 <uart_msp432::init()+0xc8>)
    260e:	4293      	cmp	r3, r2
    2610:	d044      	beq.n	269c <uart_msp432::init()+0x9c>
    2612:	4a2e      	ldr	r2, [pc, #184]	; (26cc <uart_msp432::init()+0xcc>)
    2614:	4293      	cmp	r3, r2
    2616:	d047      	beq.n	26a8 <uart_msp432::init()+0xa8>
    2618:	4a2d      	ldr	r2, [pc, #180]	; (26d0 <uart_msp432::init()+0xd0>)
    261a:	4293      	cmp	r3, r2
    261c:	d14a      	bne.n	26b4 <uart_msp432::init()+0xb4>
    261e:	2309      	movs	r3, #9
    2620:	7483      	strb	r3, [r0, #18]
    2622:	2306      	movs	r3, #6
    2624:	74c3      	strb	r3, [r0, #19]
    2626:	2307      	movs	r3, #7
    2628:	7503      	strb	r3, [r0, #20]
    262a:	7ca1      	ldrb	r1, [r4, #18]
    262c:	7ce3      	ldrb	r3, [r4, #19]
    262e:	4d29      	ldr	r5, [pc, #164]	; (26d4 <uart_msp432::init()+0xd4>)
    2630:	2201      	movs	r2, #1
    2632:	ea43 2101 	orr.w	r1, r3, r1, lsl #8
    2636:	4628      	mov	r0, r5
    2638:	f7ff f8e8 	bl	180c <gpio_msp432::setSEL(unsigned short, unsigned char)>
    263c:	7ca1      	ldrb	r1, [r4, #18]
    263e:	7d23      	ldrb	r3, [r4, #20]
    2640:	2201      	movs	r2, #1
    2642:	ea43 2101 	orr.w	r1, r3, r1, lsl #8
    2646:	4628      	mov	r0, r5
    2648:	f7ff f8e0 	bl	180c <gpio_msp432::setSEL(unsigned short, unsigned char)>
    264c:	68a3      	ldr	r3, [r4, #8]
    264e:	2501      	movs	r5, #1
    2650:	801d      	strh	r5, [r3, #0]
    2652:	68a2      	ldr	r2, [r4, #8]
    2654:	8813      	ldrh	r3, [r2, #0]
    2656:	b29b      	uxth	r3, r3
    2658:	f043 0380 	orr.w	r3, r3, #128	; 0x80
    265c:	8013      	strh	r3, [r2, #0]
    265e:	68a2      	ldr	r2, [r4, #8]
    2660:	8913      	ldrh	r3, [r2, #8]
    2662:	f003 030e 	and.w	r3, r3, #14
    2666:	8113      	strh	r3, [r2, #8]
    2668:	68a2      	ldr	r2, [r4, #8]
    266a:	8b53      	ldrh	r3, [r2, #26]
    266c:	b29b      	uxth	r3, r3
    266e:	f023 030f 	bic.w	r3, r3, #15
    2672:	b29b      	uxth	r3, r3
    2674:	8353      	strh	r3, [r2, #26]
    2676:	6823      	ldr	r3, [r4, #0]
    2678:	68db      	ldr	r3, [r3, #12]
    267a:	8a21      	ldrh	r1, [r4, #16]
    267c:	4620      	mov	r0, r4
    267e:	4798      	blx	r3
    2680:	6823      	ldr	r3, [r4, #0]
    2682:	691b      	ldr	r3, [r3, #16]
    2684:	68e1      	ldr	r1, [r4, #12]
    2686:	4620      	mov	r0, r4
    2688:	4798      	blx	r3
    268a:	7125      	strb	r5, [r4, #4]
    268c:	bd38      	pop	{r3, r4, r5, pc}
    268e:	2301      	movs	r3, #1
    2690:	7483      	strb	r3, [r0, #18]
    2692:	2302      	movs	r3, #2
    2694:	74c3      	strb	r3, [r0, #19]
    2696:	2303      	movs	r3, #3
    2698:	7503      	strb	r3, [r0, #20]
    269a:	e7c6      	b.n	262a <uart_msp432::init()+0x2a>
    269c:	2302      	movs	r3, #2
    269e:	7483      	strb	r3, [r0, #18]
    26a0:	74c3      	strb	r3, [r0, #19]
    26a2:	2303      	movs	r3, #3
    26a4:	7503      	strb	r3, [r0, #20]
    26a6:	e7c0      	b.n	262a <uart_msp432::init()+0x2a>
    26a8:	2303      	movs	r3, #3
    26aa:	7483      	strb	r3, [r0, #18]
    26ac:	2202      	movs	r2, #2
    26ae:	74c2      	strb	r2, [r0, #19]
    26b0:	7503      	strb	r3, [r0, #20]
    26b2:	e7ba      	b.n	262a <uart_msp432::init()+0x2a>
    26b4:	4b08      	ldr	r3, [pc, #32]	; (26d8 <uart_msp432::init()+0xd8>)
    26b6:	4a09      	ldr	r2, [pc, #36]	; (26dc <uart_msp432::init()+0xdc>)
    26b8:	601a      	str	r2, [r3, #0]
    26ba:	4b09      	ldr	r3, [pc, #36]	; (26e0 <uart_msp432::init()+0xe0>)
    26bc:	2220      	movs	r2, #32
    26be:	601a      	str	r2, [r3, #0]
    26c0:	f7ff fe9e 	bl	2400 <yahal_assert_func()>
    26c4:	40001000 	.word	0x40001000
    26c8:	40001400 	.word	0x40001400
    26cc:	40001800 	.word	0x40001800
    26d0:	40001c00 	.word	0x40001c00
    26d4:	2000016c 	.word	0x2000016c
    26d8:	200000c0 	.word	0x200000c0
    26dc:	0000ed90 	.word	0x0000ed90
    26e0:	200000dc 	.word	0x200000dc

000026e4 <uart_msp432::available()>:
    26e4:	b510      	push	{r4, lr}
    26e6:	4604      	mov	r4, r0
    26e8:	7903      	ldrb	r3, [r0, #4]
    26ea:	b123      	cbz	r3, 26f6 <uart_msp432::available()+0x12>
    26ec:	68a3      	ldr	r3, [r4, #8]
    26ee:	8b98      	ldrh	r0, [r3, #28]
    26f0:	f000 0001 	and.w	r0, r0, #1
    26f4:	bd10      	pop	{r4, pc}
    26f6:	f7ff ff83 	bl	2600 <uart_msp432::init()>
    26fa:	e7f7      	b.n	26ec <uart_msp432::available()+0x8>

000026fc <uart_msp432::getc()>:
    26fc:	b510      	push	{r4, lr}
    26fe:	4604      	mov	r4, r0
    2700:	7903      	ldrb	r3, [r0, #4]
    2702:	b13b      	cbz	r3, 2714 <uart_msp432::getc()+0x18>
    2704:	68a3      	ldr	r3, [r4, #8]
    2706:	8b9a      	ldrh	r2, [r3, #28]
    2708:	f012 0f01 	tst.w	r2, #1
    270c:	d0fa      	beq.n	2704 <uart_msp432::getc()+0x8>
    270e:	8998      	ldrh	r0, [r3, #12]
    2710:	b2c0      	uxtb	r0, r0
    2712:	bd10      	pop	{r4, pc}
    2714:	f7ff ff74 	bl	2600 <uart_msp432::init()>
    2718:	e7f4      	b.n	2704 <uart_msp432::getc()+0x8>

0000271a <uart_msp432::putc(char)>:
    271a:	b538      	push	{r3, r4, r5, lr}
    271c:	4604      	mov	r4, r0
    271e:	460d      	mov	r5, r1
    2720:	7903      	ldrb	r3, [r0, #4]
    2722:	b133      	cbz	r3, 2732 <uart_msp432::putc(char)+0x18>
    2724:	68a3      	ldr	r3, [r4, #8]
    2726:	8b9a      	ldrh	r2, [r3, #28]
    2728:	f012 0f02 	tst.w	r2, #2
    272c:	d0fa      	beq.n	2724 <uart_msp432::putc(char)+0xa>
    272e:	81dd      	strh	r5, [r3, #14]
    2730:	bd38      	pop	{r3, r4, r5, pc}
    2732:	f7ff ff65 	bl	2600 <uart_msp432::init()>
    2736:	e7f5      	b.n	2724 <uart_msp432::putc(char)+0xa>

00002738 <std::function<void (char)>::operator=(decltype(nullptr))>:
    2738:	b510      	push	{r4, lr}
    273a:	4604      	mov	r4, r0
    273c:	6883      	ldr	r3, [r0, #8]
    273e:	b12b      	cbz	r3, 274c <std::function<void (char)>::operator=(decltype(nullptr))+0x14>
    2740:	2203      	movs	r2, #3
    2742:	4601      	mov	r1, r0
    2744:	4798      	blx	r3
    2746:	2300      	movs	r3, #0
    2748:	60a3      	str	r3, [r4, #8]
    274a:	60e3      	str	r3, [r4, #12]
    274c:	4620      	mov	r0, r4
    274e:	bd10      	pop	{r4, pc}

00002750 <uart_msp432::uartDetachIrq()>:
    2750:	b538      	push	{r3, r4, r5, lr}
    2752:	4604      	mov	r4, r0
    2754:	7903      	ldrb	r3, [r0, #4]
    2756:	b17b      	cbz	r3, 2778 <uart_msp432::uartDetachIrq()+0x28>
    2758:	68a3      	ldr	r3, [r4, #8]
    275a:	f3c3 2481 	ubfx	r4, r3, #10, #2
    275e:	2500      	movs	r5, #0
    2760:	835d      	strh	r5, [r3, #26]
    2762:	f104 0010 	add.w	r0, r4, #16
    2766:	f7ff fe39 	bl	23dc <__NVIC_DisableIRQ>
    276a:	4629      	mov	r1, r5
    276c:	4804      	ldr	r0, [pc, #16]	; (2780 <uart_msp432::uartDetachIrq()+0x30>)
    276e:	eb00 1004 	add.w	r0, r0, r4, lsl #4
    2772:	f7ff ffe1 	bl	2738 <std::function<void (char)>::operator=(decltype(nullptr))>
    2776:	bd38      	pop	{r3, r4, r5, pc}
    2778:	f7ff ff42 	bl	2600 <uart_msp432::init()>
    277c:	e7ec      	b.n	2758 <uart_msp432::uartDetachIrq()+0x8>
    277e:	bf00      	nop
    2780:	20000594 	.word	0x20000594

00002784 <std::function<void (char)>::operator()(char) const>:
    2784:	b500      	push	{lr}
    2786:	b083      	sub	sp, #12
    2788:	f88d 1007 	strb.w	r1, [sp, #7]
    278c:	6883      	ldr	r3, [r0, #8]
    278e:	b133      	cbz	r3, 279e <std::function<void (char)>::operator()(char) const+0x1a>
    2790:	68c3      	ldr	r3, [r0, #12]
    2792:	f10d 0107 	add.w	r1, sp, #7
    2796:	4798      	blx	r3
    2798:	b003      	add	sp, #12
    279a:	f85d fb04 	ldr.w	pc, [sp], #4
    279e:	f000 fbc9 	bl	2f34 <__yahal_bad_function_call>
	...

000027a4 <uart_msp432::handleIrq(EUSCI_A_Type*)>:
    27a4:	b508      	push	{r3, lr}
    27a6:	8981      	ldrh	r1, [r0, #12]
    27a8:	f3c0 2081 	ubfx	r0, r0, #10, #2
    27ac:	4b04      	ldr	r3, [pc, #16]	; (27c0 <uart_msp432::handleIrq(EUSCI_A_Type*)+0x1c>)
    27ae:	eb03 1000 	add.w	r0, r3, r0, lsl #4
    27b2:	6883      	ldr	r3, [r0, #8]
    27b4:	b113      	cbz	r3, 27bc <uart_msp432::handleIrq(EUSCI_A_Type*)+0x18>
    27b6:	b2c9      	uxtb	r1, r1
    27b8:	f7ff ffe4 	bl	2784 <std::function<void (char)>::operator()(char) const>
    27bc:	bd08      	pop	{r3, pc}
    27be:	bf00      	nop
    27c0:	20000594 	.word	0x20000594

000027c4 <EUSCIA0_UART_IRQHandler>:
    27c4:	b508      	push	{r3, lr}
    27c6:	4802      	ldr	r0, [pc, #8]	; (27d0 <EUSCIA0_UART_IRQHandler+0xc>)
    27c8:	f7ff ffec 	bl	27a4 <uart_msp432::handleIrq(EUSCI_A_Type*)>
    27cc:	bd08      	pop	{r3, pc}
    27ce:	bf00      	nop
    27d0:	40001000 	.word	0x40001000

000027d4 <EUSCIA1_UART_IRQHandler>:
    27d4:	b508      	push	{r3, lr}
    27d6:	4802      	ldr	r0, [pc, #8]	; (27e0 <EUSCIA1_UART_IRQHandler+0xc>)
    27d8:	f7ff ffe4 	bl	27a4 <uart_msp432::handleIrq(EUSCI_A_Type*)>
    27dc:	bd08      	pop	{r3, pc}
    27de:	bf00      	nop
    27e0:	40001400 	.word	0x40001400

000027e4 <EUSCIA2_UART_IRQHandler>:
    27e4:	b508      	push	{r3, lr}
    27e6:	4802      	ldr	r0, [pc, #8]	; (27f0 <EUSCIA2_UART_IRQHandler+0xc>)
    27e8:	f7ff ffdc 	bl	27a4 <uart_msp432::handleIrq(EUSCI_A_Type*)>
    27ec:	bd08      	pop	{r3, pc}
    27ee:	bf00      	nop
    27f0:	40001800 	.word	0x40001800

000027f4 <EUSCIA3_UART_IRQHandler>:
    27f4:	b508      	push	{r3, lr}
    27f6:	4802      	ldr	r0, [pc, #8]	; (2800 <EUSCIA3_UART_IRQHandler+0xc>)
    27f8:	f7ff ffd4 	bl	27a4 <uart_msp432::handleIrq(EUSCI_A_Type*)>
    27fc:	bd08      	pop	{r3, pc}
    27fe:	bf00      	nop
    2800:	40001c00 	.word	0x40001c00

00002804 <std::function<void (char)>::function(std::function<void (char)> const&)>:
    2804:	b538      	push	{r3, r4, r5, lr}
    2806:	4604      	mov	r4, r0
    2808:	2300      	movs	r3, #0
    280a:	6003      	str	r3, [r0, #0]
    280c:	6043      	str	r3, [r0, #4]
    280e:	6083      	str	r3, [r0, #8]
    2810:	60c3      	str	r3, [r0, #12]
    2812:	688b      	ldr	r3, [r1, #8]
    2814:	b133      	cbz	r3, 2824 <std::function<void (char)>::function(std::function<void (char)> const&)+0x20>
    2816:	460d      	mov	r5, r1
    2818:	2202      	movs	r2, #2
    281a:	4798      	blx	r3
    281c:	68eb      	ldr	r3, [r5, #12]
    281e:	60e3      	str	r3, [r4, #12]
    2820:	68ab      	ldr	r3, [r5, #8]
    2822:	60a3      	str	r3, [r4, #8]
    2824:	4620      	mov	r0, r4
    2826:	bd38      	pop	{r3, r4, r5, pc}

00002828 <std::function<void (char)>::swap(std::function<void (char)>&)>:
    2828:	b538      	push	{r3, r4, r5, lr}
    282a:	4605      	mov	r5, r0
    282c:	460c      	mov	r4, r1
    282e:	f7ff f9bb 	bl	1ba8 <std::enable_if<std::__and_<std::__not_<std::__is_tuple_like<std::_Any_data> >, std::is_move_constructible<std::_Any_data>, std::is_move_assignable<std::_Any_data> >::value, void>::type std::swap<std::_Any_data>(std::_Any_data&, std::_Any_data&)>
    2832:	68ab      	ldr	r3, [r5, #8]
    2834:	68a2      	ldr	r2, [r4, #8]
    2836:	60aa      	str	r2, [r5, #8]
    2838:	60a3      	str	r3, [r4, #8]
    283a:	68eb      	ldr	r3, [r5, #12]
    283c:	68e2      	ldr	r2, [r4, #12]
    283e:	60ea      	str	r2, [r5, #12]
    2840:	60e3      	str	r3, [r4, #12]
    2842:	bd38      	pop	{r3, r4, r5, pc}

00002844 <std::function<void (char)>::operator=(std::function<void (char)> const&)>:
    2844:	b510      	push	{r4, lr}
    2846:	b084      	sub	sp, #16
    2848:	4604      	mov	r4, r0
    284a:	4668      	mov	r0, sp
    284c:	f7ff ffda 	bl	2804 <std::function<void (char)>::function(std::function<void (char)> const&)>
    2850:	4621      	mov	r1, r4
    2852:	4668      	mov	r0, sp
    2854:	f7ff ffe8 	bl	2828 <std::function<void (char)>::swap(std::function<void (char)>&)>
    2858:	4668      	mov	r0, sp
    285a:	f7fe ff6d 	bl	1738 <std::_Function_base::~_Function_base()>
    285e:	4620      	mov	r0, r4
    2860:	b004      	add	sp, #16
    2862:	bd10      	pop	{r4, pc}

00002864 <uart_msp432::uartAttachIrq(std::function<void (char)>)>:
    2864:	b570      	push	{r4, r5, r6, lr}
    2866:	4604      	mov	r4, r0
    2868:	460e      	mov	r6, r1
    286a:	7903      	ldrb	r3, [r0, #4]
    286c:	b183      	cbz	r3, 2890 <uart_msp432::uartAttachIrq(std::function<void (char)>)+0x2c>
    286e:	68a5      	ldr	r5, [r4, #8]
    2870:	f3c5 2581 	ubfx	r5, r5, #10, #2
    2874:	4631      	mov	r1, r6
    2876:	4808      	ldr	r0, [pc, #32]	; (2898 <uart_msp432::uartAttachIrq(std::function<void (char)>)+0x34>)
    2878:	eb00 1005 	add.w	r0, r0, r5, lsl #4
    287c:	f7ff ffe2 	bl	2844 <std::function<void (char)>::operator=(std::function<void (char)> const&)>
    2880:	68a3      	ldr	r3, [r4, #8]
    2882:	2201      	movs	r2, #1
    2884:	835a      	strh	r2, [r3, #26]
    2886:	f105 0010 	add.w	r0, r5, #16
    288a:	f7ff fd99 	bl	23c0 <__NVIC_EnableIRQ>
    288e:	bd70      	pop	{r4, r5, r6, pc}
    2890:	f7ff feb6 	bl	2600 <uart_msp432::init()>
    2894:	e7eb      	b.n	286e <uart_msp432::uartAttachIrq(std::function<void (char)>)+0xa>
    2896:	bf00      	nop
    2898:	20000594 	.word	0x20000594

0000289c <_GLOBAL__sub_I_UART_CLK>:
    289c:	b508      	push	{r3, lr}
    289e:	f64f 71ff 	movw	r1, #65535	; 0xffff
    28a2:	2001      	movs	r0, #1
    28a4:	f7ff fe58 	bl	2558 <__static_initialization_and_destruction_0(int, int)>
    28a8:	bd08      	pop	{r3, pc}
	...

000028ac <calculate_DCO_clock>:
    28ac:	b082      	sub	sp, #8
    28ae:	9001      	str	r0, [sp, #4]
    28b0:	4b30      	ldr	r3, [pc, #192]	; (2974 <calculate_DCO_clock+0xc8>)
    28b2:	685b      	ldr	r3, [r3, #4]
    28b4:	b21a      	sxth	r2, r3
    28b6:	f3c3 0309 	ubfx	r3, r3, #0, #10
    28ba:	2b00      	cmp	r3, #0
    28bc:	d058      	beq.n	2970 <calculate_DCO_clock+0xc4>
    28be:	f412 7f00 	tst.w	r2, #512	; 0x200
    28c2:	d003      	beq.n	28cc <calculate_DCO_clock+0x20>
    28c4:	ea6f 5383 	mvn.w	r3, r3, lsl #22
    28c8:	ea6f 5393 	mvn.w	r3, r3, lsr #22
    28cc:	4a29      	ldr	r2, [pc, #164]	; (2974 <calculate_DCO_clock+0xc8>)
    28ce:	6852      	ldr	r2, [r2, #4]
    28d0:	f412 0f80 	tst.w	r2, #4194304	; 0x400000
    28d4:	d035      	beq.n	2942 <calculate_DCO_clock+0x96>
    28d6:	4a27      	ldr	r2, [pc, #156]	; (2974 <calculate_DCO_clock+0xc8>)
    28d8:	6852      	ldr	r2, [r2, #4]
    28da:	f402 22e0 	and.w	r2, r2, #458752	; 0x70000
    28de:	f5b2 2fa0 	cmp.w	r2, #327680	; 0x50000
    28e2:	d026      	beq.n	2932 <calculate_DCO_clock+0x86>
    28e4:	4a24      	ldr	r2, [pc, #144]	; (2978 <calculate_DCO_clock+0xcc>)
    28e6:	ed92 6a21 	vldr	s12, [r2, #132]	; 0x84
    28ea:	eeb8 6a46 	vcvt.f32.u32	s12, s12
    28ee:	edd2 7a1b 	vldr	s15, [r2, #108]	; 0x6c
    28f2:	eef7 6a00 	vmov.f32	s13, #112	; 0x3f800000  1.0
    28f6:	ee86 7a86 	vdiv.f32	s14, s13, s12
    28fa:	ed9f 6a20 	vldr	s12, [pc, #128]	; 297c <calculate_DCO_clock+0xd0>
    28fe:	ee37 7a06 	vadd.f32	s14, s14, s12
    2902:	eef8 7a67 	vcvt.f32.u32	s15, s15
    2906:	ee37 7a67 	vsub.f32	s14, s14, s15
    290a:	eddd 7a01 	vldr	s15, [sp, #4]
    290e:	eeb8 6a67 	vcvt.f32.u32	s12, s15
    2912:	ee07 3a90 	vmov	s15, r3
    2916:	eef8 7ae7 	vcvt.f32.s32	s15, s15
    291a:	eec7 5a87 	vdiv.f32	s11, s15, s14
    291e:	ee76 6ae5 	vsub.f32	s13, s13, s11
    2922:	eec6 7a26 	vdiv.f32	s15, s12, s13
    2926:	eefc 7ae7 	vcvt.u32.f32	s15, s15
    292a:	ee17 0a90 	vmov	r0, s15
    292e:	b002      	add	sp, #8
    2930:	4770      	bx	lr
    2932:	4a11      	ldr	r2, [pc, #68]	; (2978 <calculate_DCO_clock+0xcc>)
    2934:	ed92 6a22 	vldr	s12, [r2, #136]	; 0x88
    2938:	eeb8 6a46 	vcvt.f32.u32	s12, s12
    293c:	edd2 7a1c 	vldr	s15, [r2, #112]	; 0x70
    2940:	e7d7      	b.n	28f2 <calculate_DCO_clock+0x46>
    2942:	4a0c      	ldr	r2, [pc, #48]	; (2974 <calculate_DCO_clock+0xc8>)
    2944:	6852      	ldr	r2, [r2, #4]
    2946:	f402 22e0 	and.w	r2, r2, #458752	; 0x70000
    294a:	f5b2 2fa0 	cmp.w	r2, #327680	; 0x50000
    294e:	d007      	beq.n	2960 <calculate_DCO_clock+0xb4>
    2950:	4a09      	ldr	r2, [pc, #36]	; (2978 <calculate_DCO_clock+0xcc>)
    2952:	ed92 6a19 	vldr	s12, [r2, #100]	; 0x64
    2956:	eeb8 6a46 	vcvt.f32.u32	s12, s12
    295a:	edd2 7a13 	vldr	s15, [r2, #76]	; 0x4c
    295e:	e7c8      	b.n	28f2 <calculate_DCO_clock+0x46>
    2960:	4a05      	ldr	r2, [pc, #20]	; (2978 <calculate_DCO_clock+0xcc>)
    2962:	ed92 6a1a 	vldr	s12, [r2, #104]	; 0x68
    2966:	eeb8 6a46 	vcvt.f32.u32	s12, s12
    296a:	edd2 7a14 	vldr	s15, [r2, #80]	; 0x50
    296e:	e7c0      	b.n	28f2 <calculate_DCO_clock+0x46>
    2970:	9801      	ldr	r0, [sp, #4]
    2972:	e7dc      	b.n	292e <calculate_DCO_clock+0x82>
    2974:	40010400 	.word	0x40010400
    2978:	00201000 	.word	0x00201000
    297c:	44400000 	.word	0x44400000

00002980 <SystemCoreClockUpdate>:
    2980:	b510      	push	{r4, lr}
    2982:	4b51      	ldr	r3, [pc, #324]	; (2ac8 <SystemCoreClockUpdate+0x148>)
    2984:	689b      	ldr	r3, [r3, #8]
    2986:	f003 0307 	and.w	r3, r3, #7
    298a:	2b05      	cmp	r3, #5
    298c:	d817      	bhi.n	29be <SystemCoreClockUpdate+0x3e>
    298e:	e8df f003 	tbb	[pc, r3]
    2992:	1203      	.short	0x1203
    2994:	4a463a2b 	.word	0x4a463a2b
    2998:	4b4b      	ldr	r3, [pc, #300]	; (2ac8 <SystemCoreClockUpdate+0x148>)
    299a:	6c9b      	ldr	r3, [r3, #72]	; 0x48
    299c:	f013 0f01 	tst.w	r3, #1
    29a0:	d004      	beq.n	29ac <SystemCoreClockUpdate+0x2c>
    29a2:	4b4a      	ldr	r3, [pc, #296]	; (2acc <SystemCoreClockUpdate+0x14c>)
    29a4:	f44f 4200 	mov.w	r2, #32768	; 0x8000
    29a8:	601a      	str	r2, [r3, #0]
    29aa:	e008      	b.n	29be <SystemCoreClockUpdate+0x3e>
    29ac:	4b48      	ldr	r3, [pc, #288]	; (2ad0 <SystemCoreClockUpdate+0x150>)
    29ae:	681a      	ldr	r2, [r3, #0]
    29b0:	4b46      	ldr	r3, [pc, #280]	; (2acc <SystemCoreClockUpdate+0x14c>)
    29b2:	601a      	str	r2, [r3, #0]
    29b4:	e003      	b.n	29be <SystemCoreClockUpdate+0x3e>
    29b6:	4b45      	ldr	r3, [pc, #276]	; (2acc <SystemCoreClockUpdate+0x14c>)
    29b8:	f242 42b8 	movw	r2, #9400	; 0x24b8
    29bc:	601a      	str	r2, [r3, #0]
    29be:	4b42      	ldr	r3, [pc, #264]	; (2ac8 <SystemCoreClockUpdate+0x148>)
    29c0:	689b      	ldr	r3, [r3, #8]
    29c2:	f003 0370 	and.w	r3, r3, #112	; 0x70
    29c6:	2b30      	cmp	r3, #48	; 0x30
    29c8:	d069      	beq.n	2a9e <SystemCoreClockUpdate+0x11e>
    29ca:	d851      	bhi.n	2a70 <SystemCoreClockUpdate+0xf0>
    29cc:	2b10      	cmp	r3, #16
    29ce:	d05c      	beq.n	2a8a <SystemCoreClockUpdate+0x10a>
    29d0:	2b20      	cmp	r3, #32
    29d2:	d136      	bne.n	2a42 <SystemCoreClockUpdate+0xc2>
    29d4:	4b3c      	ldr	r3, [pc, #240]	; (2ac8 <SystemCoreClockUpdate+0x148>)
    29d6:	6b1b      	ldr	r3, [r3, #48]	; 0x30
    29d8:	f413 4f00 	tst.w	r3, #32768	; 0x8000
    29dc:	d05a      	beq.n	2a94 <SystemCoreClockUpdate+0x114>
    29de:	4b3d      	ldr	r3, [pc, #244]	; (2ad4 <SystemCoreClockUpdate+0x154>)
    29e0:	f44f 32fa 	mov.w	r2, #128000	; 0x1f400
    29e4:	601a      	str	r2, [r3, #0]
    29e6:	e033      	b.n	2a50 <SystemCoreClockUpdate+0xd0>
    29e8:	4b37      	ldr	r3, [pc, #220]	; (2ac8 <SystemCoreClockUpdate+0x148>)
    29ea:	6b1b      	ldr	r3, [r3, #48]	; 0x30
    29ec:	f413 4f00 	tst.w	r3, #32768	; 0x8000
    29f0:	d004      	beq.n	29fc <SystemCoreClockUpdate+0x7c>
    29f2:	4b36      	ldr	r3, [pc, #216]	; (2acc <SystemCoreClockUpdate+0x14c>)
    29f4:	f44f 32fa 	mov.w	r2, #128000	; 0x1f400
    29f8:	601a      	str	r2, [r3, #0]
    29fa:	e7e0      	b.n	29be <SystemCoreClockUpdate+0x3e>
    29fc:	4b33      	ldr	r3, [pc, #204]	; (2acc <SystemCoreClockUpdate+0x14c>)
    29fe:	f44f 4200 	mov.w	r2, #32768	; 0x8000
    2a02:	601a      	str	r2, [r3, #0]
    2a04:	e7db      	b.n	29be <SystemCoreClockUpdate+0x3e>
    2a06:	4b30      	ldr	r3, [pc, #192]	; (2ac8 <SystemCoreClockUpdate+0x148>)
    2a08:	685b      	ldr	r3, [r3, #4]
    2a0a:	f3c3 4302 	ubfx	r3, r3, #16, #3
    2a0e:	4832      	ldr	r0, [pc, #200]	; (2ad8 <SystemCoreClockUpdate+0x158>)
    2a10:	4098      	lsls	r0, r3
    2a12:	4c2e      	ldr	r4, [pc, #184]	; (2acc <SystemCoreClockUpdate+0x14c>)
    2a14:	6020      	str	r0, [r4, #0]
    2a16:	f7ff ff49 	bl	28ac <calculate_DCO_clock>
    2a1a:	6020      	str	r0, [r4, #0]
    2a1c:	e7cf      	b.n	29be <SystemCoreClockUpdate+0x3e>
    2a1e:	4b2b      	ldr	r3, [pc, #172]	; (2acc <SystemCoreClockUpdate+0x14c>)
    2a20:	4a2e      	ldr	r2, [pc, #184]	; (2adc <SystemCoreClockUpdate+0x15c>)
    2a22:	601a      	str	r2, [r3, #0]
    2a24:	e7cb      	b.n	29be <SystemCoreClockUpdate+0x3e>
    2a26:	4b28      	ldr	r3, [pc, #160]	; (2ac8 <SystemCoreClockUpdate+0x148>)
    2a28:	6c9b      	ldr	r3, [r3, #72]	; 0x48
    2a2a:	f013 0f02 	tst.w	r3, #2
    2a2e:	d003      	beq.n	2a38 <SystemCoreClockUpdate+0xb8>
    2a30:	4b26      	ldr	r3, [pc, #152]	; (2acc <SystemCoreClockUpdate+0x14c>)
    2a32:	4a2b      	ldr	r2, [pc, #172]	; (2ae0 <SystemCoreClockUpdate+0x160>)
    2a34:	601a      	str	r2, [r3, #0]
    2a36:	e7c2      	b.n	29be <SystemCoreClockUpdate+0x3e>
    2a38:	4b2a      	ldr	r3, [pc, #168]	; (2ae4 <SystemCoreClockUpdate+0x164>)
    2a3a:	681a      	ldr	r2, [r3, #0]
    2a3c:	4b23      	ldr	r3, [pc, #140]	; (2acc <SystemCoreClockUpdate+0x14c>)
    2a3e:	601a      	str	r2, [r3, #0]
    2a40:	e7bd      	b.n	29be <SystemCoreClockUpdate+0x3e>
    2a42:	b92b      	cbnz	r3, 2a50 <SystemCoreClockUpdate+0xd0>
    2a44:	4b20      	ldr	r3, [pc, #128]	; (2ac8 <SystemCoreClockUpdate+0x148>)
    2a46:	6c9b      	ldr	r3, [r3, #72]	; 0x48
    2a48:	4b21      	ldr	r3, [pc, #132]	; (2ad0 <SystemCoreClockUpdate+0x150>)
    2a4a:	681a      	ldr	r2, [r3, #0]
    2a4c:	4b21      	ldr	r3, [pc, #132]	; (2ad4 <SystemCoreClockUpdate+0x154>)
    2a4e:	601a      	str	r2, [r3, #0]
    2a50:	4b1d      	ldr	r3, [pc, #116]	; (2ac8 <SystemCoreClockUpdate+0x148>)
    2a52:	6899      	ldr	r1, [r3, #8]
    2a54:	f3c1 4102 	ubfx	r1, r1, #16, #3
    2a58:	689a      	ldr	r2, [r3, #8]
    2a5a:	f3c2 7202 	ubfx	r2, r2, #28, #3
    2a5e:	481b      	ldr	r0, [pc, #108]	; (2acc <SystemCoreClockUpdate+0x14c>)
    2a60:	6803      	ldr	r3, [r0, #0]
    2a62:	40cb      	lsrs	r3, r1
    2a64:	6003      	str	r3, [r0, #0]
    2a66:	491b      	ldr	r1, [pc, #108]	; (2ad4 <SystemCoreClockUpdate+0x154>)
    2a68:	680b      	ldr	r3, [r1, #0]
    2a6a:	40d3      	lsrs	r3, r2
    2a6c:	600b      	str	r3, [r1, #0]
    2a6e:	bd10      	pop	{r4, pc}
    2a70:	2b40      	cmp	r3, #64	; 0x40
    2a72:	d020      	beq.n	2ab6 <SystemCoreClockUpdate+0x136>
    2a74:	2b50      	cmp	r3, #80	; 0x50
    2a76:	d1eb      	bne.n	2a50 <SystemCoreClockUpdate+0xd0>
    2a78:	4b13      	ldr	r3, [pc, #76]	; (2ac8 <SystemCoreClockUpdate+0x148>)
    2a7a:	6c9b      	ldr	r3, [r3, #72]	; 0x48
    2a7c:	f013 0f02 	tst.w	r3, #2
    2a80:	d01d      	beq.n	2abe <SystemCoreClockUpdate+0x13e>
    2a82:	4b14      	ldr	r3, [pc, #80]	; (2ad4 <SystemCoreClockUpdate+0x154>)
    2a84:	4a16      	ldr	r2, [pc, #88]	; (2ae0 <SystemCoreClockUpdate+0x160>)
    2a86:	601a      	str	r2, [r3, #0]
    2a88:	e7e2      	b.n	2a50 <SystemCoreClockUpdate+0xd0>
    2a8a:	4b12      	ldr	r3, [pc, #72]	; (2ad4 <SystemCoreClockUpdate+0x154>)
    2a8c:	f242 42b8 	movw	r2, #9400	; 0x24b8
    2a90:	601a      	str	r2, [r3, #0]
    2a92:	e7dd      	b.n	2a50 <SystemCoreClockUpdate+0xd0>
    2a94:	4b0f      	ldr	r3, [pc, #60]	; (2ad4 <SystemCoreClockUpdate+0x154>)
    2a96:	f44f 4200 	mov.w	r2, #32768	; 0x8000
    2a9a:	601a      	str	r2, [r3, #0]
    2a9c:	e7d8      	b.n	2a50 <SystemCoreClockUpdate+0xd0>
    2a9e:	4b0a      	ldr	r3, [pc, #40]	; (2ac8 <SystemCoreClockUpdate+0x148>)
    2aa0:	685b      	ldr	r3, [r3, #4]
    2aa2:	f3c3 4302 	ubfx	r3, r3, #16, #3
    2aa6:	480c      	ldr	r0, [pc, #48]	; (2ad8 <SystemCoreClockUpdate+0x158>)
    2aa8:	4098      	lsls	r0, r3
    2aaa:	4c0a      	ldr	r4, [pc, #40]	; (2ad4 <SystemCoreClockUpdate+0x154>)
    2aac:	6020      	str	r0, [r4, #0]
    2aae:	f7ff fefd 	bl	28ac <calculate_DCO_clock>
    2ab2:	6020      	str	r0, [r4, #0]
    2ab4:	e7cc      	b.n	2a50 <SystemCoreClockUpdate+0xd0>
    2ab6:	4b07      	ldr	r3, [pc, #28]	; (2ad4 <SystemCoreClockUpdate+0x154>)
    2ab8:	4a08      	ldr	r2, [pc, #32]	; (2adc <SystemCoreClockUpdate+0x15c>)
    2aba:	601a      	str	r2, [r3, #0]
    2abc:	e7c8      	b.n	2a50 <SystemCoreClockUpdate+0xd0>
    2abe:	4b09      	ldr	r3, [pc, #36]	; (2ae4 <SystemCoreClockUpdate+0x164>)
    2ac0:	681a      	ldr	r2, [r3, #0]
    2ac2:	4b04      	ldr	r3, [pc, #16]	; (2ad4 <SystemCoreClockUpdate+0x154>)
    2ac4:	601a      	str	r2, [r3, #0]
    2ac6:	e7c3      	b.n	2a50 <SystemCoreClockUpdate+0xd0>
    2ac8:	40010400 	.word	0x40010400
    2acc:	20000038 	.word	0x20000038
    2ad0:	200000a4 	.word	0x200000a4
    2ad4:	20000034 	.word	0x20000034
    2ad8:	0016e360 	.word	0x0016e360
    2adc:	017d7840 	.word	0x017d7840
    2ae0:	004c4b40 	.word	0x004c4b40
    2ae4:	200000a0 	.word	0x200000a0

00002ae8 <SystemInit>:
    2ae8:	b508      	push	{r3, lr}
    2aea:	4b3d      	ldr	r3, [pc, #244]	; (2be0 <SystemInit+0xf8>)
    2aec:	f44f 42b5 	mov.w	r2, #23168	; 0x5a80
    2af0:	819a      	strh	r2, [r3, #12]
    2af2:	4a3c      	ldr	r2, [pc, #240]	; (2be4 <SystemInit+0xfc>)
    2af4:	f8d2 3088 	ldr.w	r3, [r2, #136]	; 0x88
    2af8:	f443 0370 	orr.w	r3, r3, #15728640	; 0xf00000
    2afc:	f8c2 3088 	str.w	r3, [r2, #136]	; 0x88
    2b00:	4b39      	ldr	r3, [pc, #228]	; (2be8 <SystemInit+0x100>)
    2b02:	2280      	movs	r2, #128	; 0x80
    2b04:	615a      	str	r2, [r3, #20]
    2b06:	4b39      	ldr	r3, [pc, #228]	; (2bec <SystemInit+0x104>)
    2b08:	685b      	ldr	r3, [r3, #4]
    2b0a:	f413 7f80 	tst.w	r3, #256	; 0x100
    2b0e:	d1fa      	bne.n	2b06 <SystemInit+0x1e>
    2b10:	4b36      	ldr	r3, [pc, #216]	; (2bec <SystemInit+0x104>)
    2b12:	4a37      	ldr	r2, [pc, #220]	; (2bf0 <SystemInit+0x108>)
    2b14:	601a      	str	r2, [r3, #0]
    2b16:	4b35      	ldr	r3, [pc, #212]	; (2bec <SystemInit+0x104>)
    2b18:	685b      	ldr	r3, [r3, #4]
    2b1a:	f413 7f80 	tst.w	r3, #256	; 0x100
    2b1e:	d1fa      	bne.n	2b16 <SystemInit+0x2e>
    2b20:	4b34      	ldr	r3, [pc, #208]	; (2bf4 <SystemInit+0x10c>)
    2b22:	f241 0230 	movw	r2, #4144	; 0x1030
    2b26:	611a      	str	r2, [r3, #16]
    2b28:	615a      	str	r2, [r3, #20]
    2b2a:	4933      	ldr	r1, [pc, #204]	; (2bf8 <SystemInit+0x110>)
    2b2c:	f646 135a 	movw	r3, #26970	; 0x695a
    2b30:	600b      	str	r3, [r1, #0]
    2b32:	4b32      	ldr	r3, [pc, #200]	; (2bfc <SystemInit+0x114>)
    2b34:	4a32      	ldr	r2, [pc, #200]	; (2c00 <SystemInit+0x118>)
    2b36:	601a      	str	r2, [r3, #0]
    2b38:	4a32      	ldr	r2, [pc, #200]	; (2c04 <SystemInit+0x11c>)
    2b3a:	8d53      	ldrh	r3, [r2, #42]	; 0x2a
    2b3c:	b29b      	uxth	r3, r3
    2b3e:	f043 0308 	orr.w	r3, r3, #8
    2b42:	8553      	strh	r3, [r2, #42]	; 0x2a
    2b44:	8d93      	ldrh	r3, [r2, #44]	; 0x2c
    2b46:	b29b      	uxth	r3, r3
    2b48:	f023 0308 	bic.w	r3, r3, #8
    2b4c:	b29b      	uxth	r3, r3
    2b4e:	8593      	strh	r3, [r2, #44]	; 0x2c
    2b50:	68cb      	ldr	r3, [r1, #12]
    2b52:	f043 73b0 	orr.w	r3, r3, #23068672	; 0x1600000
    2b56:	f443 3380 	orr.w	r3, r3, #65536	; 0x10000
    2b5a:	60cb      	str	r3, [r1, #12]
    2b5c:	2300      	movs	r3, #0
    2b5e:	e000      	b.n	2b62 <SystemInit+0x7a>
    2b60:	3301      	adds	r3, #1
    2b62:	2bc7      	cmp	r3, #199	; 0xc7
    2b64:	dc0a      	bgt.n	2b7c <SystemInit+0x94>
    2b66:	4a24      	ldr	r2, [pc, #144]	; (2bf8 <SystemInit+0x110>)
    2b68:	6c92      	ldr	r2, [r2, #72]	; 0x48
    2b6a:	f012 0f02 	tst.w	r2, #2
    2b6e:	d0f7      	beq.n	2b60 <SystemInit+0x78>
    2b70:	4921      	ldr	r1, [pc, #132]	; (2bf8 <SystemInit+0x110>)
    2b72:	6d0a      	ldr	r2, [r1, #80]	; 0x50
    2b74:	f042 0202 	orr.w	r2, r2, #2
    2b78:	650a      	str	r2, [r1, #80]	; 0x50
    2b7a:	e7f1      	b.n	2b60 <SystemInit+0x78>
    2b7c:	4b22      	ldr	r3, [pc, #136]	; (2c08 <SystemInit+0x120>)
    2b7e:	f44f 4200 	mov.w	r2, #32768	; 0x8000
    2b82:	601a      	str	r2, [r3, #0]
    2b84:	4a1f      	ldr	r2, [pc, #124]	; (2c04 <SystemInit+0x11c>)
    2b86:	8d53      	ldrh	r3, [r2, #42]	; 0x2a
    2b88:	b29b      	uxth	r3, r3
    2b8a:	f043 0301 	orr.w	r3, r3, #1
    2b8e:	8553      	strh	r3, [r2, #42]	; 0x2a
    2b90:	8d93      	ldrh	r3, [r2, #44]	; 0x2c
    2b92:	b29b      	uxth	r3, r3
    2b94:	f023 0301 	bic.w	r3, r3, #1
    2b98:	b29b      	uxth	r3, r3
    2b9a:	8593      	strh	r3, [r2, #44]	; 0x2c
    2b9c:	f502 4237 	add.w	r2, r2, #46848	; 0xb700
    2ba0:	68d3      	ldr	r3, [r2, #12]
    2ba2:	f443 7380 	orr.w	r3, r3, #256	; 0x100
    2ba6:	60d3      	str	r3, [r2, #12]
    2ba8:	2300      	movs	r3, #0
    2baa:	e000      	b.n	2bae <SystemInit+0xc6>
    2bac:	3301      	adds	r3, #1
    2bae:	2bc7      	cmp	r3, #199	; 0xc7
    2bb0:	dc0a      	bgt.n	2bc8 <SystemInit+0xe0>
    2bb2:	4a11      	ldr	r2, [pc, #68]	; (2bf8 <SystemInit+0x110>)
    2bb4:	6c92      	ldr	r2, [r2, #72]	; 0x48
    2bb6:	f012 0f01 	tst.w	r2, #1
    2bba:	d0f7      	beq.n	2bac <SystemInit+0xc4>
    2bbc:	490e      	ldr	r1, [pc, #56]	; (2bf8 <SystemInit+0x110>)
    2bbe:	6d0a      	ldr	r2, [r1, #80]	; 0x50
    2bc0:	f042 0201 	orr.w	r2, r2, #1
    2bc4:	650a      	str	r2, [r1, #80]	; 0x50
    2bc6:	e7f1      	b.n	2bac <SystemInit+0xc4>
    2bc8:	4b0b      	ldr	r3, [pc, #44]	; (2bf8 <SystemInit+0x110>)
    2bca:	f44f 3280 	mov.w	r2, #65536	; 0x10000
    2bce:	605a      	str	r2, [r3, #4]
    2bd0:	4a0e      	ldr	r2, [pc, #56]	; (2c0c <SystemInit+0x124>)
    2bd2:	609a      	str	r2, [r3, #8]
    2bd4:	2200      	movs	r2, #0
    2bd6:	601a      	str	r2, [r3, #0]
    2bd8:	f7ff fed2 	bl	2980 <SystemCoreClockUpdate>
    2bdc:	bd08      	pop	{r3, pc}
    2bde:	bf00      	nop
    2be0:	40004800 	.word	0x40004800
    2be4:	e000ed00 	.word	0xe000ed00
    2be8:	e0043000 	.word	0xe0043000
    2bec:	40010000 	.word	0x40010000
    2bf0:	695a0005 	.word	0x695a0005
    2bf4:	40011000 	.word	0x40011000
    2bf8:	40010400 	.word	0x40010400
    2bfc:	200000a0 	.word	0x200000a0
    2c00:	02dc6c00 	.word	0x02dc6c00
    2c04:	40004d00 	.word	0x40004d00
    2c08:	200000a4 	.word	0x200000a4
    2c0c:	10000055 	.word	0x10000055

00002c10 <yahal_assert_func()>:
    2c10:	e7fe      	b.n	2c10 <yahal_assert_func()>
	...

00002c14 <__static_initialization_and_destruction_0(int, int)>:
    2c14:	2801      	cmp	r0, #1
    2c16:	d000      	beq.n	2c1a <__static_initialization_and_destruction_0(int, int)+0x6>
    2c18:	4770      	bx	lr
    2c1a:	f64f 73ff 	movw	r3, #65535	; 0xffff
    2c1e:	4299      	cmp	r1, r3
    2c20:	d1fa      	bne.n	2c18 <__static_initialization_and_destruction_0(int, int)+0x4>
    2c22:	4b03      	ldr	r3, [pc, #12]	; (2c30 <__static_initialization_and_destruction_0(int, int)+0x1c>)
    2c24:	2200      	movs	r2, #0
    2c26:	601a      	str	r2, [r3, #0]
    2c28:	605a      	str	r2, [r3, #4]
    2c2a:	609a      	str	r2, [r3, #8]
    2c2c:	e7f4      	b.n	2c18 <__static_initialization_and_destruction_0(int, int)+0x4>
    2c2e:	bf00      	nop
    2c30:	20000678 	.word	0x20000678

00002c34 <task::task(char const*, unsigned short)>:
    2c34:	b570      	push	{r4, r5, r6, lr}
    2c36:	4604      	mov	r4, r0
    2c38:	4616      	mov	r6, r2
    2c3a:	4603      	mov	r3, r0
    2c3c:	4a16      	ldr	r2, [pc, #88]	; (2c98 <task::task(char const*, unsigned short)+0x64>)
    2c3e:	f843 2b44 	str.w	r2, [r3], #68
    2c42:	2500      	movs	r5, #0
    2c44:	6445      	str	r5, [r0, #68]	; 0x44
    2c46:	605d      	str	r5, [r3, #4]
    2c48:	609d      	str	r5, [r3, #8]
    2c4a:	6505      	str	r5, [r0, #80]	; 0x50
    2c4c:	220f      	movs	r2, #15
    2c4e:	3004      	adds	r0, #4
    2c50:	f002 fb39 	bl	52c6 <strncpy>
    2c54:	74e5      	strb	r5, [r4, #19]
    2c56:	7525      	strb	r5, [r4, #20]
    2c58:	2302      	movs	r3, #2
    2c5a:	7563      	strb	r3, [r4, #21]
    2c5c:	61a5      	str	r5, [r4, #24]
    2c5e:	61e5      	str	r5, [r4, #28]
    2c60:	2200      	movs	r2, #0
    2c62:	2300      	movs	r3, #0
    2c64:	e9c4 2308 	strd	r2, r3, [r4, #32]
    2c68:	62a5      	str	r5, [r4, #40]	; 0x28
    2c6a:	8626      	strh	r6, [r4, #48]	; 0x30
    2c6c:	4630      	mov	r0, r6
    2c6e:	f001 ff9b 	bl	4ba8 <operator new[](unsigned int)>
    2c72:	62e0      	str	r0, [r4, #44]	; 0x2c
    2c74:	b138      	cbz	r0, 2c86 <task::task(char const*, unsigned short)+0x52>
    2c76:	2300      	movs	r3, #0
    2c78:	6363      	str	r3, [r4, #52]	; 0x34
    2c7a:	f884 3038 	strb.w	r3, [r4, #56]	; 0x38
    2c7e:	63e3      	str	r3, [r4, #60]	; 0x3c
    2c80:	6423      	str	r3, [r4, #64]	; 0x40
    2c82:	4620      	mov	r0, r4
    2c84:	bd70      	pop	{r4, r5, r6, pc}
    2c86:	4b05      	ldr	r3, [pc, #20]	; (2c9c <task::task(char const*, unsigned short)+0x68>)
    2c88:	4a05      	ldr	r2, [pc, #20]	; (2ca0 <task::task(char const*, unsigned short)+0x6c>)
    2c8a:	601a      	str	r2, [r3, #0]
    2c8c:	4b05      	ldr	r3, [pc, #20]	; (2ca4 <task::task(char const*, unsigned short)+0x70>)
    2c8e:	2236      	movs	r2, #54	; 0x36
    2c90:	601a      	str	r2, [r3, #0]
    2c92:	f7ff ffbd 	bl	2c10 <yahal_assert_func()>
    2c96:	bf00      	nop
    2c98:	0000ee94 	.word	0x0000ee94
    2c9c:	200000c4 	.word	0x200000c4
    2ca0:	0000ee4c 	.word	0x0000ee4c
    2ca4:	200000e0 	.word	0x200000e0

00002ca8 <task::sleep(unsigned long)>:
    2ca8:	b510      	push	{r4, lr}
    2caa:	4b0e      	ldr	r3, [pc, #56]	; (2ce4 <task::sleep(unsigned long)+0x3c>)
    2cac:	681b      	ldr	r3, [r3, #0]
    2cae:	b1b3      	cbz	r3, 2cde <task::sleep(unsigned long)+0x36>
    2cb0:	490d      	ldr	r1, [pc, #52]	; (2ce8 <task::sleep(unsigned long)+0x40>)
    2cb2:	680a      	ldr	r2, [r1, #0]
    2cb4:	6849      	ldr	r1, [r1, #4]
    2cb6:	621a      	str	r2, [r3, #32]
    2cb8:	6259      	str	r1, [r3, #36]	; 0x24
    2cba:	f44f 747a 	mov.w	r4, #1000	; 0x3e8
    2cbe:	fb04 f000 	mul.w	r0, r4, r0
    2cc2:	4c0a      	ldr	r4, [pc, #40]	; (2cec <task::sleep(unsigned long)+0x44>)
    2cc4:	fba4 4000 	umull	r4, r0, r4, r0
    2cc8:	0980      	lsrs	r0, r0, #6
    2cca:	1812      	adds	r2, r2, r0
    2ccc:	f141 0100 	adc.w	r1, r1, #0
    2cd0:	621a      	str	r2, [r3, #32]
    2cd2:	6259      	str	r1, [r3, #36]	; 0x24
    2cd4:	2201      	movs	r2, #1
    2cd6:	755a      	strb	r2, [r3, #21]
    2cd8:	f000 fb84 	bl	33e4 <task::yield()>
    2cdc:	bd10      	pop	{r4, pc}
    2cde:	f000 fb5f 	bl	33a0 <task::_nonOS_sleep(unsigned long)>
    2ce2:	e7fb      	b.n	2cdc <task::sleep(unsigned long)+0x34>
    2ce4:	20000684 	.word	0x20000684
    2ce8:	20000098 	.word	0x20000098
    2cec:	10624dd3 	.word	0x10624dd3

00002cf0 <task::_scheduler()>:
    2cf0:	e92d 41f0 	stmdb	sp!, {r4, r5, r6, r7, r8, lr}
    2cf4:	4b21      	ldr	r3, [pc, #132]	; (2d7c <task::_scheduler()+0x8c>)
    2cf6:	681b      	ldr	r3, [r3, #0]
    2cf8:	6bdc      	ldr	r4, [r3, #60]	; 0x3c
    2cfa:	2500      	movs	r5, #0
    2cfc:	462e      	mov	r6, r5
    2cfe:	462f      	mov	r7, r5
    2d00:	e015      	b.n	2d2e <task::_scheduler()+0x3e>
    2d02:	6a21      	ldr	r1, [r4, #32]
    2d04:	6a62      	ldr	r2, [r4, #36]	; 0x24
    2d06:	4b1e      	ldr	r3, [pc, #120]	; (2d80 <task::_scheduler()+0x90>)
    2d08:	6818      	ldr	r0, [r3, #0]
    2d0a:	685b      	ldr	r3, [r3, #4]
    2d0c:	4288      	cmp	r0, r1
    2d0e:	4193      	sbcs	r3, r2
    2d10:	d316      	bcc.n	2d40 <task::_scheduler()+0x50>
    2d12:	2300      	movs	r3, #0
    2d14:	7563      	strb	r3, [r4, #21]
    2d16:	e013      	b.n	2d40 <task::_scheduler()+0x50>
    2d18:	6aa0      	ldr	r0, [r4, #40]	; 0x28
    2d1a:	6803      	ldr	r3, [r0, #0]
    2d1c:	689b      	ldr	r3, [r3, #8]
    2d1e:	4798      	blx	r3
    2d20:	b988      	cbnz	r0, 2d46 <task::_scheduler()+0x56>
    2d22:	2300      	movs	r3, #0
    2d24:	7563      	strb	r3, [r4, #21]
    2d26:	e00e      	b.n	2d46 <task::_scheduler()+0x56>
    2d28:	6be4      	ldr	r4, [r4, #60]	; 0x3c
    2d2a:	3501      	adds	r5, #1
    2d2c:	b2ad      	uxth	r5, r5
    2d2e:	4b15      	ldr	r3, [pc, #84]	; (2d84 <task::_scheduler()+0x94>)
    2d30:	689b      	ldr	r3, [r3, #8]
    2d32:	429d      	cmp	r5, r3
    2d34:	da0f      	bge.n	2d56 <task::_scheduler()+0x66>
    2d36:	f894 8014 	ldrb.w	r8, [r4, #20]
    2d3a:	7d63      	ldrb	r3, [r4, #21]
    2d3c:	2b01      	cmp	r3, #1
    2d3e:	d0e0      	beq.n	2d02 <task::_scheduler()+0x12>
    2d40:	7d63      	ldrb	r3, [r4, #21]
    2d42:	2b03      	cmp	r3, #3
    2d44:	d0e8      	beq.n	2d18 <task::_scheduler()+0x28>
    2d46:	7d63      	ldrb	r3, [r4, #21]
    2d48:	2b00      	cmp	r3, #0
    2d4a:	d1ed      	bne.n	2d28 <task::_scheduler()+0x38>
    2d4c:	4546      	cmp	r6, r8
    2d4e:	d2eb      	bcs.n	2d28 <task::_scheduler()+0x38>
    2d50:	4646      	mov	r6, r8
    2d52:	4627      	mov	r7, r4
    2d54:	e7e8      	b.n	2d28 <task::_scheduler()+0x38>
    2d56:	b14f      	cbz	r7, 2d6c <task::_scheduler()+0x7c>
    2d58:	4b08      	ldr	r3, [pc, #32]	; (2d7c <task::_scheduler()+0x8c>)
    2d5a:	681b      	ldr	r3, [r3, #0]
    2d5c:	42bb      	cmp	r3, r7
    2d5e:	d003      	beq.n	2d68 <task::_scheduler()+0x78>
    2d60:	4b09      	ldr	r3, [pc, #36]	; (2d88 <task::_scheduler()+0x98>)
    2d62:	601f      	str	r7, [r3, #0]
    2d64:	f000 fb14 	bl	3390 <task::_context_switch()>
    2d68:	e8bd 81f0 	ldmia.w	sp!, {r4, r5, r6, r7, r8, pc}
    2d6c:	4b07      	ldr	r3, [pc, #28]	; (2d8c <task::_scheduler()+0x9c>)
    2d6e:	4a08      	ldr	r2, [pc, #32]	; (2d90 <task::_scheduler()+0xa0>)
    2d70:	601a      	str	r2, [r3, #0]
    2d72:	4b08      	ldr	r3, [pc, #32]	; (2d94 <task::_scheduler()+0xa4>)
    2d74:	22bf      	movs	r2, #191	; 0xbf
    2d76:	601a      	str	r2, [r3, #0]
    2d78:	f7ff ff4a 	bl	2c10 <yahal_assert_func()>
    2d7c:	20000684 	.word	0x20000684
    2d80:	20000098 	.word	0x20000098
    2d84:	20000678 	.word	0x20000678
    2d88:	20000688 	.word	0x20000688
    2d8c:	200000c4 	.word	0x200000c4
    2d90:	0000ee4c 	.word	0x0000ee4c
    2d94:	200000e0 	.word	0x200000e0

00002d98 <task::_tick_handler()>:
    2d98:	b508      	push	{r3, lr}
    2d9a:	4a08      	ldr	r2, [pc, #32]	; (2dbc <task::_tick_handler()+0x24>)
    2d9c:	6813      	ldr	r3, [r2, #0]
    2d9e:	6851      	ldr	r1, [r2, #4]
    2da0:	3301      	adds	r3, #1
    2da2:	f141 0100 	adc.w	r1, r1, #0
    2da6:	6013      	str	r3, [r2, #0]
    2da8:	6051      	str	r1, [r2, #4]
    2daa:	4b05      	ldr	r3, [pc, #20]	; (2dc0 <task::_tick_handler()+0x28>)
    2dac:	681a      	ldr	r2, [r3, #0]
    2dae:	6993      	ldr	r3, [r2, #24]
    2db0:	3301      	adds	r3, #1
    2db2:	6193      	str	r3, [r2, #24]
    2db4:	f7ff ff9c 	bl	2cf0 <task::_scheduler()>
    2db8:	bd08      	pop	{r3, pc}
    2dba:	bf00      	nop
    2dbc:	20000098 	.word	0x20000098
    2dc0:	20000684 	.word	0x20000684

00002dc4 <task::run()>:
    2dc4:	b508      	push	{r3, lr}
    2dc6:	3044      	adds	r0, #68	; 0x44
    2dc8:	f7fe fe52 	bl	1a70 <std::function<void ()>::operator()() const>
    2dcc:	bd08      	pop	{r3, pc}

00002dce <circular_list<task>::push_back(task*)>:
    2dce:	6843      	ldr	r3, [r0, #4]
    2dd0:	b17b      	cbz	r3, 2df2 <circular_list<task>::push_back(task*)+0x24>
    2dd2:	6803      	ldr	r3, [r0, #0]
    2dd4:	63cb      	str	r3, [r1, #60]	; 0x3c
    2dd6:	6843      	ldr	r3, [r0, #4]
    2dd8:	640b      	str	r3, [r1, #64]	; 0x40
    2dda:	6803      	ldr	r3, [r0, #0]
    2ddc:	6419      	str	r1, [r3, #64]	; 0x40
    2dde:	6843      	ldr	r3, [r0, #4]
    2de0:	63d9      	str	r1, [r3, #60]	; 0x3c
    2de2:	6041      	str	r1, [r0, #4]
    2de4:	2301      	movs	r3, #1
    2de6:	f881 3038 	strb.w	r3, [r1, #56]	; 0x38
    2dea:	6883      	ldr	r3, [r0, #8]
    2dec:	3301      	adds	r3, #1
    2dee:	6083      	str	r3, [r0, #8]
    2df0:	4770      	bx	lr
    2df2:	63c9      	str	r1, [r1, #60]	; 0x3c
    2df4:	6409      	str	r1, [r1, #64]	; 0x40
    2df6:	6041      	str	r1, [r0, #4]
    2df8:	6001      	str	r1, [r0, #0]
    2dfa:	e7f3      	b.n	2de4 <circular_list<task>::push_back(task*)+0x16>

00002dfc <task::start(unsigned short, bool)>:
    2dfc:	b538      	push	{r3, r4, r5, lr}
    2dfe:	b131      	cbz	r1, 2e0e <task::start(unsigned short, bool)+0x12>
    2e00:	4604      	mov	r4, r0
    2e02:	460d      	mov	r5, r1
    2e04:	f890 3038 	ldrb.w	r3, [r0, #56]	; 0x38
    2e08:	b90b      	cbnz	r3, 2e0e <task::start(unsigned short, bool)+0x12>
    2e0a:	2300      	movs	r3, #0
    2e0c:	e00e      	b.n	2e2c <task::start(unsigned short, bool)+0x30>
    2e0e:	4b14      	ldr	r3, [pc, #80]	; (2e60 <task::start(unsigned short, bool)+0x64>)
    2e10:	4a14      	ldr	r2, [pc, #80]	; (2e64 <task::start(unsigned short, bool)+0x68>)
    2e12:	601a      	str	r2, [r3, #0]
    2e14:	4b14      	ldr	r3, [pc, #80]	; (2e68 <task::start(unsigned short, bool)+0x6c>)
    2e16:	2242      	movs	r2, #66	; 0x42
    2e18:	601a      	str	r2, [r3, #0]
    2e1a:	f7ff fef9 	bl	2c10 <yahal_assert_func()>
    2e1e:	6ae0      	ldr	r0, [r4, #44]	; 0x2c
    2e20:	f04f 0ca5 	mov.w	ip, #165	; 0xa5
    2e24:	f800 c003 	strb.w	ip, [r0, r3]
    2e28:	3301      	adds	r3, #1
    2e2a:	b29b      	uxth	r3, r3
    2e2c:	8e20      	ldrh	r0, [r4, #48]	; 0x30
    2e2e:	4298      	cmp	r0, r3
    2e30:	d8f5      	bhi.n	2e1e <task::start(unsigned short, bool)+0x22>
    2e32:	4611      	mov	r1, r2
    2e34:	4620      	mov	r0, r4
    2e36:	f000 fa87 	bl	3348 <task::_setup_stack(bool)>
    2e3a:	7525      	strb	r5, [r4, #20]
    2e3c:	2300      	movs	r3, #0
    2e3e:	7563      	strb	r3, [r4, #21]
    2e40:	61a3      	str	r3, [r4, #24]
    2e42:	61e3      	str	r3, [r4, #28]
    2e44:	2000      	movs	r0, #0
    2e46:	2100      	movs	r1, #0
    2e48:	e9c4 0108 	strd	r0, r1, [r4, #32]
    2e4c:	62a3      	str	r3, [r4, #40]	; 0x28
    2e4e:	f000 fad1 	bl	33f4 <task::enterCritical()>
    2e52:	4621      	mov	r1, r4
    2e54:	4805      	ldr	r0, [pc, #20]	; (2e6c <task::start(unsigned short, bool)+0x70>)
    2e56:	f7ff ffba 	bl	2dce <circular_list<task>::push_back(task*)>
    2e5a:	f000 fad0 	bl	33fe <task::leaveCritical()>
    2e5e:	bd38      	pop	{r3, r4, r5, pc}
    2e60:	200000c4 	.word	0x200000c4
    2e64:	0000ee4c 	.word	0x0000ee4c
    2e68:	200000e0 	.word	0x200000e0
    2e6c:	20000678 	.word	0x20000678

00002e70 <circular_list<task>::remove(task*)>:
    2e70:	6883      	ldr	r3, [r0, #8]
    2e72:	2b01      	cmp	r3, #1
    2e74:	d011      	beq.n	2e9a <circular_list<task>::remove(task*)+0x2a>
    2e76:	6c0a      	ldr	r2, [r1, #64]	; 0x40
    2e78:	6bcb      	ldr	r3, [r1, #60]	; 0x3c
    2e7a:	63d3      	str	r3, [r2, #60]	; 0x3c
    2e7c:	6c0a      	ldr	r2, [r1, #64]	; 0x40
    2e7e:	641a      	str	r2, [r3, #64]	; 0x40
    2e80:	6803      	ldr	r3, [r0, #0]
    2e82:	428b      	cmp	r3, r1
    2e84:	d00d      	beq.n	2ea2 <circular_list<task>::remove(task*)+0x32>
    2e86:	6843      	ldr	r3, [r0, #4]
    2e88:	428b      	cmp	r3, r1
    2e8a:	d00d      	beq.n	2ea8 <circular_list<task>::remove(task*)+0x38>
    2e8c:	2300      	movs	r3, #0
    2e8e:	f881 3038 	strb.w	r3, [r1, #56]	; 0x38
    2e92:	6883      	ldr	r3, [r0, #8]
    2e94:	3b01      	subs	r3, #1
    2e96:	6083      	str	r3, [r0, #8]
    2e98:	4770      	bx	lr
    2e9a:	2300      	movs	r3, #0
    2e9c:	6003      	str	r3, [r0, #0]
    2e9e:	6043      	str	r3, [r0, #4]
    2ea0:	e7f4      	b.n	2e8c <circular_list<task>::remove(task*)+0x1c>
    2ea2:	6bcb      	ldr	r3, [r1, #60]	; 0x3c
    2ea4:	6003      	str	r3, [r0, #0]
    2ea6:	e7ee      	b.n	2e86 <circular_list<task>::remove(task*)+0x16>
    2ea8:	6c0b      	ldr	r3, [r1, #64]	; 0x40
    2eaa:	6043      	str	r3, [r0, #4]
    2eac:	e7ee      	b.n	2e8c <circular_list<task>::remove(task*)+0x1c>
	...

00002eb0 <task::stop()>:
    2eb0:	f890 3038 	ldrb.w	r3, [r0, #56]	; 0x38
    2eb4:	b903      	cbnz	r3, 2eb8 <task::stop()+0x8>
    2eb6:	4770      	bx	lr
    2eb8:	b510      	push	{r4, lr}
    2eba:	4604      	mov	r4, r0
    2ebc:	f000 fa9a 	bl	33f4 <task::enterCritical()>
    2ec0:	4621      	mov	r1, r4
    2ec2:	4804      	ldr	r0, [pc, #16]	; (2ed4 <task::stop()+0x24>)
    2ec4:	f7ff ffd4 	bl	2e70 <circular_list<task>::remove(task*)>
    2ec8:	f000 fa99 	bl	33fe <task::leaveCritical()>
    2ecc:	f000 fa8a 	bl	33e4 <task::yield()>
    2ed0:	bd10      	pop	{r4, pc}
    2ed2:	bf00      	nop
    2ed4:	20000678 	.word	0x20000678

00002ed8 <task::~task()>:
    2ed8:	b510      	push	{r4, lr}
    2eda:	4604      	mov	r4, r0
    2edc:	4b07      	ldr	r3, [pc, #28]	; (2efc <task::~task()+0x24>)
    2ede:	6003      	str	r3, [r0, #0]
    2ee0:	f7ff ffe6 	bl	2eb0 <task::stop()>
    2ee4:	6ae0      	ldr	r0, [r4, #44]	; 0x2c
    2ee6:	b108      	cbz	r0, 2eec <task::~task()+0x14>
    2ee8:	f001 fe4b 	bl	4b82 <operator delete[](void*)>
    2eec:	2300      	movs	r3, #0
    2eee:	62e3      	str	r3, [r4, #44]	; 0x2c
    2ef0:	f104 0044 	add.w	r0, r4, #68	; 0x44
    2ef4:	f7fe fc20 	bl	1738 <std::_Function_base::~_Function_base()>
    2ef8:	4620      	mov	r0, r4
    2efa:	bd10      	pop	{r4, pc}
    2efc:	0000ee94 	.word	0x0000ee94

00002f00 <task::~task()>:
    2f00:	b510      	push	{r4, lr}
    2f02:	4604      	mov	r4, r0
    2f04:	f7ff ffe8 	bl	2ed8 <task::~task()>
    2f08:	2158      	movs	r1, #88	; 0x58
    2f0a:	4620      	mov	r0, r4
    2f0c:	f001 fe37 	bl	4b7e <operator delete(void*, unsigned int)>
    2f10:	4620      	mov	r0, r4
    2f12:	bd10      	pop	{r4, pc}

00002f14 <task::_run()>:
    2f14:	b510      	push	{r4, lr}
    2f16:	4604      	mov	r4, r0
    2f18:	6803      	ldr	r3, [r0, #0]
    2f1a:	689b      	ldr	r3, [r3, #8]
    2f1c:	4798      	blx	r3
    2f1e:	4620      	mov	r0, r4
    2f20:	f7ff ffc6 	bl	2eb0 <task::stop()>
    2f24:	bd10      	pop	{r4, pc}

00002f26 <_GLOBAL__sub_I__ZN4task9_up_ticksE>:
    2f26:	b508      	push	{r3, lr}
    2f28:	f64f 71ff 	movw	r1, #65535	; 0xffff
    2f2c:	2001      	movs	r0, #1
    2f2e:	f7ff fe71 	bl	2c14 <__static_initialization_and_destruction_0(int, int)>
    2f32:	bd08      	pop	{r3, pc}

00002f34 <__yahal_bad_function_call>:
    2f34:	e7fe      	b.n	2f34 <__yahal_bad_function_call>
	...

00002f38 <__static_initialization_and_destruction_0(int, int)>:
    2f38:	2801      	cmp	r0, #1
    2f3a:	d000      	beq.n	2f3e <__static_initialization_and_destruction_0(int, int)+0x6>
    2f3c:	4770      	bx	lr
    2f3e:	f64f 73ff 	movw	r3, #65535	; 0xffff
    2f42:	4299      	cmp	r1, r3
    2f44:	d1fa      	bne.n	2f3c <__static_initialization_and_destruction_0(int, int)+0x4>
    2f46:	4b05      	ldr	r3, [pc, #20]	; (2f5c <__static_initialization_and_destruction_0(int, int)+0x24>)
    2f48:	2200      	movs	r2, #0
    2f4a:	601a      	str	r2, [r3, #0]
    2f4c:	605a      	str	r2, [r3, #4]
    2f4e:	609a      	str	r2, [r3, #8]
    2f50:	60da      	str	r2, [r3, #12]
    2f52:	741a      	strb	r2, [r3, #16]
    2f54:	745a      	strb	r2, [r3, #17]
    2f56:	749a      	strb	r2, [r3, #18]
    2f58:	e7f0      	b.n	2f3c <__static_initialization_and_destruction_0(int, int)+0x4>
    2f5a:	bf00      	nop
    2f5c:	2000068c 	.word	0x2000068c

00002f60 <_read>:
    2f60:	b5f8      	push	{r3, r4, r5, r6, r7, lr}
    2f62:	460f      	mov	r7, r1
    2f64:	4616      	mov	r6, r2
    2f66:	4604      	mov	r4, r0
    2f68:	b178      	cbz	r0, 2f8a <_read+0x2a>
    2f6a:	4b19      	ldr	r3, [pc, #100]	; (2fd0 <_read+0x70>)
    2f6c:	68d8      	ldr	r0, [r3, #12]
    2f6e:	2800      	cmp	r0, #0
    2f70:	d02b      	beq.n	2fca <_read+0x6a>
    2f72:	6803      	ldr	r3, [r0, #0]
    2f74:	681d      	ldr	r5, [r3, #0]
    2f76:	4613      	mov	r3, r2
    2f78:	460a      	mov	r2, r1
    2f7a:	4621      	mov	r1, r4
    2f7c:	47a8      	blx	r5
    2f7e:	bdf8      	pop	{r3, r4, r5, r6, r7, pc}
    2f80:	2500      	movs	r5, #0
    2f82:	553d      	strb	r5, [r7, r4]
    2f84:	2d0d      	cmp	r5, #13
    2f86:	d01c      	beq.n	2fc2 <_read+0x62>
    2f88:	3401      	adds	r4, #1
    2f8a:	42b4      	cmp	r4, r6
    2f8c:	da1b      	bge.n	2fc6 <_read+0x66>
    2f8e:	4810      	ldr	r0, [pc, #64]	; (2fd0 <_read+0x70>)
    2f90:	6800      	ldr	r0, [r0, #0]
    2f92:	2800      	cmp	r0, #0
    2f94:	d0f4      	beq.n	2f80 <_read+0x20>
    2f96:	6803      	ldr	r3, [r0, #0]
    2f98:	685b      	ldr	r3, [r3, #4]
    2f9a:	4798      	blx	r3
    2f9c:	4605      	mov	r5, r0
    2f9e:	4b0c      	ldr	r3, [pc, #48]	; (2fd0 <_read+0x70>)
    2fa0:	7c1b      	ldrb	r3, [r3, #16]
    2fa2:	2b00      	cmp	r3, #0
    2fa4:	d0ed      	beq.n	2f82 <_read+0x22>
    2fa6:	4b0a      	ldr	r3, [pc, #40]	; (2fd0 <_read+0x70>)
    2fa8:	6858      	ldr	r0, [r3, #4]
    2faa:	2800      	cmp	r0, #0
    2fac:	d0e9      	beq.n	2f82 <_read+0x22>
    2fae:	6803      	ldr	r3, [r0, #0]
    2fb0:	689b      	ldr	r3, [r3, #8]
    2fb2:	4629      	mov	r1, r5
    2fb4:	4798      	blx	r3
    2fb6:	4b07      	ldr	r3, [pc, #28]	; (2fd4 <_read+0x74>)
    2fb8:	681b      	ldr	r3, [r3, #0]
    2fba:	6898      	ldr	r0, [r3, #8]
    2fbc:	f001 ff8a 	bl	4ed4 <fflush>
    2fc0:	e7df      	b.n	2f82 <_read+0x22>
    2fc2:	1c60      	adds	r0, r4, #1
    2fc4:	e7db      	b.n	2f7e <_read+0x1e>
    2fc6:	4620      	mov	r0, r4
    2fc8:	e7d9      	b.n	2f7e <_read+0x1e>
    2fca:	2000      	movs	r0, #0
    2fcc:	e7d7      	b.n	2f7e <_read+0x1e>
    2fce:	bf00      	nop
    2fd0:	2000068c 	.word	0x2000068c
    2fd4:	20000048 	.word	0x20000048

00002fd8 <_write>:
    2fd8:	b5f0      	push	{r4, r5, r6, r7, lr}
    2fda:	b085      	sub	sp, #20
    2fdc:	460e      	mov	r6, r1
    2fde:	4615      	mov	r5, r2
    2fe0:	2801      	cmp	r0, #1
    2fe2:	d026      	beq.n	3032 <_write+0x5a>
    2fe4:	4604      	mov	r4, r0
    2fe6:	2802      	cmp	r0, #2
    2fe8:	d028      	beq.n	303c <_write+0x64>
    2fea:	4b38      	ldr	r3, [pc, #224]	; (30cc <_write+0xf4>)
    2fec:	68d8      	ldr	r0, [r3, #12]
    2fee:	2800      	cmp	r0, #0
    2ff0:	d069      	beq.n	30c6 <_write+0xee>
    2ff2:	6803      	ldr	r3, [r0, #0]
    2ff4:	685f      	ldr	r7, [r3, #4]
    2ff6:	4613      	mov	r3, r2
    2ff8:	460a      	mov	r2, r1
    2ffa:	4621      	mov	r1, r4
    2ffc:	47b8      	blx	r7
    2ffe:	e01b      	b.n	3038 <_write+0x60>
    3000:	3401      	adds	r4, #1
    3002:	42ac      	cmp	r4, r5
    3004:	da17      	bge.n	3036 <_write+0x5e>
    3006:	4b31      	ldr	r3, [pc, #196]	; (30cc <_write+0xf4>)
    3008:	6858      	ldr	r0, [r3, #4]
    300a:	2800      	cmp	r0, #0
    300c:	d0f8      	beq.n	3000 <_write+0x28>
    300e:	6803      	ldr	r3, [r0, #0]
    3010:	689b      	ldr	r3, [r3, #8]
    3012:	5d31      	ldrb	r1, [r6, r4]
    3014:	4798      	blx	r3
    3016:	4b2d      	ldr	r3, [pc, #180]	; (30cc <_write+0xf4>)
    3018:	7c5b      	ldrb	r3, [r3, #17]
    301a:	2b00      	cmp	r3, #0
    301c:	d0f0      	beq.n	3000 <_write+0x28>
    301e:	5d33      	ldrb	r3, [r6, r4]
    3020:	2b0a      	cmp	r3, #10
    3022:	d1ed      	bne.n	3000 <_write+0x28>
    3024:	4b29      	ldr	r3, [pc, #164]	; (30cc <_write+0xf4>)
    3026:	6858      	ldr	r0, [r3, #4]
    3028:	6803      	ldr	r3, [r0, #0]
    302a:	689b      	ldr	r3, [r3, #8]
    302c:	210d      	movs	r1, #13
    302e:	4798      	blx	r3
    3030:	e7e6      	b.n	3000 <_write+0x28>
    3032:	2400      	movs	r4, #0
    3034:	e7e5      	b.n	3002 <_write+0x2a>
    3036:	4628      	mov	r0, r5
    3038:	b005      	add	sp, #20
    303a:	bdf0      	pop	{r4, r5, r6, r7, pc}
    303c:	4b23      	ldr	r3, [pc, #140]	; (30cc <_write+0xf4>)
    303e:	689b      	ldr	r3, [r3, #8]
    3040:	2b00      	cmp	r3, #0
    3042:	d03e      	beq.n	30c2 <_write+0xea>
    3044:	4b22      	ldr	r3, [pc, #136]	; (30d0 <_write+0xf8>)
    3046:	e893 0003 	ldmia.w	r3, {r0, r1}
    304a:	9002      	str	r0, [sp, #8]
    304c:	f8ad 100c 	strh.w	r1, [sp, #12]
    3050:	4b20      	ldr	r3, [pc, #128]	; (30d4 <_write+0xfc>)
    3052:	e893 0003 	ldmia.w	r3, {r0, r1}
    3056:	9000      	str	r0, [sp, #0]
    3058:	f88d 1004 	strb.w	r1, [sp, #4]
    305c:	ac02      	add	r4, sp, #8
    305e:	e005      	b.n	306c <_write+0x94>
    3060:	4b1a      	ldr	r3, [pc, #104]	; (30cc <_write+0xf4>)
    3062:	6898      	ldr	r0, [r3, #8]
    3064:	3401      	adds	r4, #1
    3066:	6803      	ldr	r3, [r0, #0]
    3068:	689b      	ldr	r3, [r3, #8]
    306a:	4798      	blx	r3
    306c:	7821      	ldrb	r1, [r4, #0]
    306e:	2900      	cmp	r1, #0
    3070:	d1f6      	bne.n	3060 <_write+0x88>
    3072:	2400      	movs	r4, #0
    3074:	e000      	b.n	3078 <_write+0xa0>
    3076:	3401      	adds	r4, #1
    3078:	42ac      	cmp	r4, r5
    307a:	da15      	bge.n	30a8 <_write+0xd0>
    307c:	4b13      	ldr	r3, [pc, #76]	; (30cc <_write+0xf4>)
    307e:	6898      	ldr	r0, [r3, #8]
    3080:	2800      	cmp	r0, #0
    3082:	d0f8      	beq.n	3076 <_write+0x9e>
    3084:	6803      	ldr	r3, [r0, #0]
    3086:	689b      	ldr	r3, [r3, #8]
    3088:	5d31      	ldrb	r1, [r6, r4]
    308a:	4798      	blx	r3
    308c:	4b0f      	ldr	r3, [pc, #60]	; (30cc <_write+0xf4>)
    308e:	7c9b      	ldrb	r3, [r3, #18]
    3090:	2b00      	cmp	r3, #0
    3092:	d0f0      	beq.n	3076 <_write+0x9e>
    3094:	5d33      	ldrb	r3, [r6, r4]
    3096:	2b0a      	cmp	r3, #10
    3098:	d1ed      	bne.n	3076 <_write+0x9e>
    309a:	4b0c      	ldr	r3, [pc, #48]	; (30cc <_write+0xf4>)
    309c:	6898      	ldr	r0, [r3, #8]
    309e:	6803      	ldr	r3, [r0, #0]
    30a0:	689b      	ldr	r3, [r3, #8]
    30a2:	210d      	movs	r1, #13
    30a4:	4798      	blx	r3
    30a6:	e7e6      	b.n	3076 <_write+0x9e>
    30a8:	466c      	mov	r4, sp
    30aa:	e005      	b.n	30b8 <_write+0xe0>
    30ac:	4b07      	ldr	r3, [pc, #28]	; (30cc <_write+0xf4>)
    30ae:	6898      	ldr	r0, [r3, #8]
    30b0:	3401      	adds	r4, #1
    30b2:	6803      	ldr	r3, [r0, #0]
    30b4:	689b      	ldr	r3, [r3, #8]
    30b6:	4798      	blx	r3
    30b8:	7821      	ldrb	r1, [r4, #0]
    30ba:	2900      	cmp	r1, #0
    30bc:	d1f6      	bne.n	30ac <_write+0xd4>
    30be:	4628      	mov	r0, r5
    30c0:	e7ba      	b.n	3038 <_write+0x60>
    30c2:	4610      	mov	r0, r2
    30c4:	e7b8      	b.n	3038 <_write+0x60>
    30c6:	2000      	movs	r0, #0
    30c8:	e7b6      	b.n	3038 <_write+0x60>
    30ca:	bf00      	nop
    30cc:	2000068c 	.word	0x2000068c
    30d0:	0000eea0 	.word	0x0000eea0
    30d4:	0000eea8 	.word	0x0000eea8

000030d8 <_close>:
    30d8:	b508      	push	{r3, lr}
    30da:	4601      	mov	r1, r0
    30dc:	4b06      	ldr	r3, [pc, #24]	; (30f8 <_close+0x20>)
    30de:	68d8      	ldr	r0, [r3, #12]
    30e0:	b118      	cbz	r0, 30ea <_close+0x12>
    30e2:	6803      	ldr	r3, [r0, #0]
    30e4:	68db      	ldr	r3, [r3, #12]
    30e6:	4798      	blx	r3
    30e8:	bd08      	pop	{r3, pc}
    30ea:	f002 f999 	bl	5420 <__errno>
    30ee:	2309      	movs	r3, #9
    30f0:	6003      	str	r3, [r0, #0]
    30f2:	f04f 30ff 	mov.w	r0, #4294967295
    30f6:	e7f7      	b.n	30e8 <_close+0x10>
    30f8:	2000068c 	.word	0x2000068c

000030fc <_fstat>:
    30fc:	4603      	mov	r3, r0
    30fe:	460a      	mov	r2, r1
    3100:	4906      	ldr	r1, [pc, #24]	; (311c <_fstat+0x20>)
    3102:	68c8      	ldr	r0, [r1, #12]
    3104:	b128      	cbz	r0, 3112 <_fstat+0x16>
    3106:	b510      	push	{r4, lr}
    3108:	6801      	ldr	r1, [r0, #0]
    310a:	69cc      	ldr	r4, [r1, #28]
    310c:	4619      	mov	r1, r3
    310e:	47a0      	blx	r4
    3110:	bd10      	pop	{r4, pc}
    3112:	f44f 5300 	mov.w	r3, #8192	; 0x2000
    3116:	6053      	str	r3, [r2, #4]
    3118:	2000      	movs	r0, #0
    311a:	4770      	bx	lr
    311c:	2000068c 	.word	0x2000068c

00003120 <_lseek>:
    3120:	4684      	mov	ip, r0
    3122:	4613      	mov	r3, r2
    3124:	4a05      	ldr	r2, [pc, #20]	; (313c <_lseek+0x1c>)
    3126:	68d0      	ldr	r0, [r2, #12]
    3128:	b130      	cbz	r0, 3138 <_lseek+0x18>
    312a:	b510      	push	{r4, lr}
    312c:	6802      	ldr	r2, [r0, #0]
    312e:	6a14      	ldr	r4, [r2, #32]
    3130:	460a      	mov	r2, r1
    3132:	4661      	mov	r1, ip
    3134:	47a0      	blx	r4
    3136:	bd10      	pop	{r4, pc}
    3138:	2000      	movs	r0, #0
    313a:	4770      	bx	lr
    313c:	2000068c 	.word	0x2000068c

00003140 <_isatty>:
    3140:	2802      	cmp	r0, #2
    3142:	d90f      	bls.n	3164 <_isatty+0x24>
    3144:	b508      	push	{r3, lr}
    3146:	4601      	mov	r1, r0
    3148:	4b07      	ldr	r3, [pc, #28]	; (3168 <_isatty+0x28>)
    314a:	68d8      	ldr	r0, [r3, #12]
    314c:	b118      	cbz	r0, 3156 <_isatty+0x16>
    314e:	6803      	ldr	r3, [r0, #0]
    3150:	6a5b      	ldr	r3, [r3, #36]	; 0x24
    3152:	4798      	blx	r3
    3154:	bd08      	pop	{r3, pc}
    3156:	f002 f963 	bl	5420 <__errno>
    315a:	2309      	movs	r3, #9
    315c:	6003      	str	r3, [r0, #0]
    315e:	f04f 30ff 	mov.w	r0, #4294967295
    3162:	e7f7      	b.n	3154 <_isatty+0x14>
    3164:	2001      	movs	r0, #1
    3166:	4770      	bx	lr
    3168:	2000068c 	.word	0x2000068c

0000316c <_kill>:
    316c:	b508      	push	{r3, lr}
    316e:	f002 f957 	bl	5420 <__errno>
    3172:	2316      	movs	r3, #22
    3174:	6003      	str	r3, [r0, #0]
    3176:	f04f 30ff 	mov.w	r0, #4294967295
    317a:	bd08      	pop	{r3, pc}

0000317c <_getpid>:
    317c:	f04f 30ff 	mov.w	r0, #4294967295
    3180:	4770      	bx	lr
	...

00003184 <posix_io::register_stdin(uart_interface&, bool)>:
    3184:	b508      	push	{r3, lr}
    3186:	6001      	str	r1, [r0, #0]
    3188:	7402      	strb	r2, [r0, #16]
    318a:	4b04      	ldr	r3, [pc, #16]	; (319c <posix_io::register_stdin(uart_interface&, bool)+0x18>)
    318c:	6818      	ldr	r0, [r3, #0]
    318e:	2364      	movs	r3, #100	; 0x64
    3190:	2201      	movs	r2, #1
    3192:	2100      	movs	r1, #0
    3194:	6840      	ldr	r0, [r0, #4]
    3196:	f001 ff97 	bl	50c8 <setvbuf>
    319a:	bd08      	pop	{r3, pc}
    319c:	20000048 	.word	0x20000048

000031a0 <posix_io::register_stdout(uart_interface&, bool)>:
    31a0:	b508      	push	{r3, lr}
    31a2:	6041      	str	r1, [r0, #4]
    31a4:	7442      	strb	r2, [r0, #17]
    31a6:	4b04      	ldr	r3, [pc, #16]	; (31b8 <posix_io::register_stdout(uart_interface&, bool)+0x18>)
    31a8:	6818      	ldr	r0, [r3, #0]
    31aa:	2364      	movs	r3, #100	; 0x64
    31ac:	2201      	movs	r2, #1
    31ae:	2100      	movs	r1, #0
    31b0:	6880      	ldr	r0, [r0, #8]
    31b2:	f001 ff89 	bl	50c8 <setvbuf>
    31b6:	bd08      	pop	{r3, pc}
    31b8:	20000048 	.word	0x20000048

000031bc <posix_io::register_stderr(uart_interface&, bool)>:
    31bc:	b508      	push	{r3, lr}
    31be:	6081      	str	r1, [r0, #8]
    31c0:	7482      	strb	r2, [r0, #18]
    31c2:	4b04      	ldr	r3, [pc, #16]	; (31d4 <posix_io::register_stderr(uart_interface&, bool)+0x18>)
    31c4:	6818      	ldr	r0, [r3, #0]
    31c6:	2364      	movs	r3, #100	; 0x64
    31c8:	2201      	movs	r2, #1
    31ca:	2100      	movs	r1, #0
    31cc:	68c0      	ldr	r0, [r0, #12]
    31ce:	f001 ff7b 	bl	50c8 <setvbuf>
    31d2:	bd08      	pop	{r3, pc}
    31d4:	20000048 	.word	0x20000048

000031d8 <_GLOBAL__sub_I__ZN8posix_io4instE>:
    31d8:	b508      	push	{r3, lr}
    31da:	f64f 71ff 	movw	r1, #65535	; 0xffff
    31de:	2001      	movs	r0, #1
    31e0:	f7ff feaa 	bl	2f38 <__static_initialization_and_destruction_0(int, int)>
    31e4:	bd08      	pop	{r3, pc}

000031e6 <irq_dispatcher::link_in()>:
    31e6:	4770      	bx	lr

000031e8 <Default_EUSCI_Handler>:
    31e8:	e7fe      	b.n	31e8 <Default_EUSCI_Handler>
	...

000031ec <EUSCIA0_IRQHandler>:
    31ec:	b508      	push	{r3, lr}
    31ee:	4b05      	ldr	r3, [pc, #20]	; (3204 <EUSCIA0_IRQHandler+0x18>)
    31f0:	881b      	ldrh	r3, [r3, #0]
    31f2:	f413 7f80 	tst.w	r3, #256	; 0x100
    31f6:	d002      	beq.n	31fe <EUSCIA0_IRQHandler+0x12>
    31f8:	f7ff f806 	bl	2208 <EUSCIA0_SPI_IRQHandler>
    31fc:	bd08      	pop	{r3, pc}
    31fe:	f7ff fae1 	bl	27c4 <EUSCIA0_UART_IRQHandler>
    3202:	e7fb      	b.n	31fc <EUSCIA0_IRQHandler+0x10>
    3204:	40001000 	.word	0x40001000

00003208 <EUSCIA1_IRQHandler>:
    3208:	b508      	push	{r3, lr}
    320a:	4b05      	ldr	r3, [pc, #20]	; (3220 <EUSCIA1_IRQHandler+0x18>)
    320c:	881b      	ldrh	r3, [r3, #0]
    320e:	f413 7f80 	tst.w	r3, #256	; 0x100
    3212:	d002      	beq.n	321a <EUSCIA1_IRQHandler+0x12>
    3214:	f7ff f804 	bl	2220 <EUSCIA1_SPI_IRQHandler>
    3218:	bd08      	pop	{r3, pc}
    321a:	f7ff fadb 	bl	27d4 <EUSCIA1_UART_IRQHandler>
    321e:	e7fb      	b.n	3218 <EUSCIA1_IRQHandler+0x10>
    3220:	40001400 	.word	0x40001400

00003224 <EUSCIA2_IRQHandler>:
    3224:	b508      	push	{r3, lr}
    3226:	4b05      	ldr	r3, [pc, #20]	; (323c <EUSCIA2_IRQHandler+0x18>)
    3228:	881b      	ldrh	r3, [r3, #0]
    322a:	f413 7f80 	tst.w	r3, #256	; 0x100
    322e:	d002      	beq.n	3236 <EUSCIA2_IRQHandler+0x12>
    3230:	f7ff f802 	bl	2238 <EUSCIA2_SPI_IRQHandler>
    3234:	bd08      	pop	{r3, pc}
    3236:	f7ff fad5 	bl	27e4 <EUSCIA2_UART_IRQHandler>
    323a:	e7fb      	b.n	3234 <EUSCIA2_IRQHandler+0x10>
    323c:	40001800 	.word	0x40001800

00003240 <EUSCIA3_IRQHandler>:
    3240:	b508      	push	{r3, lr}
    3242:	4b05      	ldr	r3, [pc, #20]	; (3258 <EUSCIA3_IRQHandler+0x18>)
    3244:	881b      	ldrh	r3, [r3, #0]
    3246:	f413 7f80 	tst.w	r3, #256	; 0x100
    324a:	d002      	beq.n	3252 <EUSCIA3_IRQHandler+0x12>
    324c:	f7ff f800 	bl	2250 <EUSCIA3_SPI_IRQHandler>
    3250:	bd08      	pop	{r3, pc}
    3252:	f7ff facf 	bl	27f4 <EUSCIA3_UART_IRQHandler>
    3256:	e7fb      	b.n	3250 <EUSCIA3_IRQHandler+0x10>
    3258:	40001c00 	.word	0x40001c00

0000325c <EUSCIB0_IRQHandler>:
    325c:	b508      	push	{r3, lr}
    325e:	4b06      	ldr	r3, [pc, #24]	; (3278 <EUSCIB0_IRQHandler+0x1c>)
    3260:	881b      	ldrh	r3, [r3, #0]
    3262:	f403 63c0 	and.w	r3, r3, #1536	; 0x600
    3266:	f5b3 6fc0 	cmp.w	r3, #1536	; 0x600
    326a:	d002      	beq.n	3272 <EUSCIB0_IRQHandler+0x16>
    326c:	f7fe fffc 	bl	2268 <EUSCIB0_SPI_IRQHandler>
    3270:	bd08      	pop	{r3, pc}
    3272:	f7ff ffb9 	bl	31e8 <Default_EUSCI_Handler>
    3276:	e7fb      	b.n	3270 <EUSCIB0_IRQHandler+0x14>
    3278:	40002000 	.word	0x40002000

0000327c <EUSCIB1_IRQHandler>:
    327c:	b508      	push	{r3, lr}
    327e:	4b06      	ldr	r3, [pc, #24]	; (3298 <EUSCIB1_IRQHandler+0x1c>)
    3280:	881b      	ldrh	r3, [r3, #0]
    3282:	f403 63c0 	and.w	r3, r3, #1536	; 0x600
    3286:	f5b3 6fc0 	cmp.w	r3, #1536	; 0x600
    328a:	d002      	beq.n	3292 <EUSCIB1_IRQHandler+0x16>
    328c:	f7fe fff8 	bl	2280 <EUSCIB1_SPI_IRQHandler>
    3290:	bd08      	pop	{r3, pc}
    3292:	f7ff ffa9 	bl	31e8 <Default_EUSCI_Handler>
    3296:	e7fb      	b.n	3290 <EUSCIB1_IRQHandler+0x14>
    3298:	40002400 	.word	0x40002400

0000329c <EUSCIB2_IRQHandler>:
    329c:	b508      	push	{r3, lr}
    329e:	4b06      	ldr	r3, [pc, #24]	; (32b8 <EUSCIB2_IRQHandler+0x1c>)
    32a0:	881b      	ldrh	r3, [r3, #0]
    32a2:	f403 63c0 	and.w	r3, r3, #1536	; 0x600
    32a6:	f5b3 6fc0 	cmp.w	r3, #1536	; 0x600
    32aa:	d002      	beq.n	32b2 <EUSCIB2_IRQHandler+0x16>
    32ac:	f7fe fff4 	bl	2298 <EUSCIB2_SPI_IRQHandler>
    32b0:	bd08      	pop	{r3, pc}
    32b2:	f7ff ff99 	bl	31e8 <Default_EUSCI_Handler>
    32b6:	e7fb      	b.n	32b0 <EUSCIB2_IRQHandler+0x14>
    32b8:	40002800 	.word	0x40002800

000032bc <EUSCIB3_IRQHandler>:
    32bc:	b508      	push	{r3, lr}
    32be:	4b06      	ldr	r3, [pc, #24]	; (32d8 <EUSCIB3_IRQHandler+0x1c>)
    32c0:	881b      	ldrh	r3, [r3, #0]
    32c2:	f403 63c0 	and.w	r3, r3, #1536	; 0x600
    32c6:	f5b3 6fc0 	cmp.w	r3, #1536	; 0x600
    32ca:	d002      	beq.n	32d2 <EUSCIB3_IRQHandler+0x16>
    32cc:	f7fe fff0 	bl	22b0 <EUSCIB3_SPI_IRQHandler>
    32d0:	bd08      	pop	{r3, pc}
    32d2:	f7ff ff89 	bl	31e8 <Default_EUSCI_Handler>
    32d6:	e7fb      	b.n	32d0 <EUSCIB3_IRQHandler+0x14>
    32d8:	40002c00 	.word	0x40002c00

000032dc <yahal_assert_func()>:
    32dc:	e7fe      	b.n	32dc <yahal_assert_func()>
	...

000032e0 <task_idle::~task_idle()>:
    32e0:	b510      	push	{r4, lr}
    32e2:	4604      	mov	r4, r0
    32e4:	4b02      	ldr	r3, [pc, #8]	; (32f0 <task_idle::~task_idle()+0x10>)
    32e6:	6003      	str	r3, [r0, #0]
    32e8:	f7ff fdf6 	bl	2ed8 <task::~task()>
    32ec:	4620      	mov	r0, r4
    32ee:	bd10      	pop	{r4, pc}
    32f0:	0000eeb8 	.word	0x0000eeb8

000032f4 <task_idle::~task_idle()>:
    32f4:	b510      	push	{r4, lr}
    32f6:	4604      	mov	r4, r0
    32f8:	4b04      	ldr	r3, [pc, #16]	; (330c <task_idle::~task_idle()+0x18>)
    32fa:	6003      	str	r3, [r0, #0]
    32fc:	f7ff fdec 	bl	2ed8 <task::~task()>
    3300:	2158      	movs	r1, #88	; 0x58
    3302:	4620      	mov	r0, r4
    3304:	f001 fc3b 	bl	4b7e <operator delete(void*, unsigned int)>
    3308:	4620      	mov	r0, r4
    330a:	bd10      	pop	{r4, pc}
    330c:	0000eeb8 	.word	0x0000eeb8

00003310 <task::_switchToNext()>:
    3310:	4b02      	ldr	r3, [pc, #8]	; (331c <task::_switchToNext()+0xc>)
    3312:	681a      	ldr	r2, [r3, #0]
    3314:	4b02      	ldr	r3, [pc, #8]	; (3320 <task::_switchToNext()+0x10>)
    3316:	601a      	str	r2, [r3, #0]
    3318:	4770      	bx	lr
    331a:	bf00      	nop
    331c:	20000688 	.word	0x20000688
    3320:	20000684 	.word	0x20000684

00003324 <task::_getStackBase()>:
    3324:	4b01      	ldr	r3, [pc, #4]	; (332c <task::_getStackBase()+0x8>)
    3326:	681b      	ldr	r3, [r3, #0]
    3328:	6ad8      	ldr	r0, [r3, #44]	; 0x2c
    332a:	4770      	bx	lr
    332c:	20000684 	.word	0x20000684

00003330 <task::_getStackPtr()>:
    3330:	4b01      	ldr	r3, [pc, #4]	; (3338 <task::_getStackPtr()+0x8>)
    3332:	681b      	ldr	r3, [r3, #0]
    3334:	6b58      	ldr	r0, [r3, #52]	; 0x34
    3336:	4770      	bx	lr
    3338:	20000684 	.word	0x20000684

0000333c <task::_setStackPtr(unsigned char*)>:
    333c:	4b01      	ldr	r3, [pc, #4]	; (3344 <task::_setStackPtr(unsigned char*)+0x8>)
    333e:	681b      	ldr	r3, [r3, #0]
    3340:	6358      	str	r0, [r3, #52]	; 0x34
    3342:	4770      	bx	lr
    3344:	20000684 	.word	0x20000684

00003348 <task::_setup_stack(bool)>:
    3348:	b538      	push	{r3, r4, r5, lr}
    334a:	8e03      	ldrh	r3, [r0, #48]	; 0x30
    334c:	2b44      	cmp	r3, #68	; 0x44
    334e:	d90d      	bls.n	336c <task::_setup_stack(bool)+0x24>
    3350:	6ac4      	ldr	r4, [r0, #44]	; 0x2c
    3352:	3b44      	subs	r3, #68	; 0x44
    3354:	18e2      	adds	r2, r4, r3
    3356:	6342      	str	r2, [r0, #52]	; 0x34
    3358:	f04f 7580 	mov.w	r5, #16777216	; 0x1000000
    335c:	6415      	str	r5, [r2, #64]	; 0x40
    335e:	4d08      	ldr	r5, [pc, #32]	; (3380 <task::_setup_stack(bool)+0x38>)
    3360:	63d5      	str	r5, [r2, #60]	; 0x3c
    3362:	6250      	str	r0, [r2, #36]	; 0x24
    3364:	b151      	cbz	r1, 337c <task::_setup_stack(bool)+0x34>
    3366:	2202      	movs	r2, #2
    3368:	50e2      	str	r2, [r4, r3]
    336a:	bd38      	pop	{r3, r4, r5, pc}
    336c:	4b05      	ldr	r3, [pc, #20]	; (3384 <task::_setup_stack(bool)+0x3c>)
    336e:	4a06      	ldr	r2, [pc, #24]	; (3388 <task::_setup_stack(bool)+0x40>)
    3370:	601a      	str	r2, [r3, #0]
    3372:	4b06      	ldr	r3, [pc, #24]	; (338c <task::_setup_stack(bool)+0x44>)
    3374:	2249      	movs	r2, #73	; 0x49
    3376:	601a      	str	r2, [r3, #0]
